
========================================================================

** ELF Header Information

    File Name: E:\Project\RTL8762CJ(F)\REALTEK\SDK\00011936-BEE2-SDK-v1.0.2\BEE2-SDK-v1.0.2\board\evb\keyboard\Objects\app.axf

    Machine class: ELFCLASS32 (32-bit)
    Data encoding: ELFDATA2LSB (Little endian)
    Header version: EV_CURRENT (Current version)
    Operating System ABI: none
    ABI Version: 0
    File Type: ET_EXEC (Executable) (2)
    Machine: EM_ARM (ARM)

    Image Entry point: 0x0080e409
    Flags: EF_ARM_HASENTRY (0x05000002)

    ARM ELF revision: 5 (ABI version 2)

    Built with
    Component: ARM Compiler 5.05 update 1 (build 106) Tool: armasm [4d0efa]
    Component: ARM Compiler 5.05 update 1 (build 106) Tool: armlink [4d0efa]

    Header size: 52 bytes (0x34)
    Program header entry size: 32 bytes (0x20)
    Section header entry size: 40 bytes (0x28)

    Program header entries: 2
    Section header entries: 22

    Program header offset: 437860 (0x0006ae64)
    Section header offset: 437924 (0x0006aea4)

    Section header string table index: 21

========================================================================

** Program header #0 (PT_LOAD) [PF_X + PF_W + PF_R + PF_ARM_ENTRY]
    Size : 18664 bytes (18128 bytes in file)
    Virtual address: 0x0080e000 (Alignment 4)


====================================

** Program header #1 (PT_LOAD) [PF_R]
    Size : 6200 bytes
    Virtual address: 0x08800000 (Alignment 4)


========================================================================

** Section #1 'app.bin' (SHT_PROGBITS) [SHF_ALLOC]
    Size   : 1024 bytes (alignment 4)
    Address: 0x0080e000

    0x80e000:   05 00 01 01 93 27 00 00 00 01 00 00 6d 67 de f1    .....'......mg..
    0x80e010:   3e 33 e8 11 b1 02 4d 2d f4 0c de 01 00 e4 80 00    >3....M-........
    0x80e020:   00 e4 80 00 00 00 00 00 00 e0 80 00 00 00 00 00    ................
    0x80e030:   00 00 00 00 00 00 00 00 00 00 00 00 00 00 00 00    ................
    0x80e040:   00 00 00 00 00 00 00 00 00 00 00 00 00 00 00 00    ................
    0x80e050:   00 00 00 00 00 00 00 00 00 00 00 00 00 00 00 00    ................
    0x80e060:   01 20 00 00 a8 ac 83 2a 73 64 6b 23 23 23 23 23    . .....*sdk#####
    0x80e070:   00 00 00 00 00 00 00 00 00 00 00 00 00 00 00 00    ................
    0x80e080:   00 00 00 00 00 00 00 00 00 00 00 00 00 00 00 00    ................
    0x80e090:   00 00 00 00 00 00 00 00 00 00 00 00 00 00 00 00    ................
    0x80e0a0:   00 00 00 00 00 00 00 00 00 00 00 00 00 00 00 00    ................
    0x80e0b0:   00 00 00 00 00 00 00 00 00 00 00 00 00 00 00 00    ................
    0x80e0c0:   00 00 00 00 00 00 00 00 00 00 00 00 00 00 00 00    ................
    0x80e0d0:   00 00 00 00 00 00 00 00 00 00 00 00 00 00 00 00    ................
    0x80e0e0:   00 00 00 00 00 00 00 00 00 00 00 00 00 00 00 00    ................
    0x80e0f0:   00 00 00 00 00 00 00 00 00 00 00 00 00 00 00 00    ................
    0x80e100:   00 00 00 00 00 00 00 00 00 00 00 00 00 00 00 00    ................
    0x80e110:   00 00 00 00 00 00 00 00 00 00 00 00 00 00 00 00    ................
    0x80e120:   00 00 00 00 00 00 00 00 00 00 00 00 00 00 00 00    ................
    0x80e130:   00 00 00 00 00 00 00 00 00 00 00 00 00 00 00 00    ................
    0x80e140:   00 00 00 00 00 00 00 00 00 00 00 00 00 00 00 00    ................
    0x80e150:   00 00 00 00 00 00 00 00 00 00 00 00 00 00 00 00    ................
    0x80e160:   00 00 00 00 00 00 00 00 00 00 00 00 00 00 00 00    ................
    0x80e170:   00 00 00 00 00 00 00 00 00 00 00 00 00 00 00 00    ................
    0x80e180:   00 00 00 00 00 00 00 00 00 00 00 00 00 00 00 00    ................
    0x80e190:   00 00 00 00 00 00 00 00 00 00 00 00 00 00 00 00    ................
    0x80e1a0:   00 00 00 00 00 00 00 00 00 00 00 00 00 00 00 00    ................
    0x80e1b0:   00 00 00 00 00 00 00 00 00 00 00 00 00 00 00 00    ................
    0x80e1c0:   00 00 00 00 00 00 00 00 00 00 00 00 00 00 00 00    ................
    0x80e1d0:   00 00 00 00 00 00 00 00 01 d1 85 0e cc ad 20 00    .............. .
    0x80e1e0:   00 00 00 00 00 00 00 00 00 00 00 00 00 00 00 00    ................
    0x80e1f0:   00 00 00 00 00 00 00 00 00 00 00 00 00 00 00 00    ................
    0x80e200:   00 00 00 00 00 00 00 00 00 00 00 00 00 00 00 00    ................
    0x80e210:   00 00 00 00 00 00 00 00 00 00 00 00 00 00 00 00    ................
    0x80e220:   00 00 00 00 00 00 00 00 00 00 00 00 00 00 00 00    ................
    0x80e230:   00 00 00 00 00 00 00 00 00 00 00 00 00 00 00 00    ................
    0x80e240:   00 00 00 00 00 00 00 00 00 00 00 00 00 00 00 00    ................
    0x80e250:   00 00 00 00 00 00 00 00 00 00 00 00 00 00 00 00    ................
    0x80e260:   00 00 00 00 00 00 00 00 00 00 00 00 00 00 00 00    ................
    0x80e270:   00 00 00 00 00 00 00 00 00 00 00 00 00 00 00 00    ................
    0x80e280:   00 00 00 00 00 00 00 00 00 00 00 00 00 00 00 00    ................
    0x80e290:   00 00 00 00 00 00 00 00 00 00 00 00 00 00 00 00    ................
    0x80e2a0:   00 00 00 00 00 00 00 00 00 00 00 00 00 00 00 00    ................
    0x80e2b0:   00 00 00 00 00 00 00 00 00 00 00 00 00 00 00 00    ................
    0x80e2c0:   00 00 00 00 00 00 00 00 00 00 00 00 00 00 00 00    ................
    0x80e2d0:   00 00 00 00 00 00 00 00 00 00 00 00 00 00 00 00    ................
    0x80e2e0:   ff ff ff ff ff ff ff ff ff ff ff ff ff ff ff ff    ................
    0x80e2f0:   00 00 00 00 00 00 00 00 00 00 00 00 00 00 00 00    ................
    0x80e300:   00 00 00 00 00 00 00 00 00 00 00 00 00 00 00 00    ................
    0x80e310:   00 00 00 00 00 00 00 00 00 00 00 00 00 00 00 00    ................
    0x80e320:   00 00 00 00 00 00 00 00 00 00 00 00 00 00 00 00    ................
    0x80e330:   00 00 00 00 00 00 00 00 00 00 00 00 00 00 00 00    ................
    0x80e340:   00 00 00 00 00 00 00 00 00 00 00 00 00 00 00 00    ................
    0x80e350:   00 00 00 00 00 00 00 00 00 00 00 00 00 00 00 00    ................
    0x80e360:   00 00 00 00 00 00 00 00 00 00 00 00 00 00 00 00    ................
    0x80e370:   00 00 00 00 00 00 00 00 00 00 00 00 00 00 00 00    ................
    0x80e380:   00 00 00 00 00 00 00 00 00 00 00 00 00 00 00 00    ................
    0x80e390:   00 00 00 00 00 00 00 00 00 00 00 00 00 00 00 00    ................
    0x80e3a0:   00 00 00 00 00 00 00 00 00 00 00 00 00 00 00 00    ................
    0x80e3b0:   00 00 00 00 00 00 00 00 00 00 00 00 00 00 00 00    ................
    0x80e3c0:   00 00 00 00 00 00 00 00 00 00 00 00 00 00 00 00    ................
    0x80e3d0:   00 00 00 00 00 00 00 00 00 00 00 00 00 00 00 00    ................
    0x80e3e0:   00 00 00 00 00 00 00 00 00 00 00 00 00 00 00 00    ................
    0x80e3f0:   ff ff ff ff ff ff ff ff ff ff ff ff ff ff ff ff    ................


** Section #2 'FLASH_START_ADDR' (SHT_PROGBITS) [SHF_ALLOC + SHF_EXECINSTR]
    Size   : 8 bytes (alignment 4)
    Address: 0x0080e400

    $t
    RESET
    $v0
    Reset_Handler
;;; ..\\..\\..\\src\\mcu\\rtl876x\\arm\\startup_rtl8762c.s
;;;96                     IMPORT SystemInit
;;;96                     LDR    R0, =SystemInit
        0x0080e400:    4800        .H      LDR      r0,[pc,#0] ; [0x80e404] = 0x80e50b
;;;97                     BX     R0
        0x0080e402:    4700        .G      BX       r0
    $d
        0x0080e404:    0080e50b    ....    DCD    8447243

** Section #3 'FLASH_TEXT' (SHT_PROGBITS) [SHF_ALLOC + SHF_EXECINSTR]
    Size   : 584 bytes (alignment 4)
    Address: 0x0080e408

    $t
    !!!main
    __main
        0x0080e408:    f000f802    ....    BL       __scatterload ; 0x80e410
        0x0080e40c:    f5f9f3fc    ....    BL       __rt_entry ; 0x207c08
    !!!scatter
    __scatterload
    __scatterload_rt2
    __scatterload_rt2_thumb_only
        0x0080e410:    a00a        ..      ADR      r0,{pc}+0x2c ; 0x80e43c
        0x0080e412:    e8900c00    ....    LDM      r0,{r10,r11}
        0x0080e416:    4482        .D      ADD      r10,r10,r0
        0x0080e418:    4483        .D      ADD      r11,r11,r0
        0x0080e41a:    f1aa0701    ....    SUB      r7,r10,#1
    __scatterload_null
        0x0080e41e:    45da        .E      CMP      r10,r11
        0x0080e420:    d101        ..      BNE      0x80e426 ; __scatterload_null + 8
        0x0080e422:    f5f9f3f1    ....    BL       __rt_entry ; 0x207c08
        0x0080e426:    f2af0e09    ....    ADR      lr,{pc}-7 ; 0x80e41f
        0x0080e42a:    e8ba000f    ....    LDM      r10!,{r0-r3}
        0x0080e42e:    f0130f01    ....    TST      r3,#1
        0x0080e432:    bf18        ..      IT       NE
        0x0080e434:    1afb        ..      SUBNE    r3,r7,r3
        0x0080e436:    f0430301    C...    ORR      r3,r3,#1
        0x0080e43a:    4718        .G      BX       r3
    $d
        0x0080e43c:    000001d4    ....    DCD    468
        0x0080e440:    00000214    ....    DCD    532
    $t
    !!handler_copy
    __scatterload_copy
        0x0080e444:    3a10        .:      SUBS     r2,r2,#0x10
        0x0080e446:    bf24        $.      ITT      CS
        0x0080e448:    c878        x.      LDMCS    r0!,{r3-r6}
        0x0080e44a:    c178        x.      STMCS    r1!,{r3-r6}
        0x0080e44c:    d8fa        ..      BHI      __scatterload_copy ; 0x80e444
        0x0080e44e:    0752        R.      LSLS     r2,r2,#29
        0x0080e450:    bf24        $.      ITT      CS
        0x0080e452:    c830        0.      LDMCS    r0!,{r4,r5}
        0x0080e454:    c130        0.      STMCS    r1!,{r4,r5}
        0x0080e456:    bf44        D.      ITT      MI
        0x0080e458:    6804        .h      LDRMI    r4,[r0,#0]
        0x0080e45a:    600c        .`      STRMI    r4,[r1,#0]
        0x0080e45c:    4770        pG      BX       lr
        0x0080e45e:    0000        ..      MOVS     r0,r0
    !!handler_zi
    __scatterload_zeroinit
        0x0080e460:    2300        .#      MOVS     r3,#0
        0x0080e462:    2400        .$      MOVS     r4,#0
        0x0080e464:    2500        .%      MOVS     r5,#0
        0x0080e466:    2600        .&      MOVS     r6,#0
        0x0080e468:    3a10        .:      SUBS     r2,r2,#0x10
        0x0080e46a:    bf28        (.      IT       CS
        0x0080e46c:    c178        x.      STMCS    r1!,{r3-r6}
        0x0080e46e:    d8fb        ..      BHI      0x80e468 ; __scatterload_zeroinit + 8
        0x0080e470:    0752        R.      LSLS     r2,r2,#29
        0x0080e472:    bf28        (.      IT       CS
        0x0080e474:    c130        0.      STMCS    r1!,{r4,r5}
        0x0080e476:    bf48        H.      IT       MI
        0x0080e478:    600b        .`      STRMI    r3,[r1,#0]
        0x0080e47a:    4770        pG      BX       lr
    .app.flash.text
    debug_monitor_enable
;;;1734           SCB->SHP[((uint32_t)(IRQn) & 0xF) - 4] = ((priority << (8 - __NVIC_PRIO_BITS)) & 0xff);
        0x0080e47c:    4945        EI      LDR      r1,[pc,#276] ; [0x80e594] = 0xe000e00c
        0x0080e47e:    2060        `       MOVS     r0,#0x60
        0x0080e480:    f8810d14    ....    STRB     r0,[r1,#0xd14]
;;; .\..\..\..\src\mcu\rtl876x\system_rtl8762c.c
;;;298        CoreDebug->DEMCR |= CoreDebug_DEMCR_MON_EN_Msk | CoreDebug_DEMCR_TRCENA_Msk;
        0x0080e484:    4844        DH      LDR      r0,[pc,#272] ; [0x80e598] = 0xe000edfc
        0x0080e486:    6801        .h      LDR      r1,[r0,#0]
        0x0080e488:    4a44        DJ      LDR      r2,[pc,#272] ; [0x80e59c] = 0x1010000
        0x0080e48a:    4311        .C      ORRS     r1,r1,r2
        0x0080e48c:    6001        .`      STR      r1,[r0,#0]
;;;299    
;;;300        //set DWT compare registers (max 4 comparators)
;;;301        //watch_point_0_setting(0x1000180C, DWT_DATAVSIZE_WORD, DWT_FUNCTION_WRITE);
;;;302        //watch_point_1_setting(0x10000004, DWT_DATAVSIZE_WORD, DWT_FUNCTION_READ_OR_WRITE);
;;;303        //watch_point_2_setting(0x10000008, DWT_DATAVSIZE_WORD, DWT_FUNCTION_READ_OR_WRITE);
;;;304        //watch_point_3_setting(0x1000000C, DWT_DATAVSIZE_WORD, DWT_FUNCTION_READ_OR_WRITE);
;;;305    
;;;306        //enable DWT control register
;;;307        DWT->CTRL |= DWT_CTRL_CYCCNTENA_Msk;
        0x0080e48e:    4844        DH      LDR      r0,[pc,#272] ; [0x80e5a0] = 0xe0001000
        0x0080e490:    6801        .h      LDR      r1,[r0,#0]
        0x0080e492:    f0410101    A...    ORR      r1,r1,#1
        0x0080e496:    6001        .`      STR      r1,[r0,#0]
;;;308    
;;;309        return;
;;;310    }
        0x0080e498:    4770        pG      BX       lr
    ram_init
;;;311    
;;;312    APP_FLASH_TEXT_SECTION
;;;313    void ram_init(void)
;;;314    {
        0x0080e49a:    b510        ..      PUSH     {r4,lr}
;;;315        //copy data on ro
;;;316        extern char Image$$RAM_DATA_ON$$RO$$Base[];
;;;317        extern char Load$$RAM_DATA_ON$$RO$$Base[];
;;;318        extern unsigned int Image$$RAM_DATA_ON$$RO$$Length;
;;;319    
;;;320        memcpy(Image$$RAM_DATA_ON$$RO$$Base,
        0x0080e49c:    4a41        AJ      LDR      r2,[pc,#260] ; [0x80e5a4] = 0x3e2c
        0x0080e49e:    4942        BI      LDR      r1,[pc,#264] ; [0x80e5a8] = 0x80e744
        0x0080e4a0:    4842        BH      LDR      r0,[pc,#264] ; [0x80e5ac] = 0x207c00
        0x0080e4a2:    f44bf4fa    K...    BL       __aeabi_memcpy ; 0x59e9a
;;;321               Load$$RAM_DATA_ON$$RO$$Base,
;;;322               (unsigned int)&Image$$RAM_DATA_ON$$RO$$Length);
;;;323    
;;;324        //copy data on rw
;;;325        extern char Image$$RAM_DATA_ON$$RW$$Base[];
;;;326        extern char Load$$RAM_DATA_ON$$RW$$Base[];
;;;327        extern unsigned int Image$$RAM_DATA_ON$$RW$$Length;
;;;328    
;;;329        memcpy(Image$$RAM_DATA_ON$$RW$$Base,
        0x0080e4a6:    4a42        BJ      LDR      r2,[pc,#264] ; [0x80e5b0] = 0xa0
        0x0080e4a8:    4942        BI      LDR      r1,[pc,#264] ; [0x80e5b4] = 0x812570
        0x0080e4aa:    4843        CH      LDR      r0,[pc,#268] ; [0x80e5b8] = 0x20ba2c
        0x0080e4ac:    f44bf4f5    K...    BL       __aeabi_memcpy ; 0x59e9a
;;;330               Load$$RAM_DATA_ON$$RW$$Base,
;;;331               (unsigned int)&Image$$RAM_DATA_ON$$RW$$Length);
;;;332    
;;;333        //clear data on zi
;;;334        extern char Image$$RAM_DATA_ON$$ZI$$Base[];
;;;335        extern unsigned int Image$$RAM_DATA_ON$$ZI$$Length;
;;;336    
;;;337        memset(Image$$RAM_DATA_ON$$ZI$$Base,
        0x0080e4b0:    4942        BI      LDR      r1,[pc,#264] ; [0x80e5bc] = 0x218
        0x0080e4b2:    4843        CH      LDR      r0,[pc,#268] ; [0x80e5c0] = 0x20bacc
        0x0080e4b4:    f44bf5b2    K...    BL       __aeabi_memclr ; 0x5a01c
;;;338               0,
;;;339               (unsigned int)&Image$$RAM_DATA_ON$$ZI$$Length);
;;;340    
;;;341        //copy cache ro
;;;342        extern char Image$$CACHE_DATA_ON$$RO$$Base[];
;;;343        extern char Load$$CACHE_DATA_ON$$RO$$Base[];
;;;344        extern unsigned int Image$$CACHE_DATA_ON$$RO$$Length;
;;;345    
;;;346        memcpy(Image$$CACHE_DATA_ON$$RO$$Base,
        0x0080e4b8:    e8bd4010    ...@    POP      {r4,lr}
        0x0080e4bc:    4a41        AJ      LDR      r2,[pc,#260] ; [0x80e5c4] = 0
        0x0080e4be:    4942        BI      LDR      r1,[pc,#264] ; [0x80e5c8] = 0x8126d0
        0x0080e4c0:    4842        BH      LDR      r0,[pc,#264] ; [0x80e5cc] = 0x21c000
        0x0080e4c2:    f44bb4ea    K...    B        __aeabi_memcpy ; 0x59e9a
    pre_main
;;;347               Load$$CACHE_DATA_ON$$RO$$Base,
;;;348               (unsigned int)&Image$$CACHE_DATA_ON$$RO$$Length);
;;;349    }
;;;350    
;;;351    APP_FLASH_TEXT_SECTION
;;;352    void SystemInit(void)
;;;353    {
;;;354        //init pre_main and main functions
;;;355        extern void pre_main(void);
;;;356        app_pre_main = (APP_MAIN_FUNC)pre_main;
;;;357        app_main = (APP_MAIN_FUNC)common_main;
;;;358    
;;;359        /******** update otp here**********/
;;;360        //ram config
;;;361        OTP->appDataSize = APP_GLOBAL_SIZE;
;;;362        OTP->heapDataONSize = HEAP_DATA_ON_SIZE;
;;;363        /* not share: SHARE_CACHE_RAM_0K; 8K: SHARE_CACHE_RAM_8K; 16K: SHARE_CACHE_RAM_16K */
;;;364    #if ((16 * 1024) == SHARE_CACHE_RAM_SIZE)
;;;365        OTP->share_cache_ram_reg = SHARE_CACHE_RAM_16K;
;;;366    #elif ((8 * 1024) == SHARE_CACHE_RAM_SIZE)
;;;367        OTP->share_cache_ram_reg = SHARE_CACHE_RAM_8K;
;;;368    #else
;;;369        OTP->share_cache_ram_reg = SHARE_CACHE_RAM_0K;
;;;370    #endif
;;;371    
;;;372    
;;;373        //flash config
;;;374        /*config enable flash block proect depending on flash layout and flash id*/
;;;375    #if (FLASH_BLOCK_PROTECT_ENABLE == 1)
;;;376        OTP->bp_enable = 1;
;;;377    #else
;;;378        OTP->bp_enable = 0;
;;;379    #endif
;;;380        OTP->delay_10us_after_toggle_cs = AFTER_TOGGLE_CS_DELAY;
;;;381    
;;;382    
;;;383        //os config
;;;384        /*config enable check task stack overflow*/
;;;385    #if (CHECK_STACK_OVERFLOW_ENABLE == 1)
;;;386        OTP->checkForStackOverflow = 1;
;;;387    #else
;;;388        OTP->checkForStackOverflow = 0;
;;;389    #endif
;;;390    
;;;391    
;;;392        //platform config
;;;393        /*config enable platform assert*/
;;;394    #if (PLATFORM_ASSERT_ENABLE == 1)
;;;395        OTP->enableASSERT = 1;
;;;396    #else
;;;397        OTP->enableASSERT = 0;
;;;398    #endif
;;;399    
;;;400        /*Print all log in log buffer before entering DLPS */
;;;401    #if (CHECK_LOG_BUFFER_BEFORE_DLPS_ENABLE == 1)
;;;402        OTP->printAllLogBeforeEnterDLPS = 1;
;;;403    #else
;;;404        OTP->printAllLogBeforeEnterDLPS = 0;
;;;405    #endif
;;;406    
;;;407        /*config enable log or not*/
;;;408    #if (CONFIG_LOG_FUNCTION_ENABLE == 1)
;;;409        OTP->logDisable = 0;
;;;410    #else
;;;411        OTP->logDisable = 1;
;;;412    #endif
;;;413    
;;;414        /*config enable swd pinmux*/
;;;415    #if (SWD_PINMUX_ENABLE == 1)
;;;416        OTP->SWD_ENABLE = 1;
;;;417    #else
;;;418        OTP->SWD_ENABLE = 0;
;;;419    #endif
;;;420    
;;;421        /*config enable watch dog in rom*/
;;;422    #if (ROM_WATCH_DOG_ENABLE == 1)
;;;423        OTP->wdgEnableInRom = 1;
;;;424    #else
;;;425        OTP->wdgEnableInRom = 0;
;;;426    #endif
;;;427    
;;;428        /*config watch dog mode in rom, defualt reset all*/
;;;429        OTP->wdgMode = ROM_WATCH_DOG_MODE;
;;;430    
;;;431    
;;;432        //app config
;;;433        OTP->ota_timeout_total = OTA_TIMEOUT_TOTAL;
;;;434        OTP->ota_timeout_wait4_conn = OTA_TIMEOUT_WAIT4_CONN;
;;;435        OTP->ota_timeout_wait4_image_transfer = OTA_TIMEOUT_WAIT4_IMAGE_TRANS;
;;;436        OTP->ota_timeout_ctittv = OTA_TIMEOUT_CTITTV;
;;;437    
;;;438        /*config bt stack parameters in rom*/
;;;439    #ifdef BT_STACK_CONFIG_ENABLE
;;;440        bt_stack_config_init();
;;;441    #endif
;;;442    
;;;443    //add more otp config here
;;;444    }
;;;445    
;;;446    APP_FLASH_TEXT_SECTION
;;;447    void pre_main(void)
;;;448    {
        0x0080e4c6:    b538        8.      PUSH     {r3-r5,lr}
;;;449        __disable_irq();
        0x0080e4c8:    b672        r.      CPSID    i
;;;450    
;;;451        ram_init();
        0x0080e4ca:    f7ffffe6    ....    BL       ram_init ; 0x80e49a
;;;452    
;;;453        load_overlay(OVERLAY_SCENARIO_BOOT_ONCE);
        0x0080e4ce:    2000        .       MOVS     r0,#0
        0x0080e4d0:    f5fcf332    ..2.    BL       load_overlay ; 0x20ab38
;;;454    
;;;455        setlocale(LC_ALL, "C");
        0x0080e4d4:    a13e        >.      ADR      r1,{pc}+0xfc ; 0x80e5d0
        0x0080e4d6:    201f        .       MOVS     r0,#0x1f
        0x0080e4d8:    f44bf48c    K...    BL       setlocale ; 0x59df4
;;;456    
;;;457        BOOT_PRINT_ERROR2("SDK Ver: %s, Build Time: %s",
        0x0080e4dc:    f04f5505    O..U    MOV      r5,#0x21400000
        0x0080e4e0:    a13c        <.      ADR      r1,{pc}+0xf4 ; 0x80e5d4
        0x0080e4e2:    4628        (F      MOV      r0,r5
        0x0080e4e4:    f7f9dcc1    ....    BL       trace_string ; 0x7e6a
        0x0080e4e8:    4604        .F      MOV      r4,r0
        0x0080e4ea:    a141        A.      ADR      r1,{pc}+0x106 ; 0x80e5f0
        0x0080e4ec:    4628        (F      MOV      r0,r5
        0x0080e4ee:    f7f9dcbc    ....    BL       trace_string ; 0x7e6a
        0x0080e4f2:    4603        .F      MOV      r3,r0
        0x0080e4f4:    2202        ."      MOVS     r2,#2
        0x0080e4f6:    4940        @I      LDR      r1,[pc,#256] ; [0x80e5f8] = 0x8800000
        0x0080e4f8:    4840        @H      LDR      r0,[pc,#256] ; [0x80e5fc] = 0x21100300
        0x0080e4fa:    9400        ..      STR      r4,[sp,#0]
        0x0080e4fc:    f7f9daaf    ....    BL       log_buffer ; 0x7a5e
;;;458                          TRACE_STRING(VERSION_BUILD_STR),
;;;459                          TRACE_STRING(BUILDING_TIME));
;;;460    
;;;461        AppUpdateVectorTable();
        0x0080e500:    f5fdf3f0    ....    BL       AppUpdateVectorTable ; 0x20bce4
;;;462    
;;;463        debug_monitor_enable();
        0x0080e504:    e8bd4038    ..8@    POP      {r3-r5,lr}
        0x0080e508:    e7b8        ..      B        debug_monitor_enable ; 0x80e47c
    SystemInit
;;; .\..\..\..\src\mcu\rtl876x\system_rtl8762c.c (356)
        0x0080e50a:    f2af0045    ..E.    ADR      r0,{pc}-0x43 ; 0x80e4c7
        0x0080e50e:    493c        <I      LDR      r1,[pc,#240] ; [0x80e600] = 0x200c38
;;;357        app_main = (APP_MAIN_FUNC)common_main;
        0x0080e510:    6008        .`      STR      r0,[r1,#0]
        0x0080e512:    493d        =I      LDR      r1,[pc,#244] ; [0x80e608] = 0x200c3c
        0x0080e514:    483b        ;H      LDR      r0,[pc,#236] ; [0x80e604] = 0x207ec9
;;;358    
;;;359        /******** update otp here**********/
;;;360        //ram config
;;;361        OTP->appDataSize = APP_GLOBAL_SIZE;
        0x0080e516:    6008        .`      STR      r0,[r1,#0]
        0x0080e518:    f44f1000    O...    MOV      r0,#0x200000
        0x0080e51c:    f44f410c    O..A    MOV      r1,#0x8c00
;;;362        OTP->heapDataONSize = HEAP_DATA_ON_SIZE;
        0x0080e520:    f8c01384    ....    STR      r1,[r0,#0x384]
        0x0080e524:    f44f41f0    O..A    MOV      r1,#0x7800
;;;363        /* not share: SHARE_CACHE_RAM_0K; 8K: SHARE_CACHE_RAM_8K; 16K: SHARE_CACHE_RAM_16K */
;;;364    #if ((16 * 1024) == SHARE_CACHE_RAM_SIZE)
;;;365        OTP->share_cache_ram_reg = SHARE_CACHE_RAM_16K;
        0x0080e528:    f8c01388    ....    STR      r1,[r0,#0x388]
        0x0080e52c:    4937        7I      LDR      r1,[pc,#220] ; [0x80e60c] = 0xa2aa0003
;;;366    #elif ((8 * 1024) == SHARE_CACHE_RAM_SIZE)
;;;367        OTP->share_cache_ram_reg = SHARE_CACHE_RAM_8K;
;;;368    #else
;;;369        OTP->share_cache_ram_reg = SHARE_CACHE_RAM_0K;
;;;370    #endif
;;;371    
;;;372    
;;;373        //flash config
;;;374        /*config enable flash block proect depending on flash layout and flash id*/
;;;375    #if (FLASH_BLOCK_PROTECT_ENABLE == 1)
;;;376        OTP->bp_enable = 1;
;;;377    #else
;;;378        OTP->bp_enable = 0;
        0x0080e52e:    f8c013cc    ....    STR      r1,[r0,#0x3cc]
        0x0080e532:    f890134d    ..M.    LDRB     r1,[r0,#0x34d]
        0x0080e536:    f0210108    !...    BIC      r1,r1,#8
        0x0080e53a:    f880134d    ..M.    STRB     r1,[r0,#0x34d]
;;;379    #endif
;;;380        OTP->delay_10us_after_toggle_cs = AFTER_TOGGLE_CS_DELAY;
        0x0080e53e:    2106        .!      MOVS     r1,#6
        0x0080e540:    f880134f    ..O.    STRB     r1,[r0,#0x34f]
;;;381    
;;;382    
;;;383        //os config
;;;384        /*config enable check task stack overflow*/
;;;385    #if (CHECK_STACK_OVERFLOW_ENABLE == 1)
;;;386        OTP->checkForStackOverflow = 1;
        0x0080e544:    f8901378    ..x.    LDRB     r1,[r0,#0x378]
;;;387    #else
;;;388        OTP->checkForStackOverflow = 0;
;;;389    #endif
;;;390    
;;;391    
;;;392        //platform config
;;;393        /*config enable platform assert*/
;;;394    #if (PLATFORM_ASSERT_ENABLE == 1)
;;;395        OTP->enableASSERT = 1;
;;;396    #else
;;;397        OTP->enableASSERT = 0;
;;;398    #endif
;;;399    
;;;400        /*Print all log in log buffer before entering DLPS */
;;;401    #if (CHECK_LOG_BUFFER_BEFORE_DLPS_ENABLE == 1)
;;;402        OTP->printAllLogBeforeEnterDLPS = 1;
        0x0080e548:    f0410126    A.&.    ORR      r1,r1,#0x26
        0x0080e54c:    f8801378    ..x.    STRB     r1,[r0,#0x378]
;;;403    #else
;;;404        OTP->printAllLogBeforeEnterDLPS = 0;
;;;405    #endif
;;;406    
;;;407        /*config enable log or not*/
;;;408    #if (CONFIG_LOG_FUNCTION_ENABLE == 1)
;;;409        OTP->logDisable = 0;
        0x0080e550:    f890139a    ....    LDRB     r1,[r0,#0x39a]
        0x0080e554:    f0210101    !...    BIC      r1,r1,#1
        0x0080e558:    f880139a    ....    STRB     r1,[r0,#0x39a]
;;;410    #else
;;;411        OTP->logDisable = 1;
;;;412    #endif
;;;413    
;;;414        /*config enable swd pinmux*/
;;;415    #if (SWD_PINMUX_ENABLE == 1)
;;;416        OTP->SWD_ENABLE = 1;
        0x0080e55c:    f8901334    ..4.    LDRB     r1,[r0,#0x334]
        0x0080e560:    f0410101    A...    ORR      r1,r1,#1
        0x0080e564:    f8801334    ..4.    STRB     r1,[r0,#0x334]
;;;417    #else
;;;418        OTP->SWD_ENABLE = 0;
;;;419    #endif
;;;420    
;;;421        /*config enable watch dog in rom*/
;;;422    #if (ROM_WATCH_DOG_ENABLE == 1)
;;;423        OTP->wdgEnableInRom = 1;
;;;424    #else
;;;425        OTP->wdgEnableInRom = 0;
        0x0080e568:    f890137a    ..z.    LDRB     r1,[r0,#0x37a]
        0x0080e56c:    f0210110    !...    BIC      r1,r1,#0x10
;;;426    #endif
;;;427    
;;;428        /*config watch dog mode in rom, defualt reset all*/
;;;429        OTP->wdgMode = ROM_WATCH_DOG_MODE;
        0x0080e570:    f04101c0    A...    ORR      r1,r1,#0xc0
        0x0080e574:    f880137a    ..z.    STRB     r1,[r0,#0x37a]
;;;430    
;;;431    
;;;432        //app config
;;;433        OTP->ota_timeout_total = OTA_TIMEOUT_TOTAL;
        0x0080e578:    21b4        .!      MOVS     r1,#0xb4
        0x0080e57a:    f8801320    .. .    STRB     r1,[r0,#0x320]
;;;434        OTP->ota_timeout_wait4_conn = OTA_TIMEOUT_WAIT4_CONN;
        0x0080e57e:    213c        <!      MOVS     r1,#0x3c
        0x0080e580:    f8801321    ..!.    STRB     r1,[r0,#0x321]
;;;435        OTP->ota_timeout_wait4_image_transfer = OTA_TIMEOUT_WAIT4_IMAGE_TRANS;
        0x0080e584:    2164        d!      MOVS     r1,#0x64
        0x0080e586:    f8801322    ..".    STRB     r1,[r0,#0x322]
;;;436        OTP->ota_timeout_ctittv = OTA_TIMEOUT_CTITTV;
        0x0080e58a:    21ff        .!      MOVS     r1,#0xff
        0x0080e58c:    f8801323    ..#.    STRB     r1,[r0,#0x323]
;;;437    
;;;438        /*config bt stack parameters in rom*/
;;;439    #ifdef BT_STACK_CONFIG_ENABLE
;;;440        bt_stack_config_init();
;;;441    #endif
;;;442    
;;;443    //add more otp config here
;;;444    }
        0x0080e590:    4770        pG      BX       lr
    $d
        0x0080e592:    0000        ..      DCW    0
        0x0080e594:    e000e00c    ....    DCD    3758153740
        0x0080e598:    e000edfc    ....    DCD    3758157308
        0x0080e59c:    01010000    ....    DCD    16842752
        0x0080e5a0:    e0001000    ....    DCD    3758100480
        0x0080e5a4:    00003e2c    ,>..    DCD    15916
        0x0080e5a8:    0080e744    D...    DCD    8447812
        0x0080e5ac:    00207c00    .| .    DCD    2128896
        0x0080e5b0:    000000a0    ....    DCD    160
        0x0080e5b4:    00812570    p%..    DCD    8463728
        0x0080e5b8:    0020ba2c    ,. .    DCD    2144812
        0x0080e5bc:    00000218    ....    DCD    536
        0x0080e5c0:    0020bacc    .. .    DCD    2144972
        0x0080e5c4:    00000000    ....    DCD    0
        0x0080e5c8:    008126d0    .&..    DCD    8464080
        0x0080e5cc:    0021c000    ..!.    DCD    2211840
        0x0080e5d0:    00000043    C...    DCD    67
        0x0080e5d4:    20697246    Fri     DCD    543781446
        0x0080e5d8:    20706553    Sep     DCD    544236883
        0x0080e5dc:    31203132    21 1    DCD    824193330
        0x0080e5e0:    31303a33    3:01    DCD    825244211
        0x0080e5e4:    2037313a    :17     DCD    540487994
        0x0080e5e8:    38313032    2018    DCD    942747698
        0x0080e5ec:    00000000    ....    DCD    0
        0x0080e5f0:    2e302e31    1.0.    DCD    774909489
        0x0080e5f4:    00302e32    2.0.    DCD    3157554
        0x0080e5f8:    08800000    ....    DCD    142606336
        0x0080e5fc:    21100300    ...!    DCD    554697472
        0x0080e600:    00200c38    8. .    DCD    2100280
        0x0080e604:    00207ec9    .~ .    DCD    2129609
        0x0080e608:    00200c3c    <. .    DCD    2100284
        0x0080e60c:    a2aa0003    ....    DCD    2729050115
    $d.realdata
    Region$$Table$$Base
        0x0080e610:    0080e650    P...    DCD    8447568
        0x0080e614:    00200000    .. .    DCD    2097152
        0x0080e618:    000000f4    ....    DCD    244
        0x0080e61c:    0080e444    D...    DCD    8447044
        0x0080e620:    0080e744    D...    DCD    8447812
        0x0080e624:    00207c00    .| .    DCD    2128896
        0x0080e628:    00003e2c    ,>..    DCD    15916
        0x0080e62c:    0080e444    D...    DCD    8447044
        0x0080e630:    00812570    p%..    DCD    8463728
        0x0080e634:    0020ba2c    ,. .    DCD    2144812
        0x0080e638:    000000a0    ....    DCD    160
        0x0080e63c:    0080e444    D...    DCD    8447044
        0x0080e640:    00812610    .&..    DCD    8463888
        0x0080e644:    0020bacc    .. .    DCD    2144972
        0x0080e648:    00000218    ....    DCD    536
        0x0080e64c:    0080e460    `...    DCD    8447072
    Region$$Table$$Limit

** Section #4 'RAM_VECTOR_TABLE' (SHT_PROGBITS) [SHF_ALLOC]
    Size   : 244 bytes (alignment 4)
    Address: 0x00200000

    0x200000:   00 38 20 00 01 e4 80 00 79 7e 20 00 79 7e 20 00    .8 .....y~ .y~ .
    0x200010:   79 7e 20 00 79 7e 20 00 79 7e 20 00 00 00 00 00    y~ .y~ .y~ .....
    0x200020:   00 00 00 00 00 00 00 00 00 00 00 00 79 7e 20 00    ............y~ .
    0x200030:   79 7e 20 00 00 00 00 00 79 7e 20 00 79 7e 20 00    y~ .....y~ .y~ .
    0x200040:   f3 91 20 00 79 7e 20 00 79 7e 20 00 79 7e 20 00    .. .y~ .y~ .y~ .
    0x200050:   79 7e 20 00 79 7e 20 00 79 7e 20 00 79 7e 20 00    y~ .y~ .y~ .y~ .
    0x200060:   79 7e 20 00 79 7e 20 00 79 7e 20 00 79 7e 20 00    y~ .y~ .y~ .y~ .
    0x200070:   79 7e 20 00 79 7e 20 00 79 7e 20 00 79 7e 20 00    y~ .y~ .y~ .y~ .
    0x200080:   79 7e 20 00 79 7e 20 00 79 7e 20 00 79 7e 20 00    y~ .y~ .y~ .y~ .
    0x200090:   79 7e 20 00 79 7e 20 00 79 7e 20 00 79 7e 20 00    y~ .y~ .y~ .y~ .
    0x2000a0:   79 7e 20 00 79 7e 20 00 1d 7c 20 00 69 7c 20 00    y~ .y~ ..| .i| .
    0x2000b0:   79 7e 20 00 b5 7c 20 00 f9 7c 20 00 79 7e 20 00    y~ ..| ..| .y~ .
    0x2000c0:   79 7e 20 00 79 7e 20 00 79 7e 20 00 79 7e 20 00    y~ .y~ .y~ .y~ .
    0x2000d0:   79 7e 20 00 79 7e 20 00 4d 9d 20 00 79 7e 20 00    y~ .y~ .M. .y~ .
    0x2000e0:   79 7e 20 00 79 7e 20 00 79 7e 20 00 79 7e 20 00    y~ .y~ .y~ .y~ .
    0x2000f0:   79 7e 20 00                                        y~ .

    __Vectors_End

** Section #5 'RAM_DATA_ON' (SHT_PROGBITS) [SHF_ALLOC + SHF_EXECINSTR]
    Size   : 15916 bytes (alignment 4)
    Address: 0x00207c00

    $t
    .ARM.Collect$$libinit$$00000000
    __rt_lib_init
        0x00207c00:    b51f        ..      PUSH     {r0-r4,lr}
    .ARM.Collect$$libinit$$00000001
    __rt_lib_init_fp_1
        0x00207c02:    f003f8dd    ....    BL       _fp_init ; 0x20adc0
    .ARM.Collect$$libinit$$00000004
    .ARM.Collect$$libinit$$0000000A
    .ARM.Collect$$libinit$$0000000C
    .ARM.Collect$$libinit$$0000000E
    .ARM.Collect$$libinit$$00000011
    .ARM.Collect$$libinit$$00000013
    .ARM.Collect$$libinit$$00000015
    .ARM.Collect$$libinit$$00000017
    .ARM.Collect$$libinit$$00000019
    .ARM.Collect$$libinit$$0000001B
    .ARM.Collect$$libinit$$0000001D
    .ARM.Collect$$libinit$$0000001F
    .ARM.Collect$$libinit$$00000021
    .ARM.Collect$$libinit$$00000023
    .ARM.Collect$$libinit$$00000025
    .ARM.Collect$$libinit$$0000002C
    .ARM.Collect$$libinit$$0000002E
    .ARM.Collect$$libinit$$00000030
    .ARM.Collect$$libinit$$00000032
    .ARM.Collect$$libinit$$00000033
    __rt_lib_init_alloca_1
    __rt_lib_init_argv_1
    __rt_lib_init_atexit_1
    __rt_lib_init_clock_1
    __rt_lib_init_cpp_1
    __rt_lib_init_exceptions_1
    __rt_lib_init_fp_trap_1
    __rt_lib_init_getenv_1
    __rt_lib_init_heap_1
    __rt_lib_init_lc_collate_1
    __rt_lib_init_lc_ctype_1
    __rt_lib_init_lc_monetary_1
    __rt_lib_init_lc_numeric_1
    __rt_lib_init_lc_time_1
    __rt_lib_init_preinit_1
    __rt_lib_init_rand_1
    __rt_lib_init_return
    __rt_lib_init_signal_1
    __rt_lib_init_stdio_1
    __rt_lib_init_user_alloc_1
        0x00207c06:    bd1f        ..      POP      {r0-r4,pc}
    .ARM.Collect$$rtentry$$00000000
    .ARM.Collect$$rtentry$$00000002
    .ARM.Collect$$rtentry$$00000004
    __rt_entry
    __rt_entry_presh_1
    __rt_entry_sh
        0x00207c08:    f000f93e    ..>.    BL       __user_setup_stackheap ; 0x207e88
        0x00207c0c:    4611        .F      MOV      r1,r2
    .ARM.Collect$$rtentry$$00000009
    .ARM.Collect$$rtentry$$0000000A
    __rt_entry_li
    __rt_entry_postsh_1
        0x00207c0e:    f7fffff7    ....    BL       __rt_lib_init ; 0x207c00
    .ARM.Collect$$rtentry$$0000000C
    .ARM.Collect$$rtentry$$0000000D
    __rt_entry_main
    __rt_entry_postli_1
        0x00207c12:    f001fb21    ..!.    BL       main ; 0x209258
        0x00207c16:    f653f905    S...    BL       exit ; 0x5ae24
        0x00207c1a:    0000        ..      MOVS     r0,r0
    .ram.dataon.data
    GPIO_Group3_Handler
;;;537        uint32_t GPIOIrqStatus = GPIO->INTSTATUS;
        0x00207c1c:    4847        GH      LDR      r0,[pc,#284] ; [0x207d3c] = 0x40001000
;;; .\..\..\..\src\mcu\rtl876x\system_rtl8762c.c (536)
        0x00207c1e:    b510        ..      PUSH     {r4,lr}
        0x00207c20:    6c04        .l      LDR      r4,[r0,#0x40]
        0x00207c22:    0720         .      LSLS     r0,r4,#28
        0x00207c24:    d501        ..      BPL      0x207c2a ; GPIO_Group3_Handler + 14
;;;537        uint32_t GPIOIrqStatus = GPIO->INTSTATUS;
;;;538    
;;;539        //Check exact IRQ function
;;;540        if (GPIOIrqStatus & BIT3)
;;;541        {
;;;542            GPIO3_Handler();
        0x00207c26:    f000f927    ..'.    BL       ADC_Handler ; 0x207e78
;;;543        }
;;;544        if (GPIOIrqStatus & BIT7)
        0x00207c2a:    0620         .      LSLS     r0,r4,#24
        0x00207c2c:    d501        ..      BPL      0x207c32 ; GPIO_Group3_Handler + 22
;;;545        {
;;;546            GPIO7_Handler();
        0x00207c2e:    f000f923    ..#.    BL       ADC_Handler ; 0x207e78
;;;547        }
;;;548        if (GPIOIrqStatus & BIT11)
        0x00207c32:    0520         .      LSLS     r0,r4,#20
        0x00207c34:    d501        ..      BPL      0x207c3a ; GPIO_Group3_Handler + 30
;;;549        {
;;;550            GPIO11_Handler();
        0x00207c36:    f000f91f    ....    BL       ADC_Handler ; 0x207e78
;;;551        }
;;;552        if (GPIOIrqStatus & BIT15)
        0x00207c3a:    0420         .      LSLS     r0,r4,#16
        0x00207c3c:    d501        ..      BPL      0x207c42 ; GPIO_Group3_Handler + 38
;;;553        {
;;;554            GPIO15_Handler();
        0x00207c3e:    f000f91b    ....    BL       ADC_Handler ; 0x207e78
;;;555        }
;;;556        if (GPIOIrqStatus & BIT19)
        0x00207c42:    0320         .      LSLS     r0,r4,#12
        0x00207c44:    d501        ..      BPL      0x207c4a ; GPIO_Group3_Handler + 46
;;;557        {
;;;558            GPIO19_Handler();
        0x00207c46:    f000f917    ....    BL       ADC_Handler ; 0x207e78
;;;559        }
;;;560        if (GPIOIrqStatus & BIT23)
        0x00207c4a:    0220         .      LSLS     r0,r4,#8
        0x00207c4c:    d501        ..      BPL      0x207c52 ; GPIO_Group3_Handler + 54
;;;561        {
;;;562            GPIO23_Handler();
        0x00207c4e:    f000f913    ....    BL       ADC_Handler ; 0x207e78
;;;563        }
;;;564        if (GPIOIrqStatus & BIT27)
        0x00207c52:    0120         .      LSLS     r0,r4,#4
        0x00207c54:    d501        ..      BPL      0x207c5a ; GPIO_Group3_Handler + 62
;;;565        {
;;;566            GPIO27_Handler();
        0x00207c56:    f000f90f    ....    BL       ADC_Handler ; 0x207e78
;;;567        }
;;;568        if (GPIOIrqStatus & BIT31)
        0x00207c5a:    2c00        .,      CMP      r4,#0
        0x00207c5c:    da03        ..      BGE      0x207c66 ; GPIO_Group3_Handler + 74
;;;569        {
;;;570            GPIO31_Handler();
        0x00207c5e:    e8bd4010    ...@    POP      {r4,lr}
        0x00207c62:    f000b909    ....    B.W      ADC_Handler ; 0x207e78
;;;571        }
;;;572    }
        0x00207c66:    bd10        ..      POP      {r4,pc}
    GPIO_Group2_Handler
;;;573    /**
;;;574     * @brief  GPIO Group2 Handler
;;;575     * @param  none
;;;576     * @return none
;;;577      */
;;;578    DATA_RAM_FUNCTION void GPIO_Group2_Handler(void)
;;;579    {
;;;580        uint32_t GPIOIrqStatus = GPIO->INTSTATUS;
        0x00207c68:    4834        4H      LDR      r0,[pc,#208] ; [0x207d3c] = 0x40001000
;;; .\..\..\..\src\mcu\rtl876x\system_rtl8762c.c (579)
        0x00207c6a:    b510        ..      PUSH     {r4,lr}
        0x00207c6c:    6c04        .l      LDR      r4,[r0,#0x40]
        0x00207c6e:    0760        `.      LSLS     r0,r4,#29
        0x00207c70:    d501        ..      BPL      0x207c76 ; GPIO_Group2_Handler + 14
;;;580        uint32_t GPIOIrqStatus = GPIO->INTSTATUS;
;;;581    
;;;582        //Check exact IRQ function
;;;583        if (GPIOIrqStatus & BIT2)
;;;584        {
;;;585            GPIO2_Handler();
        0x00207c72:    f000f901    ....    BL       ADC_Handler ; 0x207e78
;;;586        }
;;;587        if (GPIOIrqStatus & BIT6)
        0x00207c76:    0660        `.      LSLS     r0,r4,#25
        0x00207c78:    d501        ..      BPL      0x207c7e ; GPIO_Group2_Handler + 22
;;;588        {
;;;589            GPIO6_Handler();
        0x00207c7a:    f000f8fd    ....    BL       ADC_Handler ; 0x207e78
;;;590        }
;;;591        if (GPIOIrqStatus & BIT10)
        0x00207c7e:    0560        `.      LSLS     r0,r4,#21
        0x00207c80:    d501        ..      BPL      0x207c86 ; GPIO_Group2_Handler + 30
;;;592        {
;;;593            GPIO10_Handler();
        0x00207c82:    f000f8f9    ....    BL       ADC_Handler ; 0x207e78
;;;594        }
;;;595        if (GPIOIrqStatus & BIT14)
        0x00207c86:    0460        `.      LSLS     r0,r4,#17
        0x00207c88:    d501        ..      BPL      0x207c8e ; GPIO_Group2_Handler + 38
;;;596        {
;;;597            GPIO14_Handler();
        0x00207c8a:    f000f8f5    ....    BL       ADC_Handler ; 0x207e78
;;;598        }
;;;599        if (GPIOIrqStatus & BIT18)
        0x00207c8e:    0360        `.      LSLS     r0,r4,#13
        0x00207c90:    d501        ..      BPL      0x207c96 ; GPIO_Group2_Handler + 46
;;;600        {
;;;601            GPIO18_Handler();
        0x00207c92:    f000f8f1    ....    BL       ADC_Handler ; 0x207e78
;;;602        }
;;;603        if (GPIOIrqStatus & BIT22)
        0x00207c96:    0260        `.      LSLS     r0,r4,#9
        0x00207c98:    d501        ..      BPL      0x207c9e ; GPIO_Group2_Handler + 54
;;;604        {
;;;605            GPIO22_Handler();
        0x00207c9a:    f000f8ed    ....    BL       ADC_Handler ; 0x207e78
;;;606        }
;;;607        if (GPIOIrqStatus & BIT26)
        0x00207c9e:    0160        `.      LSLS     r0,r4,#5
        0x00207ca0:    d501        ..      BPL      0x207ca6 ; GPIO_Group2_Handler + 62
;;;608        {
;;;609            GPIO26_Handler();
        0x00207ca2:    f000f8e9    ....    BL       ADC_Handler ; 0x207e78
;;;610        }
;;;611        if (GPIOIrqStatus & BIT30)
        0x00207ca6:    0060        `.      LSLS     r0,r4,#1
        0x00207ca8:    d503        ..      BPL      0x207cb2 ; GPIO_Group2_Handler + 74
;;;612        {
;;;613            GPIO30_Handler();
        0x00207caa:    e8bd4010    ...@    POP      {r4,lr}
        0x00207cae:    f000b8e3    ....    B.W      ADC_Handler ; 0x207e78
;;;614        }
;;;615    }
        0x00207cb2:    bd10        ..      POP      {r4,pc}
    GPIO_Group1_Handler
;;;616    /**
;;;617     * @brief  GPIO Group1 Handler
;;;618     * @param  none
;;;619     * @return none
;;;620      */
;;;621    DATA_RAM_FUNCTION void GPIO_Group1_Handler(void)
;;;622    {
;;;623        uint32_t GPIOIrqStatus = GPIO->INTSTATUS;
        0x00207cb4:    4821        !H      LDR      r0,[pc,#132] ; [0x207d3c] = 0x40001000
;;; .\..\..\..\src\mcu\rtl876x\system_rtl8762c.c (622)
        0x00207cb6:    b510        ..      PUSH     {r4,lr}
        0x00207cb8:    6c04        .l      LDR      r4,[r0,#0x40]
        0x00207cba:    07a0        ..      LSLS     r0,r4,#30
        0x00207cbc:    d501        ..      BPL      0x207cc2 ; GPIO_Group1_Handler + 14
;;;623        uint32_t GPIOIrqStatus = GPIO->INTSTATUS;
;;;624    
;;;625        //Check exact IRQ function
;;;626        if (GPIOIrqStatus & BIT1)
;;;627        {
;;;628            GPIO1_Handler();
        0x00207cbe:    f000f8db    ....    BL       ADC_Handler ; 0x207e78
;;;629        }
;;;630        if (GPIOIrqStatus & BIT9)
        0x00207cc2:    05a0        ..      LSLS     r0,r4,#22
        0x00207cc4:    d501        ..      BPL      0x207cca ; GPIO_Group1_Handler + 22
;;;631        {
;;;632            GPIO9_Handler();
        0x00207cc6:    f000f8d7    ....    BL       ADC_Handler ; 0x207e78
;;;633        }
;;;634        if (GPIOIrqStatus & BIT13)
        0x00207cca:    04a0        ..      LSLS     r0,r4,#18
        0x00207ccc:    d501        ..      BPL      0x207cd2 ; GPIO_Group1_Handler + 30
;;;635        {
;;;636            GPIO13_Handler();
        0x00207cce:    f000f8d3    ....    BL       ADC_Handler ; 0x207e78
;;;637        }
;;;638        if (GPIOIrqStatus & BIT17)
        0x00207cd2:    03a0        ..      LSLS     r0,r4,#14
        0x00207cd4:    d501        ..      BPL      0x207cda ; GPIO_Group1_Handler + 38
;;;639        {
;;;640            GPIO17_Handler();
        0x00207cd6:    f000f8cf    ....    BL       ADC_Handler ; 0x207e78
;;;641        }
;;;642        if (GPIOIrqStatus & BIT21)
        0x00207cda:    02a0        ..      LSLS     r0,r4,#10
        0x00207cdc:    d501        ..      BPL      0x207ce2 ; GPIO_Group1_Handler + 46
;;;643        {
;;;644            GPIO21_Handler();
        0x00207cde:    f000f8cb    ....    BL       ADC_Handler ; 0x207e78
;;;645        }
;;;646        if (GPIOIrqStatus & BIT25)
        0x00207ce2:    01a0        ..      LSLS     r0,r4,#6
        0x00207ce4:    d501        ..      BPL      0x207cea ; GPIO_Group1_Handler + 54
;;;647        {
;;;648            GPIO25_Handler();
        0x00207ce6:    f000f8c7    ....    BL       ADC_Handler ; 0x207e78
;;;649        }
;;;650        if (GPIOIrqStatus & BIT29)
        0x00207cea:    00a0        ..      LSLS     r0,r4,#2
        0x00207cec:    d503        ..      BPL      0x207cf6 ; GPIO_Group1_Handler + 66
;;;651        {
;;;652            GPIO29_Handler();
        0x00207cee:    e8bd4010    ...@    POP      {r4,lr}
        0x00207cf2:    f000b8c1    ....    B.W      ADC_Handler ; 0x207e78
;;;653        }
;;;654    }
        0x00207cf6:    bd10        ..      POP      {r4,pc}
    GPIO_Group0_Handler
;;;655    /**
;;;656     * @brief  GPIO Group0 Handler
;;;657     * @param  none
;;;658     * @return none
;;;659      */
;;;660    DATA_RAM_FUNCTION void GPIO_Group0_Handler(void)
;;;661    {
;;;662        uint32_t GPIOIrqStatus = GPIO->INTSTATUS;
        0x00207cf8:    4810        .H      LDR      r0,[pc,#64] ; [0x207d3c] = 0x40001000
;;; .\..\..\..\src\mcu\rtl876x\system_rtl8762c.c (661)
        0x00207cfa:    b510        ..      PUSH     {r4,lr}
        0x00207cfc:    6c04        .l      LDR      r4,[r0,#0x40]
        0x00207cfe:    07e0        ..      LSLS     r0,r4,#31
        0x00207d00:    d001        ..      BEQ      0x207d06 ; GPIO_Group0_Handler + 14
;;;662        uint32_t GPIOIrqStatus = GPIO->INTSTATUS;
;;;663    
;;;664        //Check exact IRQ function
;;;665        if (GPIOIrqStatus & BIT0)
;;;666        {
;;;667            GPIO0_Handler();
        0x00207d02:    f000f8b9    ....    BL       ADC_Handler ; 0x207e78
;;;668        }
;;;669        if (GPIOIrqStatus & BIT8)
        0x00207d06:    05e0        ..      LSLS     r0,r4,#23
        0x00207d08:    d501        ..      BPL      0x207d0e ; GPIO_Group0_Handler + 22
;;;670        {
;;;671            GPIO8_Handler();
        0x00207d0a:    f000f8b5    ....    BL       ADC_Handler ; 0x207e78
;;;672        }
;;;673        if (GPIOIrqStatus & BIT12)
        0x00207d0e:    04e0        ..      LSLS     r0,r4,#19
        0x00207d10:    d501        ..      BPL      0x207d16 ; GPIO_Group0_Handler + 30
;;;674        {
;;;675            GPIO12_Handler();
        0x00207d12:    f000f8b1    ....    BL       ADC_Handler ; 0x207e78
;;;676        }
;;;677        if (GPIOIrqStatus & BIT16)
        0x00207d16:    03e0        ..      LSLS     r0,r4,#15
        0x00207d18:    d501        ..      BPL      0x207d1e ; GPIO_Group0_Handler + 38
;;;678        {
;;;679            GPIO16_Handler();
        0x00207d1a:    f000f8ad    ....    BL       ADC_Handler ; 0x207e78
;;;680        }
;;;681        if (GPIOIrqStatus & BIT20)
        0x00207d1e:    02e0        ..      LSLS     r0,r4,#11
        0x00207d20:    d501        ..      BPL      0x207d26 ; GPIO_Group0_Handler + 46
;;;682        {
;;;683            GPIO20_Handler();
        0x00207d22:    f002fb83    ....    BL       GPIO20_Handler ; 0x20a42c
;;;684        }
;;;685        if (GPIOIrqStatus & BIT24)
        0x00207d26:    01e0        ..      LSLS     r0,r4,#7
        0x00207d28:    d501        ..      BPL      0x207d2e ; GPIO_Group0_Handler + 54
;;;686        {
;;;687            GPIO24_Handler();
        0x00207d2a:    f000f8a5    ....    BL       ADC_Handler ; 0x207e78
;;;688        }
;;;689        if (GPIOIrqStatus & BIT28)
        0x00207d2e:    00e0        ..      LSLS     r0,r4,#3
        0x00207d30:    d503        ..      BPL      0x207d3a ; GPIO_Group0_Handler + 66
;;;690        {
;;;691            GPIO28_Handler();
        0x00207d32:    e8bd4010    ...@    POP      {r4,lr}
        0x00207d36:    f000b89f    ....    B.W      ADC_Handler ; 0x207e78
;;;692        }
;;;693    }
        0x00207d3a:    bd10        ..      POP      {r4,pc}
    $d
        0x00207d3c:    40001000    ...@    DCD    1073745920
    $t
    .ram.dataon.data
    DLPS_IO_ExitDlpsCb
;;; .\..\..\..\src\mcu\peripheral\rtl876x_io_dlps.c
;;;1957   {
        0x00207d40:    b530        0.      PUSH     {r4,r5,lr}
        0x00207d42:    4947        GI      LDR      r1,[pc,#284] ; [0x207e60] = 0x20bc28
        0x00207d44:    b085        ..      SUB      sp,sp,#0x14
;;; .\..\..\..\src\mcu\peripheral\rtl876x_io_dlps.c (127)
        0x00207d46:    2000        .       MOVS     r0,#0
        0x00207d48:    0082        ..      LSLS     r2,r0,#2
        0x00207d4a:    f1024280    ...B    ADD      r2,r2,#0x40000000
        0x00207d4e:    f8513020    Q. 0    LDR      r3,[r1,r0,LSL #2]
        0x00207d52:    f8c23280    ...2    STR      r3,[r2,#0x280]
        0x00207d56:    1c40        @.      ADDS     r0,r0,#1
        0x00207d58:    b2c0        ..      UXTB     r0,r0
        0x00207d5a:    280a        .(      CMP      r0,#0xa
        0x00207d5c:    d3f4        ..      BCC      0x207d48 ; DLPS_IO_ExitDlpsCb + 8
;;;128        {
;;;129            PINMUX->CFG[i] = Pinmux_StoreReg[i];
;;;130        }
;;;131    
;;;132        return;
;;;133    }
;;;134    #endif
;;;135    
;;;136    /********************************************** ********************************************************/
;;;137    /**************************************** [GPIO DLPS] **************************************************/
;;;138    /*******************************************************************************************************/
;;;139    /*******************************************************************************************************/
;;;140    #if USE_GPIO_DLPS
;;;141    
;;;142    __STATIC_INLINE void GPIO_DLPS_Enter(void);
;;;143    __STATIC_INLINE void GPIO_DLPS_Exit(void);
;;;144    
;;;145    uint32_t GPIO_StoreReg[9];         /*  This array should be placed in RAM ON/Buffer ON.    */
;;;146    
;;;147    /**
;;;148      * @brief  GPIO enter dlps callback function(Save GPIO register values when system enter DLPS)
;;;149      * @param  None
;;;150      * @retval None
;;;151      */
;;;152    __STATIC_INLINE void GPIO_DLPS_Enter(void)
;;;153    {
;;;154        PERIPH->PERI_FUNC1_EN |= BIT_PERI_GPIO_EN;
;;;155        PERIPH->PERI_CLK_CTRL |= (BIT_SOC_ACTCK_GPIO_EN | SYSBLK_SLPCK_GPIO_EN_Msk);
;;;156    
;;;157        GPIO_StoreReg[0] = GPIO->DATAOUT;
;;;158        GPIO_StoreReg[1] = GPIO->DATADIR;
;;;159        GPIO_StoreReg[2] = GPIO->DATASRC;
;;;160        GPIO_StoreReg[3] = GPIO->INTEN;
;;;161        GPIO_StoreReg[4] = GPIO->INTMASK;
;;;162        GPIO_StoreReg[5] = GPIO->INTTYPE;
;;;163        GPIO_StoreReg[6] = GPIO->INTPOLARITY;
;;;164        GPIO_StoreReg[7] = GPIO->DEBOUNCE;
;;;165        GPIO_StoreReg[8] = *(__IO uint32_t *)(0x40000344UL);
;;;166    
;;;167        return;
;;;168    }
;;;169    
;;;170    /**
;;;171      * @brief  GPIO exit dlps callback function(Resume GPIO register values when system exit DLPS)
;;;172      * @param  None
;;;173      * @retval None
;;;174      */
;;;175    DATA_RAM_FUNCTION __STATIC_INLINE void GPIO_DLPS_Exit(void)
;;;176    {
;;;177        PERIPH->PERI_FUNC1_EN |= BIT_PERI_GPIO_EN;
;;;178        PERIPH->PERI_CLK_CTRL |= (BIT_SOC_ACTCK_GPIO_EN | SYSBLK_SLPCK_GPIO_EN_Msk);
;;;179    
;;;180        GPIO->DATADIR       = GPIO_StoreReg[1];
;;;181        GPIO->DATASRC       = GPIO_StoreReg[2];
;;;182        GPIO->INTMASK       = GPIO_StoreReg[4];
;;;183        GPIO->INTTYPE       = GPIO_StoreReg[5];
;;;184        GPIO->INTPOLARITY   = GPIO_StoreReg[6];
;;;185        GPIO->DEBOUNCE      = GPIO_StoreReg[7];
;;;186        GPIO->DATAOUT       = GPIO_StoreReg[0];
;;;187        GPIO->INTCLR        = ~(GPIO_StoreReg[1]);
;;;188        GPIO->INTEN         = GPIO_StoreReg[3];
;;;189        *(__IO uint32_t *)(0x40000344UL) = GPIO_StoreReg[8];
;;;190    
;;;191        return;
;;;192    }
;;;193    #endif  /* USE_GPIO_DLPS */
;;;194    
;;;195    
;;;196    /********************************************** ********************************************************/
;;;197    /**************************************** [KEYSCAN DLPS] ***********************************************/
;;;198    /*******************************************************************************************************/
;;;199    /*******************************************************************************************************/
;;;200    #if USE_KEYSCAN_DLPS
;;;201    __STATIC_INLINE void KeyScan_DLPS_Enter(void);
;;;202    __STATIC_INLINE void KeyScan_DLPS_Exit(void);
;;;203    
;;;204    uint32_t KeyScan_StoreReg[7];      /*  This array should be placed in RAM ON/Buffer ON.    */
;;;205    
;;;206    /**
;;;207      * @brief  KEYSCAN enter dlps callback function(Save KEYSCAN register values when system enter DLPS)
;;;208      * @param  None
;;;209      * @retval None
;;;210      */
;;;211    __STATIC_INLINE void KeyScan_DLPS_Enter(void)
;;;212    {
;;;213        /*Open 5M clock source*/
;;;214        SYSBLKCTRL->u_20C.RSVD_20C |= BIT26;
;;;215        SYSBLKCTRL->u_20C.RSVD_20C |= BIT29;
;;;216    
;;;217        PERIPH->PERI_FUNC0_EN |= BIT_PERI_KEYSCAN_EN;
;;;218        PERIPH->PERI_CLK_CTRL1 |= (BIT_SOC_ACTCK_KEYSCAN_EN | SYSBLK_SLPCK_KEYSCAN_EN_Msk);
;;;219    
;;;220        KeyScan_StoreReg[0] = KEYSCAN->CLKDIV;               /* 0x00 */
;;;221        KeyScan_StoreReg[1] = KEYSCAN->TIMERCR;              /* 0x04 */
;;;222        KeyScan_StoreReg[2] = KEYSCAN->CR;                   /* 0x08 */
;;;223        KeyScan_StoreReg[3] = KEYSCAN->COLCR;                /* 0x0C */
;;;224        KeyScan_StoreReg[4] = KEYSCAN->ROWCR;                /* 0x10 */
;;;225        KeyScan_StoreReg[6] = KEYSCAN->INTMASK;              /* 0x18 */
;;;226    
;;;227        return;
;;;228    }
;;;229    
;;;230    /**
;;;231      * @brief  KEYSCAN exit dlps callback function(Resume KEYSCAN register values when system exit DLPS)
;;;232      * @param  None
;;;233      * @retval None
;;;234      */
;;;235    DATA_RAM_FUNCTION __STATIC_INLINE void KeyScan_DLPS_Exit(void)
;;;236    {
;;;237        /*Open 5M clock source*/
;;;238        SYSBLKCTRL->u_20C.RSVD_20C |= BIT26;
;;;239        SYSBLKCTRL->u_20C.RSVD_20C |= BIT29;
;;;240    
;;;241        PERIPH->PERI_FUNC0_EN |= BIT_PERI_KEYSCAN_EN;
;;;242        PERIPH->PERI_CLK_CTRL1 |= (BIT_SOC_ACTCK_KEYSCAN_EN | SYSBLK_SLPCK_KEYSCAN_EN_Msk);
;;;243    
;;;244        /* Set FSM to idle state */
;;;245        KEYSCAN->CR &= ~BIT31;
;;;246        KEYSCAN->CLKDIV = KeyScan_StoreReg[0];
;;;247        KEYSCAN->CR = (KeyScan_StoreReg[2] & (~(BIT31)));
;;;248        KEYSCAN->TIMERCR = KeyScan_StoreReg[1];
;;;249        KEYSCAN->COLCR = KeyScan_StoreReg[3];
;;;250        KEYSCAN->ROWCR = KeyScan_StoreReg[4];
;;;251        KEYSCAN->INTMASK = KeyScan_StoreReg[6];
;;;252        KEYSCAN->CR |= (KeyScan_StoreReg[2] & ((BIT31)));
;;;253    
;;;254        return;
;;;255    }
;;;256    #endif /* USE_KEYSCAN_DLPS */
;;;257    
;;;258    
;;;259    /********************************************** ********************************************************/
;;;260    /**************************************** [QDEC DLPS] **************************************************/
;;;261    /*******************************************************************************************************/
;;;262    /*******************************************************************************************************/
;;;263    #if USE_QDECODER_DLPS
;;;264    __STATIC_INLINE void QuadDecoder_DLPS_Enter(void);
;;;265    __STATIC_INLINE void QuadDecoder_DLPS_Exit(void);
;;;266    
;;;267    uint32_t QuadDecoder_StoreReg[5];  /*  This array should be placed in RAM ON/Buffer ON.    */
;;;268    
;;;269    /**
;;;270      * @brief  QDEC enter dlps callback function(Save QDEC register values when system enter DLPS)
;;;271      * @param  None
;;;272      * @retval None
;;;273      */
;;;274    __STATIC_INLINE void QuadDecoder_DLPS_Enter(void)
;;;275    {
;;;276        /*Open 20M clock source*/
;;;277        SYSBLKCTRL->u_20C.RSVD_20C |= BIT26;
;;;278        SYSBLKCTRL->u_20C.RSVD_20C |= BIT27;
;;;279        SYSBLKCTRL->u_218.PERI_FUNC0_EN |= SYSBLK_QDECODE_EN_Msk;
;;;280        SYSBLKCTRL->u_238.PERI_CLK_CTRL1 |= (SYSBLK_ACTCK_QDECODE_EN_Msk | SYSBLK_SLPCK_QDECODE_EN_Msk);
;;;281    
;;;282        QuadDecoder_StoreReg[0] = QDEC->REG_DIV;
;;;283        QuadDecoder_StoreReg[1] = QDEC->REG_CR_X;
;;;284        QuadDecoder_StoreReg[2] = QDEC->REG_CR_Y;
;;;285        QuadDecoder_StoreReg[3] = QDEC->REG_CR_Z;
;;;286        QuadDecoder_StoreReg[4] = QDEC->INT_MASK;
;;;287    
;;;288        return;
;;;289    }
;;;290    
;;;291    /**
;;;292      * @brief  QDEC exit dlps callback function(Resume QDEC register values when system exit DLPS)
;;;293      * @param  None
;;;294      * @retval None
;;;295      */
;;;296    DATA_RAM_FUNCTION __STATIC_INLINE void QuadDecoder_DLPS_Exit(void)
;;;297    {
;;;298        /*Open 20M clock source*/
;;;299        SYSBLKCTRL->u_20C.RSVD_20C |= BIT26;
;;;300        SYSBLKCTRL->u_20C.RSVD_20C |= BIT27;
;;;301        SYSBLKCTRL->u_218.PERI_FUNC0_EN |= SYSBLK_QDECODE_EN_Msk;
;;;302        SYSBLKCTRL->u_238.PERI_CLK_CTRL1 |= (SYSBLK_ACTCK_QDECODE_EN_Msk | SYSBLK_SLPCK_QDECODE_EN_Msk);
;;;303    
;;;304        //clear flags
;;;305        QDEC->REG_DIV  = QuadDecoder_StoreReg[0];
;;;306        QDEC->REG_CR_X = QuadDecoder_StoreReg[1];
;;;307        QDEC->REG_CR_Y = QuadDecoder_StoreReg[2];
;;;308        QDEC->REG_CR_Z = QuadDecoder_StoreReg[3];
;;;309        QDEC->INT_MASK = QuadDecoder_StoreReg[4];
;;;310    
;;;311        return;
;;;312    }
;;;313    #endif
;;;314    
;;;315    /********************************************** ********************************************************/
;;;316    /**************************************** [SPI0 DLPS] **************************************************/
;;;317    /*******************************************************************************************************/
;;;318    /*******************************************************************************************************/
;;;319    #if USE_SPI0_DLPS
;;;320    __STATIC_INLINE void SPI0_DLPS_Enter(void);
;;;321    __STATIC_INLINE void SPI0_DLPS_Exit(void);
;;;322    
;;;323    uint32_t SPI0_StoreReg[13];        /*  This array should be placed in RAM ON/Buffer ON.    */
;;;324    
;;;325    /**
;;;326      * @brief  SPI0 enter dlps callback function(Save SPI0 register values when system enter DLPS)
;;;327      * @param  None
;;;328      * @retval None
;;;329      */
;;;330    __STATIC_INLINE void SPI0_DLPS_Enter(void)
;;;331    {
;;;332        SYSBLKCTRL->u_218.PERI_FUNC0_EN |=  SYSBLK_SPI0_EN_Msk;
;;;333        SYSBLKCTRL->u_234.PERI_CLK_CTRL0 |= (SYSBLK_ACTCK_SPI0_EN_Msk | SYSBLK_SLPCK_SPI0_EN_Msk);
;;;334    
;;;335        SPI0_StoreReg[0] = SPI0->CTRLR0;
;;;336        SPI0_StoreReg[1] = SPI0->CTRLR1;
;;;337        SPI0_StoreReg[2] = SPI0->SSIENR;
;;;338        SPI0_StoreReg[3] = SPI0->SER;
;;;339        SPI0_StoreReg[4] = SPI0->BAUDR;
;;;340        SPI0_StoreReg[5] = SPI0->TXFTLR;
;;;341        SPI0_StoreReg[6] = SPI0->RXFTLR;
;;;342        SPI0_StoreReg[7] = SPI0->IMR;
;;;343        SPI0_StoreReg[8] = SPI0->DMACR;
;;;344        SPI0_StoreReg[9] = SPI0->DMATDLR;
;;;345        SPI0_StoreReg[10] = SPI0->DMARDLR;
;;;346        SPI0_StoreReg[11] = SPI0->RX_SAMPLE_DLY;
;;;347        SPI0_StoreReg[12] = *(volatile uint32_t *)0x40000308;
;;;348    }
;;;349    
;;;350    /**
;;;351      * @brief  SPI0 exit dlps callback function(Resume SPI0 register values when system exit DLPS)
;;;352      * @param  None
;;;353      * @retval None
;;;354      */
;;;355    DATA_RAM_FUNCTION __STATIC_INLINE void SPI0_DLPS_Exit(void)
;;;356    {
;;;357        *(volatile uint32_t *)0x40000308 = SPI0_StoreReg[12];
;;;358        SYSBLKCTRL->u_218.PERI_FUNC0_EN |=  SYSBLK_SPI0_EN_Msk;
;;;359        SYSBLKCTRL->u_234.PERI_CLK_CTRL0 |= (SYSBLK_ACTCK_SPI0_EN_Msk | SYSBLK_SLPCK_SPI0_EN_Msk);
;;;360    
;;;361        SPI0->CTRLR0 = SPI0_StoreReg[0];
;;;362        SPI0->CTRLR1 = SPI0_StoreReg[1];
;;;363        SPI0->SER = SPI0_StoreReg[3];
;;;364        SPI0->BAUDR = SPI0_StoreReg[4];
;;;365        SPI0->TXFTLR = SPI0_StoreReg[5];
;;;366        SPI0->RXFTLR = SPI0_StoreReg[6];
;;;367        SPI0->IMR = SPI0_StoreReg[7];
;;;368        SPI0->DMACR = SPI0_StoreReg[8];
;;;369        SPI0->DMATDLR = SPI0_StoreReg[9];
;;;370        SPI0->DMARDLR = SPI0_StoreReg[10];
;;;371        SPI0->RX_SAMPLE_DLY = SPI0_StoreReg[11];
;;;372    
;;;373        /* Enable the selected SPI peripheral */
;;;374        SPI0->SSIENR = SPI0_StoreReg[2];
;;;375    }
;;;376    #endif
;;;377    
;;;378    
;;;379    /********************************************** ********************************************************/
;;;380    /**************************************** [SPI1 DLPS] **************************************************/
;;;381    /*******************************************************************************************************/
;;;382    /*******************************************************************************************************/
;;;383    #if USE_SPI1_DLPS
;;;384    __STATIC_INLINE void SPI1_DLPS_Enter(void);
;;;385    __STATIC_INLINE void SPI1_DLPS_Exit(void);
;;;386    
;;;387    uint32_t SPI1_StoreReg[13];        /*  This array should be placed in RAM ON/Buffer ON.    */
;;;388    
;;;389    /**
;;;390      * @brief  SPI1 enter dlps callback function(Save SPI1 register values when system enter DLPS)
;;;391      * @param  None
;;;392      * @retval None
;;;393      */
;;;394    __STATIC_INLINE void SPI1_DLPS_Enter(void)
;;;395    {
;;;396        SYSBLKCTRL->u_218.PERI_FUNC0_EN |=  SYSBLK_SPI1_EN_Msk;
;;;397        SYSBLKCTRL->u_234.PERI_CLK_CTRL0 |= (SYSBLK_ACTCK_SPI1_EN_Msk | SYSBLK_SLPCK_SPI1_EN_Msk);
;;;398    
;;;399        SPI1_StoreReg[0] = SPI1->CTRLR0;
;;;400        SPI1_StoreReg[1] = SPI1->CTRLR1;
;;;401        SPI1_StoreReg[2] = SPI1->SSIENR;
;;;402        SPI1_StoreReg[3] = SPI1->SER;
;;;403        SPI1_StoreReg[4] = SPI1->BAUDR;
;;;404        SPI1_StoreReg[5] = SPI1->TXFTLR;
;;;405        SPI1_StoreReg[6] = SPI1->RXFTLR;
;;;406        SPI1_StoreReg[7] = SPI1->IMR;
;;;407        SPI1_StoreReg[8] = SPI1->DMACR;
;;;408        SPI1_StoreReg[9] = SPI1->DMATDLR;
;;;409        SPI1_StoreReg[10] = SPI1->DMARDLR;
;;;410        SPI1_StoreReg[11] = SPI1->RX_SAMPLE_DLY;
;;;411        SPI1_StoreReg[12] = *(volatile uint32_t *)0x40000308;
;;;412    }
;;;413    
;;;414    /**
;;;415      * @brief  SPI1 exit dlps callback function(Resume SPI1 register values when system exit DLPS)
;;;416      * @param  None
;;;417      * @retval None
;;;418      */
;;;419    DATA_RAM_FUNCTION __STATIC_INLINE void SPI1_DLPS_Exit(void)
;;;420    {
;;;421        *(volatile uint32_t *)0x40000308 = SPI1_StoreReg[12];
;;;422        SYSBLKCTRL->u_218.PERI_FUNC0_EN |=  SYSBLK_SPI1_EN_Msk;
;;;423        SYSBLKCTRL->u_234.PERI_CLK_CTRL0 |= (SYSBLK_ACTCK_SPI1_EN_Msk | SYSBLK_SLPCK_SPI1_EN_Msk);
;;;424    
;;;425        SPI1->CTRLR0 = SPI1_StoreReg[0];
;;;426        SPI1->CTRLR1 = SPI1_StoreReg[1];
;;;427        SPI1->SER = SPI1_StoreReg[3];
;;;428        SPI1->BAUDR = SPI1_StoreReg[4];
;;;429        SPI1->TXFTLR = SPI1_StoreReg[5];
;;;430        SPI1->RXFTLR = SPI1_StoreReg[6];
;;;431        SPI1->IMR = SPI1_StoreReg[7];
;;;432        SPI1->DMACR = SPI1_StoreReg[8];
;;;433        SPI1->DMATDLR = SPI1_StoreReg[9];
;;;434        SPI1->DMARDLR = SPI1_StoreReg[10];
;;;435        SPI1->RX_SAMPLE_DLY = SPI1_StoreReg[11];
;;;436    
;;;437        /* Enable the selected SPI peripheral */
;;;438        SPI1->SSIENR = SPI1_StoreReg[2];
;;;439    }
;;;440    #endif
;;;441    
;;;442    /********************************************** ********************************************************/
;;;443    /**************************************** [SPI2W DLPS] **************************************************/
;;;444    /*******************************************************************************************************/
;;;445    /*******************************************************************************************************/
;;;446    #if USE_SPI2W_DLPS
;;;447    __STATIC_INLINE void SPI2W_DLPS_Enter(void);
;;;448    __STATIC_INLINE void SPI2W_DLPS_Exit(void);
;;;449    
;;;450    uint32_t SPI2W_StoreReg[1];        /*  This array should be placed in RAM ON/Buffer ON.    */
;;;451    
;;;452    /**
;;;453      * @brief  SPI2W enter dlps callback function(Save SPI2W register values when system enter DLPS)
;;;454      * @param  None
;;;455      * @retval None
;;;456      */
;;;457    __STATIC_INLINE void SPI2W_DLPS_Enter(void)
;;;458    {
;;;459        /*Open 20M clock source*/
;;;460        SYSBLKCTRL->u_20C.RSVD_20C |= BIT26;
;;;461        SYSBLKCTRL->u_20C.RSVD_20C |= BIT27;
;;;462    
;;;463        SYSBLKCTRL->u_218.PERI_FUNC0_EN |=  SYSBLK_SPI2W_EN_Msk;
;;;464        SYSBLKCTRL->u_238.PERI_CLK_CTRL1 |= (SYSBLK_ACTCK_SPI2WIRE_EN_Msk | SYSBLK_SLPCK_SPI2WIRE_EN_Msk);
;;;465    
;;;466        SPI2W_StoreReg[0] = SPI3WIRE->CFGR;
;;;467    }
;;;468    
;;;469    /**
;;;470      * @brief  SPI2W exit dlps callback function(Resume SPI2W register values when system exit DLPS)
;;;471      * @param  None
;;;472      * @retval None
;;;473      */
;;;474    DATA_RAM_FUNCTION __STATIC_INLINE void SPI2W_DLPS_Exit(void)
;;;475    {
;;;476        /*Open 20M clock source*/
;;;477        SYSBLKCTRL->u_20C.RSVD_20C |= BIT26;
;;;478        SYSBLKCTRL->u_20C.RSVD_20C |= BIT27;
;;;479    
;;;480        SYSBLKCTRL->u_218.PERI_FUNC0_EN |=  SYSBLK_SPI2W_EN_Msk;
;;;481        SYSBLKCTRL->u_238.PERI_CLK_CTRL1 |= (SYSBLK_ACTCK_SPI2WIRE_EN_Msk | SYSBLK_SLPCK_SPI2WIRE_EN_Msk);
;;;482    
;;;483        SPI3WIRE->CFGR = SPI2W_StoreReg[0];
;;;484    }
;;;485    #endif
;;;486    
;;;487    /********************************************** ********************************************************/
;;;488    /**************************************** [I2C0 DLPS] **************************************************/
;;;489    /*******************************************************************************************************/
;;;490    /*******************************************************************************************************/
;;;491    #if USE_I2C0_DLPS
;;;492    __STATIC_INLINE void I2C0_DLPS_Enter(void);
;;;493    __STATIC_INLINE void I2C0_DLPS_Exit(void);
;;;494    
;;;495    uint32_t I2C0_StoreReg[20];        /*  This array should be placed in RAM ON/Buffer ON.    */
;;;496    
;;;497    /**
;;;498      * @brief  I2C0 enter dlps callback function(Save I2C0 register values when system enter DLPS)
;;;499      * @param  None
;;;500      * @retval None
;;;501      */
;;;502    __STATIC_INLINE void I2C0_DLPS_Enter(void)
;;;503    {
;;;504        PERIPH->PERI_CLK_CTRL1 |= (SYSBLK_ACTCK_I2C0_EN_Msk | SYSBLK_SLPCK_I2C0_EN_Msk);
;;;505        PERIPH->PERI_FUNC0_EN |= SYSBLK_I2C0_EN_Msk;
;;;506    
;;;507        I2C0_StoreReg[0] = I2C0->IC_CON;
;;;508        I2C0_StoreReg[1] = I2C0->IC_TAR;
;;;509        I2C0_StoreReg[2] = I2C0->IC_SAR;
;;;510        I2C0_StoreReg[3] = I2C0->IC_HS_MADDR;
;;;511    
;;;512        I2C0_StoreReg[4] = I2C0->IC_SS_SCL_HCNT;
;;;513        I2C0_StoreReg[5] = I2C0->IC_SS_SCL_LCNT;
;;;514        I2C0_StoreReg[6] = I2C0->IC_FS_SCL_HCNT;
;;;515        I2C0_StoreReg[7] = I2C0->IC_FS_SCL_LCNT;
;;;516        I2C0_StoreReg[8] = I2C0->IC_HS_SCL_HCNT;
;;;517        I2C0_StoreReg[9] = I2C0->IC_HS_SCL_LCNT;
;;;518    
;;;519        I2C0_StoreReg[10] = I2C0->IC_INTR_MASK;
;;;520        I2C0_StoreReg[11] = I2C0->IC_RX_TL;
;;;521        I2C0_StoreReg[12] = I2C0->IC_TX_TL;
;;;522        I2C0_StoreReg[13] = I2C0->IC_ENABLE;
;;;523        I2C0_StoreReg[14] = I2C0->IC_SDA_HOLD;
;;;524        I2C0_StoreReg[15] = I2C0->IC_SLV_DATA_NACK_ONLY;
;;;525        I2C0_StoreReg[16] = I2C0->IC_DMA_CR;
;;;526        I2C0_StoreReg[17] = I2C0->IC_DMA_TDLR;
;;;527        I2C0_StoreReg[18] = I2C0->IC_DMA_RDLR;
;;;528    
;;;529        I2C0_StoreReg[19] = I2C0->IC_SDA_SETUP;
;;;530    }
;;;531    
;;;532    /**
;;;533      * @brief  I2C0 exit dlps callback function(Resume I2C0 register values when system exit DLPS)
;;;534      * @param  None
;;;535      * @retval None
;;;536      */
;;;537    DATA_RAM_FUNCTION __STATIC_INLINE void I2C0_DLPS_Exit(void)
;;;538    {
;;;539        PERIPH->PERI_CLK_CTRL1 |= (SYSBLK_ACTCK_I2C0_EN_Msk | SYSBLK_SLPCK_I2C0_EN_Msk);
;;;540        PERIPH->PERI_FUNC0_EN |= SYSBLK_I2C0_EN_Msk;
;;;541    
;;;542        I2C0->IC_CON = I2C0_StoreReg[0];
;;;543        I2C0->IC_TAR = I2C0_StoreReg[1];
;;;544        I2C0->IC_SAR = I2C0_StoreReg[2];
;;;545        I2C0->IC_HS_MADDR = I2C0_StoreReg[3];
;;;546    
;;;547        I2C0->IC_SS_SCL_HCNT = I2C0_StoreReg[4];
;;;548        I2C0->IC_SS_SCL_LCNT = I2C0_StoreReg[5];
;;;549        I2C0->IC_FS_SCL_HCNT = I2C0_StoreReg[6];
;;;550        I2C0->IC_FS_SCL_LCNT = I2C0_StoreReg[7];
;;;551        I2C0->IC_HS_SCL_HCNT = I2C0_StoreReg[8];
;;;552        I2C0->IC_HS_SCL_LCNT = I2C0_StoreReg[9];
;;;553    
;;;554        I2C0->IC_INTR_MASK = I2C0_StoreReg[10];
;;;555        I2C0->IC_RX_TL = I2C0_StoreReg[11];
;;;556        I2C0->IC_TX_TL = I2C0_StoreReg[12];
;;;557        I2C0->IC_SDA_HOLD = I2C0_StoreReg[14];
;;;558        I2C0->IC_SLV_DATA_NACK_ONLY = I2C0_StoreReg[15];
;;;559        I2C0->IC_DMA_CR = I2C0_StoreReg[16];
;;;560        I2C0->IC_DMA_TDLR = I2C0_StoreReg[17];
;;;561        I2C0->IC_DMA_RDLR = I2C0_StoreReg[18];
;;;562        I2C0->IC_SDA_SETUP = I2C0_StoreReg[19];
;;;563    
;;;564        I2C0->IC_ENABLE = I2C0_StoreReg[13];
;;;565    }
;;;566    #endif
;;;567    
;;;568    /********************************************** ********************************************************/
;;;569    /**************************************** [I2C1 DLPS] **************************************************/
;;;570    /*******************************************************************************************************/
;;;571    /*******************************************************************************************************/
;;;572    #if USE_I2C1_DLPS
;;;573    __STATIC_INLINE void I2C1_DLPS_Enter(void);
;;;574    __STATIC_INLINE void I2C1_DLPS_Exit(void);
;;;575    
;;;576    uint32_t I2C1_StoreReg[20];        /*  This array should be placed in RAM ON/Buffer ON.    */
;;;577    
;;;578    /**
;;;579      * @brief  I2C1 enter dlps callback function(Save I2C1 register values when system enter DLPS)
;;;580      * @param  None
;;;581      * @retval None
;;;582      */
;;;583    __STATIC_INLINE void I2C1_DLPS_Enter(void)
;;;584    {
;;;585        PERIPH->PERI_CLK_CTRL1 |= (SYSBLK_ACTCK_I2C1_EN_Msk | SYSBLK_SLPCK_I2C1_EN_Msk);
;;;586        PERIPH->PERI_FUNC0_EN |= SYSBLK_I2C1_EN_Msk;
;;;587    
;;;588        I2C1_StoreReg[0] = I2C1->IC_CON;
;;;589        I2C1_StoreReg[1] = I2C1->IC_TAR;
;;;590        I2C1_StoreReg[2] = I2C1->IC_SAR;
;;;591        I2C1_StoreReg[3] = I2C1->IC_HS_MADDR;
;;;592    
;;;593        I2C1_StoreReg[4] = I2C1->IC_SS_SCL_HCNT;
;;;594        I2C1_StoreReg[5] = I2C1->IC_SS_SCL_LCNT;
;;;595        I2C1_StoreReg[6] = I2C1->IC_FS_SCL_HCNT;
;;;596        I2C1_StoreReg[7] = I2C1->IC_FS_SCL_LCNT;
;;;597        I2C1_StoreReg[8] = I2C1->IC_HS_SCL_HCNT;
;;;598        I2C1_StoreReg[9] = I2C1->IC_HS_SCL_LCNT;
;;;599    
;;;600        I2C1_StoreReg[10] = I2C1->IC_INTR_MASK;
;;;601        I2C1_StoreReg[11] = I2C1->IC_RX_TL;
;;;602        I2C1_StoreReg[12] = I2C1->IC_TX_TL;
;;;603        I2C1_StoreReg[13] = I2C1->IC_ENABLE;
;;;604        I2C1_StoreReg[14] = I2C1->IC_SDA_HOLD;
;;;605        I2C1_StoreReg[15] = I2C1->IC_SLV_DATA_NACK_ONLY;
;;;606        I2C1_StoreReg[16] = I2C1->IC_DMA_CR;
;;;607        I2C1_StoreReg[17] = I2C1->IC_DMA_TDLR;
;;;608        I2C1_StoreReg[18] = I2C1->IC_DMA_RDLR;
;;;609    
;;;610        I2C1_StoreReg[19] = I2C1->IC_SDA_SETUP;
;;;611    }
;;;612    
;;;613    /**
;;;614      * @brief  I2C1 exit dlps callback function(Resume I2C1 register values when system exit DLPS)
;;;615      * @param  None
;;;616      * @retval None
;;;617      */
;;;618    DATA_RAM_FUNCTION __STATIC_INLINE void I2C1_DLPS_Exit(void)
;;;619    {
;;;620        PERIPH->PERI_CLK_CTRL1 |= (SYSBLK_ACTCK_I2C1_EN_Msk | SYSBLK_SLPCK_I2C1_EN_Msk);
;;;621        PERIPH->PERI_FUNC0_EN |= SYSBLK_I2C1_EN_Msk;
;;;622    
;;;623        I2C1->IC_CON = I2C1_StoreReg[0];
;;;624        I2C1->IC_TAR = I2C1_StoreReg[1];
;;;625        I2C1->IC_SAR = I2C1_StoreReg[2];
;;;626        I2C0->IC_HS_MADDR = I2C1_StoreReg[3];
;;;627    
;;;628        I2C1->IC_SS_SCL_HCNT = I2C1_StoreReg[4];
;;;629        I2C1->IC_SS_SCL_LCNT = I2C1_StoreReg[5];
;;;630        I2C1->IC_FS_SCL_HCNT = I2C1_StoreReg[6];
;;;631        I2C1->IC_FS_SCL_LCNT = I2C1_StoreReg[7];
;;;632        I2C1->IC_HS_SCL_HCNT = I2C1_StoreReg[8];
;;;633        I2C1->IC_HS_SCL_LCNT = I2C1_StoreReg[9];
;;;634    
;;;635        I2C1->IC_INTR_MASK = I2C1_StoreReg[10];
;;;636        I2C1->IC_RX_TL = I2C1_StoreReg[11];
;;;637        I2C1->IC_TX_TL = I2C1_StoreReg[12];
;;;638        I2C1->IC_SDA_HOLD = I2C1_StoreReg[14];
;;;639        I2C1->IC_SLV_DATA_NACK_ONLY = I2C1_StoreReg[15];
;;;640        I2C1->IC_DMA_CR = I2C1_StoreReg[16];
;;;641        I2C1->IC_DMA_TDLR = I2C1_StoreReg[17];
;;;642        I2C1->IC_DMA_RDLR = I2C1_StoreReg[18];
;;;643        I2C1->IC_SDA_SETUP = I2C1_StoreReg[19];
;;;644    
;;;645        I2C1->IC_ENABLE = I2C1_StoreReg[13];
;;;646    }
;;;647    #endif
;;;648    
;;;649    /********************************************** ********************************************************/
;;;650    /**************************************** [Timer & PWM DLPS] *******************************************/
;;;651    /*******************************************************************************************************/
;;;652    /*******************************************************************************************************/
;;;653    #if USE_TIM_DLPS
;;;654    #include "rtl876x_tim.h"
;;;655    __STATIC_INLINE void TIM_DLPS_Enter(void);
;;;656    __STATIC_INLINE void TIM_DLPS_Exit(void);
;;;657    
;;;658    uint32_t TIM_StoreReg[26];      /*  This array should be placed in RAM ON/Buffer ON.    */
;;;659    
;;;660    /* PWM, use with timer */
;;;661    uint32_t PWM0_StoreReg;         /*  This array should be placed in RAM ON/Buffer ON.    */
;;;662    
;;;663    uint32_t PWM1_StoreReg;         /*  This array should be placed in RAM ON/Buffer ON.    */
;;;664    
;;;665    /**
;;;666      * @brief  TIMER enter dlps callback function(Save TIMER register values when system enter DLPS)
;;;667      * @param  None
;;;668      * @retval None
;;;669      */
;;;670    __STATIC_INLINE void TIM_DLPS_Enter(void)
;;;671    {
;;;672        SYSBLKCTRL->u_210.SOC_FUNC_EN |= BIT(16);
;;;673        SYSBLKCTRL->u_230.CLK_CTRL |= (SYSBLK_ACTCK_TIMER_EN_Msk | SYSBLK_SLPCK_TIMER_EN_Msk);
;;;674    
;;;675        TIM_StoreReg[0] = TIM0->LoadCount;
;;;676        TIM_StoreReg[1] = TIM0->ControlReg;
;;;677        TIM_StoreReg[2] = TIMER0_LOAD_COUNT2;
;;;678    
;;;679        TIM_StoreReg[3] = TIM1->LoadCount;
;;;680        TIM_StoreReg[4] = TIM1->ControlReg;
;;;681        TIM_StoreReg[5] = TIMER1_LOAD_COUNT2;
;;;682    
;;;683        TIM_StoreReg[6] = TIM2->LoadCount;
;;;684        TIM_StoreReg[7] = TIM2->ControlReg;
;;;685        TIM_StoreReg[8] = TIMER2_LOAD_COUNT2;
;;;686    
;;;687        TIM_StoreReg[9] = TIM3->LoadCount;
;;;688        TIM_StoreReg[10] = TIM3->ControlReg;
;;;689        TIM_StoreReg[11] = TIMER3_LOAD_COUNT2;
;;;690    
;;;691        TIM_StoreReg[12] = TIM4->LoadCount;
;;;692        TIM_StoreReg[13] = TIM4->ControlReg;
;;;693        TIM_StoreReg[14] = TIMER4_LOAD_COUNT2;
;;;694    
;;;695        TIM_StoreReg[15] = TIM5->LoadCount;
;;;696        TIM_StoreReg[16] = TIM5->ControlReg;
;;;697        TIM_StoreReg[17] = TIMER5_LOAD_COUNT2;
;;;698    
;;;699        TIM_StoreReg[18] = TIM6->LoadCount;
;;;700        TIM_StoreReg[19] = TIM6->ControlReg;
;;;701        TIM_StoreReg[20] = TIMER6_LOAD_COUNT2;
;;;702    
;;;703        TIM_StoreReg[21] = TIM7->LoadCount;
;;;704        TIM_StoreReg[22] = TIM7->ControlReg;
;;;705        TIM_StoreReg[23] = TIMER7_LOAD_COUNT2;
;;;706    
;;;707        TIM_StoreReg[24] = *((volatile uint32_t *)0x4000035CUL);
;;;708        TIM_StoreReg[25] = *((volatile uint32_t *)0x40000360UL);
;;;709    
;;;710        PWM0_StoreReg = TIMER_PWM0_CR;
;;;711    
;;;712        PWM1_StoreReg = TIMER_PWM1_CR;
;;;713    }
;;;714    
;;;715    /**
;;;716      * @brief  TIMER exit dlps callback function(Resume TIMER register values when system exit DLPS)
;;;717      * @param  None
;;;718      * @retval None
;;;719      */
;;;720    DATA_RAM_FUNCTION __STATIC_INLINE void TIM_DLPS_Exit(void)
;;;721    {
;;;722        /* Enable timer IP clock and function */
;;;723        SYSBLKCTRL->u_210.SOC_FUNC_EN |= BIT(16);
;;;724        SYSBLKCTRL->u_230.CLK_CTRL |= (SYSBLK_ACTCK_TIMER_EN_Msk | SYSBLK_SLPCK_TIMER_EN_Msk);
;;;725    
;;;726        *((volatile uint32_t *)0x4000035CUL) = TIM_StoreReg[24];
;;;727        *((volatile uint32_t *)0x40000360UL) = TIM_StoreReg[25];
;;;728    
;;;729        TIM0->LoadCount = TIM_StoreReg[0];
;;;730        TIM0->ControlReg = TIM_StoreReg[1];
;;;731        TIMER0_LOAD_COUNT2 = TIM_StoreReg[2];
;;;732    
;;;733        TIM1->LoadCount = TIM_StoreReg[3];
;;;734        TIM1->ControlReg = TIM_StoreReg[4];
;;;735        TIMER1_LOAD_COUNT2 = TIM_StoreReg[5];
;;;736    
;;;737        TIM2->LoadCount = TIM_StoreReg[6];
;;;738        TIM2->ControlReg = TIM_StoreReg[7];
;;;739        TIMER2_LOAD_COUNT2 = TIM_StoreReg[8];
;;;740    
;;;741        TIM3->LoadCount = TIM_StoreReg[9];
;;;742        TIM3->ControlReg = TIM_StoreReg[10];
;;;743        TIMER3_LOAD_COUNT2 = TIM_StoreReg[11];
;;;744    
;;;745        TIM4->LoadCount = TIM_StoreReg[12];
;;;746        TIM4->ControlReg = TIM_StoreReg[13];
;;;747        TIMER4_LOAD_COUNT2 = TIM_StoreReg[14];
;;;748    
;;;749        TIM5->LoadCount = TIM_StoreReg[15];
;;;750        TIM5->ControlReg = TIM_StoreReg[16];
;;;751        TIMER5_LOAD_COUNT2 = TIM_StoreReg[17];
;;;752    
;;;753        TIM6->LoadCount = TIM_StoreReg[18];
;;;754        TIM6->ControlReg = TIM_StoreReg[19];
;;;755        TIMER6_LOAD_COUNT2 = TIM_StoreReg[20];
;;;756    
;;;757        TIM7->LoadCount = TIM_StoreReg[21];
;;;758        TIM7->ControlReg = TIM_StoreReg[22];
;;;759        TIMER7_LOAD_COUNT2 = TIM_StoreReg[23];
;;;760    
;;;761        TIMER_PWM0_CR = PWM0_StoreReg;
;;;762    
;;;763        TIMER_PWM1_CR = PWM1_StoreReg;
;;;764    }
;;;765    #endif  /* USE_TIM_DLPS */
;;;766    
;;;767    
;;;768    /********************************************** ********************************************************/
;;;769    /**************************************** [UART DLPS] **************************************************/
;;;770    /*******************************************************************************************************/
;;;771    /*******************************************************************************************************/
;;;772    #if USE_UART_DLPS
;;;773    #include "rtl876x_uart.h"
;;;774    
;;;775    __STATIC_INLINE void UART_DLPS_Enter(void);
;;;776    __STATIC_INLINE void UART_DLPS_Exit(void);
;;;777    
;;;778    uint32_t UART_StoreReg[11];        /*  This array should be placed in RAM ON/Buffer ON.    */
;;;779    
;;;780    /**
;;;781      * @brief  UART enter dlps callback function(Save UART register values when system enter DLPS)
;;;782      * @param  None
;;;783      * @retval None
;;;784      */
;;;785    __STATIC_INLINE void UART_DLPS_Enter(void)
;;;786    {
;;;787        PERIPH->PERI_FUNC0_EN |= (1 << 0);
;;;788        PERIPH->PERI_CLK_CTRL0 |= (SYSBLK_ACTCK_UART0DATA_EN_Msk | SYSBLK_SLPCK_UART0DATA_EN_Msk);
;;;789    
;;;790        //access DLH and DLL
;;;791        UART->LCR |= (1 << 7);
;;;792        UART_StoreReg[0] = UART->DLL;
;;;793        UART_StoreReg[1] = UART->DLH_INTCR;
;;;794        UART->LCR &= (~(1 << 7));
;;;795    
;;;796        //save other registers
;;;797        UART_StoreReg[2] = UART->DLH_INTCR;
;;;798        UART_StoreReg[4] = UART->LCR;
;;;799        UART_StoreReg[5] = UART->MCR;
;;;800        UART_StoreReg[6] = UART->SPR;
;;;801        UART_StoreReg[7] = UART->STSR;
;;;802        UART_StoreReg[8] = UART->RX_IDLE_INTTCR;
;;;803        UART_StoreReg[9] = UART->RXIDLE_INTCR;
;;;804        UART_StoreReg[10] = UART->MISCR;
;;;805    
;;;806        return;
;;;807    }
;;;808    
;;;809    /**
;;;810      * @brief  UART exit dlps callback function(Resume UART register values when system exit DLPS)
;;;811      * @param  None
;;;812      * @retval None
;;;813      */
;;;814    DATA_RAM_FUNCTION __STATIC_INLINE void UART_DLPS_Exit(void)
;;;815    {
;;;816        PERIPH->PERI_FUNC0_EN |= (1 << 0);
;;;817        PERIPH->PERI_CLK_CTRL0 |= (SYSBLK_ACTCK_UART0DATA_EN_Msk | SYSBLK_SLPCK_UART0DATA_EN_Msk);
;;;818    
;;;819        //access DLH and DLL
;;;820        UART->LCR |= (1 << 7);
;;;821        UART->DLL = UART_StoreReg[0];
;;;822        UART->DLH_INTCR =  UART_StoreReg[1];
;;;823        UART->LCR &= (~(1 << 7));
;;;824    
;;;825        //access other registers
;;;826        UART->INTID_FCR = (((UART_StoreReg[7] & BIT24) >> 21) | ((UART_StoreReg[7] & 0x7C000000) >> 18) |
;;;827                           (1));
;;;828        UART->LCR = UART_StoreReg[4];
;;;829        UART->MCR = UART_StoreReg[5];
;;;830        UART->SPR = UART_StoreReg[6];
;;;831        UART->STSR = UART_StoreReg[7];
;;;832        UART->DLH_INTCR = UART_StoreReg[2];
;;;833        UART->RX_IDLE_INTTCR = UART_StoreReg[8];
;;;834        UART->RXIDLE_INTCR = UART_StoreReg[9];
;;;835        UART->MISCR = UART_StoreReg[10];
;;;836    
;;;837        return;
;;;838    }
;;;839    #endif
;;;840    
;;;841    
;;;842    #if USE_UART1_DLPS
;;;843    
;;;844    __STATIC_INLINE void UART1_DLPS_Enter(void);
;;;845    __STATIC_INLINE void UART1_DLPS_Exit(void);
;;;846    
;;;847    uint32_t UART1_StoreReg[11];        /*  This array should be placed in RAM ON/Buffer ON.    */
;;;848    
;;;849    /**
;;;850      * @brief  UART1 enter dlps callback function(Save UART1 register values when system enter DLPS)
;;;851      * @param  None
;;;852      * @retval None
;;;853      */
;;;854    __STATIC_INLINE void UART1_DLPS_Enter(void)
;;;855    {
;;;856        //enable log uart peripheral & clock
;;;857        SYSBLKCTRL->u_210.SOC_FUNC_EN |= (1 << 12);
;;;858        SYSBLKCTRL->u_230.CLK_CTRL |= ((1 << 12) | (1 << 13));
;;;859    
;;;860        //access DLH and DLL
;;;861        UART1->LCR |= (1 << 7);
;;;862        UART1_StoreReg[0] = UART1->DLL;
;;;863        UART1_StoreReg[1] = UART1->DLH_INTCR;
;;;864        UART1->LCR &= (~(1 << 7));
;;;865    
;;;866        //save other registers
;;;867        UART1_StoreReg[2] = UART1->DLH_INTCR;
;;;868        UART1_StoreReg[4] = UART1->LCR;
;;;869        UART1_StoreReg[5] = UART1->MCR;
;;;870        UART1_StoreReg[6] = UART1->SPR;
;;;871        UART1_StoreReg[7] = UART1->STSR;
;;;872        UART1_StoreReg[8] = UART1->RX_IDLE_INTTCR;
;;;873        UART1_StoreReg[9] = UART1->RXIDLE_INTCR;
;;;874        UART1_StoreReg[10] = UART1->MISCR;
;;;875    
;;;876        return;
;;;877    }
;;;878    
;;;879    /**
;;;880      * @brief  UART1 exit dlps callback function(Resume UART1 register values when system exit DLPS)
;;;881      * @param  None
;;;882      * @retval None
;;;883      */
;;;884    DATA_RAM_FUNCTION __STATIC_INLINE void UART1_DLPS_Exit(void)
;;;885    {
;;;886        //enable log uart peripheral & clock
;;;887        SYSBLKCTRL->u_210.SOC_FUNC_EN |= (1 << 12);
;;;888        SYSBLKCTRL->u_230.CLK_CTRL |= ((1 << 12) | (1 << 13));
;;;889    
;;;890        //access DLH and DLL
;;;891        UART1->LCR |= (1 << 7);
;;;892        UART1->DLL = UART1_StoreReg[0];
;;;893        UART1->DLH_INTCR =  UART1_StoreReg[1];
;;;894        UART1->LCR &= (~(1 << 7));
;;;895    
;;;896        //access other registers
;;;897        UART1->INTID_FCR = (((UART1_StoreReg[7] & BIT24) >> 21) | ((UART1_StoreReg[7] & 0x7C000000)
;;;898                                                                   >> 18) | (1));
;;;899        UART1->LCR = UART1_StoreReg[4];
;;;900        UART1->MCR = UART1_StoreReg[5];
;;;901        UART1->SPR = UART1_StoreReg[6];
;;;902        UART1->STSR = UART1_StoreReg[7];
;;;903        UART1->DLH_INTCR = UART1_StoreReg[2];
;;;904        UART1->RX_IDLE_INTTCR = UART1_StoreReg[8];
;;;905        UART1->RXIDLE_INTCR = UART1_StoreReg[9];
;;;906        UART1->MISCR = UART1_StoreReg[10];
;;;907    
;;;908        return;
;;;909    }
;;;910    #endif
;;;911    
;;;912    #if USE_UART2_DLPS
;;;913    
;;;914    __STATIC_INLINE void UART2_DLPS_Enter(void);
;;;915    __STATIC_INLINE void UART2_DLPS_Exit(void);
;;;916    
;;;917    uint32_t UART2_StoreReg[11];        /*  This array should be placed in RAM ON/Buffer ON.    */
;;;918    
;;;919    /**
;;;920      * @brief  UART2 enter dlps callback function(Save UART2 register values when system enter DLPS)
;;;921      * @param  None
;;;922      * @retval None
;;;923      */
;;;924    __STATIC_INLINE void UART2_DLPS_Enter(void)
;;;925    {
;;;926        //enable log uart peripheral & clock
;;;927        SYSBLKCTRL->u_210.SOC_FUNC_EN |= (1 << 12);
;;;928        SYSBLKCTRL->u_230.CLK_CTRL |= ((1 << 12) | (1 << 13));
;;;929    
;;;930        //access DLH and DLL
;;;931        UART2->LCR |= (1 << 7);
;;;932        UART2_StoreReg[0] = UART2->DLL;
;;;933        UART2_StoreReg[1] = UART2->DLH_INTCR;
;;;934        UART2->LCR &= (~(1 << 7));
;;;935    
;;;936        //save other registers
;;;937        UART2_StoreReg[2] = UART2->DLH_INTCR;
;;;938        UART2_StoreReg[4] = UART2->LCR;
;;;939        UART2_StoreReg[5] = UART2->MCR;
;;;940        UART2_StoreReg[6] = UART2->SPR;
;;;941        UART2_StoreReg[7] = UART2->STSR;
;;;942        UART2_StoreReg[8] = UART2->RX_IDLE_INTTCR;
;;;943        UART2_StoreReg[9] = UART2->RXIDLE_INTCR;
;;;944        UART2_StoreReg[10] = UART2->MISCR;
;;;945    
;;;946        return;
;;;947    }
;;;948    
;;;949    /**
;;;950      * @brief  UART2 exit dlps callback function(Resume UART2 register values when system exit DLPS)
;;;951      * @param  None
;;;952      * @retval None
;;;953      */
;;;954    DATA_RAM_FUNCTION __STATIC_INLINE void UART2_DLPS_Exit(void)
;;;955    {
;;;956        //enable log uart peripheral & clock
;;;957        SYSBLKCTRL->u_210.SOC_FUNC_EN |= (1 << 12);
;;;958        SYSBLKCTRL->u_230.CLK_CTRL |= ((1 << 12) | (1 << 13));
;;;959    
;;;960        //access DLH and DLL
;;;961        UART2->LCR |= (1 << 7);
;;;962        UART2->DLL = UART2_StoreReg[0];
;;;963        UART2->DLH_INTCR =  UART2_StoreReg[1];
;;;964        UART2->LCR &= (~(1 << 7));
;;;965    
;;;966        //access other registers
;;;967        UART2->INTID_FCR = (((UART2_StoreReg[7] & BIT24) >> 21) | ((UART2_StoreReg[7] & 0x7C000000)
;;;968                                                                   >> 18) | (1));
;;;969        UART2->LCR = UART2_StoreReg[4];
;;;970        UART2->MCR = UART2_StoreReg[5];
;;;971        UART2->SPR = UART2_StoreReg[6];
;;;972        UART2->STSR = UART2_StoreReg[7];
;;;973        UART2->DLH_INTCR = UART2_StoreReg[2];
;;;974        UART2->RX_IDLE_INTTCR = UART2_StoreReg[8];
;;;975        UART2->RXIDLE_INTCR = UART2_StoreReg[9];
;;;976        UART2->MISCR = UART2_StoreReg[10];
;;;977    
;;;978        return;
;;;979    }
;;;980    #endif
;;;981    
;;;982    
;;;983    /********************************************** ********************************************************/
;;;984    /**************************************** [ADC DLPS] **************************************************/
;;;985    /*******************************************************************************************************/
;;;986    /*******************************************************************************************************/
;;;987    
;;;988    #if USE_ADC_DLPS
;;;989    __STATIC_INLINE void ADC_DLPS_Enter(void);
;;;990    __STATIC_INLINE void ADC_DLPS_Exit(void);
;;;991    
;;;992    uint32_t ADC_StoreReg[14];        /*  This array should be placed in RAM ON/Buffer ON.    */
;;;993    
;;;994    /**
;;;995      * @brief  ADC enter dlps callback function(Save ADC register values when system enter DLPS)
;;;996      * @param  None
;;;997      * @retval None
;;;998      */
;;;999    __STATIC_INLINE void ADC_DLPS_Enter(void)
;;;1000   {
;;;1001       /*Open 10M clock source*/
;;;1002       SYSBLKCTRL->u_20C.RSVD_20C |= BIT26;
;;;1003       SYSBLKCTRL->u_20C.RSVD_20C |= BIT28;
;;;1004   
;;;1005       PERIPH->PERI_FUNC1_EN |= (1 << 0);
;;;1006       PERIPH->PERI_CLK_CTRL1 |= (SYSBLK_ACTCK_ADC_EN_Msk | SYSBLK_SLPCK_ADC_EN_Msk);
;;;1007   
;;;1008       ADC_StoreReg[0] =  ADC->CR;          //0x04
;;;1009       ADC_StoreReg[1] =  ADC->SCHCR;       //0x08
;;;1010       ADC_StoreReg[2] =  ADC->INTCR;       //0x0C
;;;1011       ADC_StoreReg[3] =  ADC->SCHTAB0;     //0x10
;;;1012       ADC_StoreReg[4] =  ADC->SCHTAB1;     //0x14
;;;1013       ADC_StoreReg[5] =  ADC->SCHTAB2;     //0x18
;;;1014       ADC_StoreReg[6] =  ADC->SCHTAB3;     //0x1C
;;;1015       ADC_StoreReg[7] =  ADC->SCHTAB4;     //0x20
;;;1016       ADC_StoreReg[8] =  ADC->SCHTAB5;     //0x24
;;;1017       ADC_StoreReg[9] =  ADC->SCHTAB6;     //0x28
;;;1018       ADC_StoreReg[10] =  ADC->SCHTAB6;    //0x2C
;;;1019       ADC_StoreReg[11] =  ADC->PWRDLY;
;;;1020       ADC_StoreReg[12] =  ADC->DATCLK;
;;;1021       ADC_StoreReg[13] =  ADC->ANACTL;
;;;1022   
;;;1023       uint8_t reg_value = 0;
;;;1024       reg_value = btaon_fast_read_safe(0x110);
;;;1025       btaon_fast_write(0x110, reg_value & (~0x04));
;;;1026   
;;;1027       return;
;;;1028   }
;;;1029   
;;;1030   /**
;;;1031     * @brief  ADC exit dlps callback function(Resume ADC register values when system exit DLPS)
;;;1032     * @param  None
;;;1033     * @retval None
;;;1034     */
;;;1035   DATA_RAM_FUNCTION __STATIC_INLINE void ADC_DLPS_Exit(void)
;;;1036   {
;;;1037       /*Open 10M clock source*/
;;;1038       SYSBLKCTRL->u_20C.RSVD_20C |= BIT26;
;;;1039       SYSBLKCTRL->u_20C.RSVD_20C |= BIT28;
;;;1040   
;;;1041       PERIPH->PERI_FUNC1_EN |= (1 << 0);
;;;1042       PERIPH->PERI_CLK_CTRL1 |= (SYSBLK_ACTCK_ADC_EN_Msk | SYSBLK_SLPCK_ADC_EN_Msk);
;;;1043   
;;;1044   #if 0
;;;1045       //Todo
;;;1046       ADC->PWRDLY = ADC_StoreReg[10];
;;;1047       ADC->CR = (ADC_StoreReg[0] & (~((uint32_t)0x03)));
;;;1048       ADC->SCHTAB0 = ADC_StoreReg[3];
;;;1049       ADC->SCHTAB1 = ADC_StoreReg[4];
;;;1050       ADC->SCHTAB2 = ADC_StoreReg[5];
;;;1051       ADC->SCHTAB3 = ADC_StoreReg[6];
;;;1052       ADC->SCHTAB4 = ADC_StoreReg[7];
;;;1053       ADC->SCHTAB5 = ADC_StoreReg[8];
;;;1054       ADC->SCHTAB6 = ADC_StoreReg[9];
;;;1055       ADC->SCHCR = ADC_StoreReg[1];
;;;1056       ADC->INTCR = (ADC_StoreReg[2] & 0x1F);
;;;1057   #else
;;;1058       /*Disable all interrupt.*/
;;;1059       ADC->INTCR &= (~0x1f);
;;;1060   
;;;1061       /* Set power mode first */
;;;1062       ADC->PWRDLY = ADC_StoreReg[11];
;;;1063   
;;;1064       /* Disable schedule table */
;;;1065       ADC->SCHCR &= (~0xffff);
;;;1066   
;;;1067       ADC->SCHTAB0 = ADC_StoreReg[3];
;;;1068       ADC->SCHTAB1 = ADC_StoreReg[4];
;;;1069       ADC->SCHTAB2 = ADC_StoreReg[5];
;;;1070       ADC->SCHTAB3 = ADC_StoreReg[6];
;;;1071       ADC->SCHTAB4 = ADC_StoreReg[7];
;;;1072       ADC->SCHTAB5 = ADC_StoreReg[8];
;;;1073       ADC->SCHTAB6 = ADC_StoreReg[9];
;;;1074       ADC->SCHTAB7 = ADC_StoreReg[10];
;;;1075       ADC->SCHCR   = ADC_StoreReg[1];
;;;1076       ADC->CR = (ADC_StoreReg[0] & (~((uint32_t)0x03)));
;;;1077       ADC->DATCLK = ADC_StoreReg[12];
;;;1078       ADC->ANACTL = ADC_StoreReg[13];
;;;1079   
;;;1080       /*Clear ADC FIFO */
;;;1081       ADC->CR |= BIT26;
;;;1082       /* Clear all interrupt */
;;;1083       ADC->INTCR |= (0x1f << 8);
;;;1084   
;;;1085       /* Restore specify interrupt */
;;;1086       ADC->INTCR = ADC_StoreReg[2];
;;;1087   
;;;1088   #endif
;;;1089   
;;;1090       uint8_t reg_value = 0;
;;;1091       reg_value = btaon_fast_read_safe(0x110);
;;;1092       btaon_fast_write(0x110, reg_value | 0x04);
;;;1093   
;;;1094       return;
;;;1095   }
;;;1096   
;;;1097   #endif
;;;1098   
;;;1099   /********************************************** ********************************************************/
;;;1100   /**************************************** [IR DLPS] **************************************************/
;;;1101   /*******************************************************************************************************/
;;;1102   /*******************************************************************************************************/
;;;1103   
;;;1104   #if USE_IR_DLPS
;;;1105   __STATIC_INLINE void IR_DLPS_Enter(void);
;;;1106   __STATIC_INLINE void IR_DLPS_Exit(void);
;;;1107   
;;;1108   uint32_t IR_StoreReg[6];        /*  This array should be placed in RAM ON/Buffer ON.    */
;;;1109   
;;;1110   /**
;;;1111     * @brief  IR enter dlps callback function(Save IR register values when system enter DLPS)
;;;1112     * @param  None
;;;1113     * @retval None
;;;1114     */
;;;1115   __STATIC_INLINE void IR_DLPS_Enter(void)
;;;1116   {
;;;1117       PERIPH->PERI_FUNC0_EN |= (1 << 10);
;;;1118       PERIPH->PERI_CLK_CTRL0 |= (SYSBLK_ACTCK_IR_EN_Msk | SYSBLK_SLPCK_IR_EN_Msk);
;;;1119   
;;;1120       IR_StoreReg[0] = IR->CLK_DIV;
;;;1121       IR_StoreReg[1] = IR->TX_CONFIG;
;;;1122       IR_StoreReg[2] = IR->RX_CONFIG;
;;;1123       IR_StoreReg[3] = IR->RX_CNT_INT_SEL;
;;;1124   
;;;1125   
;;;1126       return;
;;;1127   }
;;;1128   
;;;1129   /**
;;;1130     * @brief  IR exit dlps callback function(Resume IR register values when system exit DLPS)
;;;1131     * @param  None
;;;1132     * @retval None
;;;1133     */
;;;1134   DATA_RAM_FUNCTION __STATIC_INLINE void IR_DLPS_Exit(void)
;;;1135   {
;;;1136       PERIPH->PERI_FUNC0_EN |= (1 << 10);
;;;1137       PERIPH->PERI_CLK_CTRL0 |= (SYSBLK_ACTCK_IR_EN_Msk | SYSBLK_SLPCK_IR_EN_Msk);
;;;1138   
;;;1139       IR->CLK_DIV = IR_StoreReg[0];
;;;1140       if (IR_StoreReg[1] & BIT31)
;;;1141       {
;;;1142           /* RX MODE */
;;;1143           IR->TX_CONFIG  = IR_StoreReg[1];
;;;1144           IR->RX_CONFIG  = IR_StoreReg[2];
;;;1145           IR->RX_CNT_INT_SEL  = IR_StoreReg[3];
;;;1146       }
;;;1147       else
;;;1148       {
;;;1149           /* TX MODE */
;;;1150           IR->TX_CONFIG  = IR_StoreReg[1];
;;;1151           /* If IR TX mode is idle, must write one data firstly */
;;;1152           IR->TX_FIFO = 0;
;;;1153       }
;;;1154   
;;;1155       return;
;;;1156   }
;;;1157   
;;;1158   #endif
;;;1159   
;;;1160   /********************************************** ********************************************************/
;;;1161   /**************************************** [GDMA DLPS] **************************************************/
;;;1162   /*******************************************************************************************************/
;;;1163   /*******************************************************************************************************/
;;;1164   
;;;1165   #if USE_GDMA_DLPS
;;;1166   
;;;1167   __STATIC_INLINE void GDMA_DLPS_Enter(void);
;;;1168   __STATIC_INLINE void GDMA_DLPS_Exit(void);
;;;1169   uint32_t GDMA_StoreReg[7];         /*  This array should be placed in RAM ON/Buffer ON.    */
;;;1170   
;;;1171   #endif
;;;1172   
;;;1173   #if USE_GDMACHANNEL0_DLPS
;;;1174   uint32_t GDMAChannel0_StoreReg[6];        /*  This array should be placed in RAM ON/Buffer ON.    */
;;;1175   #endif
;;;1176   
;;;1177   #if USE_GDMACHANNEL1_DLPS
;;;1178   uint32_t GDMAChannel1_StoreReg[6];        /*  This array should be placed in RAM ON/Buffer ON.    */
;;;1179   #endif
;;;1180   
;;;1181   #if USE_GDMACHANNEL2_DLPS
;;;1182   uint32_t GDMAChannel2_StoreReg[6];        /*  This array should be placed in RAM ON/Buffer ON.    */
;;;1183   #endif
;;;1184   
;;;1185   #if USE_GDMACHANNEL3_DLPS
;;;1186   uint32_t GDMAChannel3_StoreReg[6];        /*  This array should be placed in RAM ON/Buffer ON.    */
;;;1187   #endif
;;;1188   
;;;1189   #if USE_GDMACHANNEL4_DLPS
;;;1190   uint32_t GDMAChannel4_StoreReg[6];        /*  This array should be placed in RAM ON/Buffer ON.    */
;;;1191   #endif
;;;1192   
;;;1193   #if USE_GDMACHANNEL5_DLPS
;;;1194   uint32_t GDMAChannel5_StoreReg[6];        /*  This array should be placed in RAM ON/Buffer ON.    */
;;;1195   #endif
;;;1196   
;;;1197   #if USE_GDMA_DLPS
;;;1198   /**
;;;1199     * @brief  GDMA enter dlps callback function(Save GDMA register values when system enter DLPS)
;;;1200     * @param  None
;;;1201     * @retval None
;;;1202     */
;;;1203   __STATIC_INLINE void GDMA_DLPS_Enter(void)
;;;1204   {
;;;1205       SYSBLKCTRL->u_210.SOC_FUNC_EN |= SYSBLK_GDMA0_EN_Msk;
;;;1206       PERIPH->PERI_CLK_CTRL |= (SYSBLK_ACTCK_GDMA0_EN_Msk | SYSBLK_SLPCK_GDMA0_EN_Msk);
;;;1207   
;;;1208       GDMA_StoreReg[0] = GDMA_BASE->DmaCfgReg;
;;;1209       GDMA_StoreReg[1] = GDMA_BASE->ChEnReg;
;;;1210       GDMA_StoreReg[2] = GDMA_BASE->MASK_TFR;
;;;1211       GDMA_StoreReg[3] = GDMA_BASE->MASK_BLOCK;
;;;1212       GDMA_StoreReg[4] = GDMA_BASE->MASK_SRC_TRAN;
;;;1213       GDMA_StoreReg[5] = GDMA_BASE->MASK_DST_TRAN;
;;;1214       GDMA_StoreReg[6] = GDMA_BASE->MASK_ERR;
;;;1215   
;;;1216   #if USE_GDMACHANNEL0_DLPS
;;;1217       GDMAChannel0_StoreReg[0] = GDMA_Channel0->SAR;
;;;1218       GDMAChannel0_StoreReg[1] = GDMA_Channel0->DAR;
;;;1219       GDMAChannel0_StoreReg[2] = GDMA_Channel0->CTL_LOW;
;;;1220       GDMAChannel0_StoreReg[3] = GDMA_Channel0->CTL_HIGH;
;;;1221       GDMAChannel0_StoreReg[4] = GDMA_Channel0->CFG_LOW;
;;;1222       GDMAChannel0_StoreReg[5] = GDMA_Channel0->CFG_HIGH;
;;;1223   #endif
;;;1224   #if USE_GDMACHANNEL1_DLPS
;;;1225       GDMAChannel1_StoreReg[0] = GDMA_Channel1->SAR;
;;;1226       GDMAChannel1_StoreReg[1] = GDMA_Channel1->DAR;
;;;1227       GDMAChannel1_StoreReg[2] = GDMA_Channel1->CTL_LOW;
;;;1228       GDMAChannel1_StoreReg[3] = GDMA_Channel1->CTL_HIGH;
;;;1229       GDMAChannel1_StoreReg[4] = GDMA_Channel1->CFG_LOW;
;;;1230       GDMAChannel1_StoreReg[5] = GDMA_Channel1->CFG_HIGH;
;;;1231   #endif
;;;1232   #if USE_GDMACHANNEL2_DLPS
;;;1233       GDMAChannel2_StoreReg[0] = GDMA_Channel2->SAR;
;;;1234       GDMAChannel2_StoreReg[1] = GDMA_Channel2->DAR;
;;;1235       GDMAChannel2_StoreReg[2] = GDMA_Channel2->CTL_LOW;
;;;1236       GDMAChannel2_StoreReg[3] = GDMA_Channel2->CTL_HIGH;
;;;1237       GDMAChannel2_StoreReg[4] = GDMA_Channel2->CFG_LOW;
;;;1238       GDMAChannel2_StoreReg[5] = GDMA_Channel2->CFG_HIGH;
;;;1239   #endif
;;;1240   #if USE_GDMACHANNEL3_DLPS
;;;1241       GDMAChannel3_StoreReg[0] = GDMA_Channel3->SAR;
;;;1242       GDMAChannel3_StoreReg[1] = GDMA_Channel3->DAR;
;;;1243       GDMAChannel3_StoreReg[2] = GDMA_Channel3->CTL_LOW;
;;;1244       GDMAChannel3_StoreReg[3] = GDMA_Channel3->CTL_HIGH;
;;;1245       GDMAChannel3_StoreReg[4] = GDMA_Channel3->CFG_LOW;
;;;1246       GDMAChannel3_StoreReg[5] = GDMA_Channel3->CFG_HIGH;
;;;1247   #endif
;;;1248   #if USE_GDMACHANNEL4_DLPS
;;;1249       GDMAChannel4_StoreReg[0] = GDMA_Channel4->SAR;
;;;1250       GDMAChannel4_StoreReg[1] = GDMA_Channel4->DAR;
;;;1251       GDMAChannel4_StoreReg[2] = GDMA_Channel4->CTL_LOW;
;;;1252       GDMAChannel4_StoreReg[3] = GDMA_Channel4->CTL_HIGH;
;;;1253       GDMAChannel4_StoreReg[4] = GDMA_Channel4->CFG_LOW;
;;;1254       GDMAChannel4_StoreReg[5] = GDMA_Channel4->CFG_HIGH;
;;;1255   #endif
;;;1256   #if USE_GDMACHANNEL5_DLPS
;;;1257       GDMAChannel5_StoreReg[0] = GDMA_Channel5->SAR;
;;;1258       GDMAChannel5_StoreReg[1] = GDMA_Channel5->DAR;
;;;1259       GDMAChannel5_StoreReg[2] = GDMA_Channel5->CTL_LOW;
;;;1260       GDMAChannel5_StoreReg[3] = GDMA_Channel5->CTL_HIGH;
;;;1261       GDMAChannel5_StoreReg[4] = GDMA_Channel5->CFG_LOW;
;;;1262       GDMAChannel5_StoreReg[5] = GDMA_Channel5->CFG_HIGH;
;;;1263   #endif
;;;1264   }
;;;1265   
;;;1266   /**
;;;1267     * @brief  GDMA exit dlps callback function(Resume GDMA register values when system exit DLPS)
;;;1268     * @param  None
;;;1269     * @retval None
;;;1270     */
;;;1271   DATA_RAM_FUNCTION __STATIC_INLINE void GDMA_DLPS_Exit(void)
;;;1272   {
;;;1273       SYSBLKCTRL->u_210.SOC_FUNC_EN |= SYSBLK_GDMA0_EN_Msk;
;;;1274       PERIPH->PERI_CLK_CTRL |= (SYSBLK_ACTCK_GDMA0_EN_Msk | SYSBLK_SLPCK_GDMA0_EN_Msk);
;;;1275   
;;;1276       /* Enable GDMA in DmaCfgReg*/
;;;1277       GDMA_BASE->DmaCfgReg = GDMA_StoreReg[0];
;;;1278   
;;;1279       /*----------clear pending all interrupts of GDMA channel-----------*/
;;;1280       GDMA_BASE->CLEAR_TFR = 0xff;
;;;1281       GDMA_BASE->CLEAR_BLOCK = 0xff;
;;;1282       GDMA_BASE->CLEAR_DST_TRAN = 0xff;
;;;1283       GDMA_BASE->CLEAR_SRC_TRAN = 0xff;
;;;1284       GDMA_BASE->CLEAR_ERR = 0xff;
;;;1285   
;;;1286       /*--------------------mask interrupt-------- -----------------*/
;;;1287       GDMA_BASE->MASK_TFR = (GDMA_StoreReg[2] | ((GDMA_StoreReg[2] & 0xff) << 8));
;;;1288       GDMA_BASE->MASK_BLOCK = (GDMA_StoreReg[3] | ((GDMA_StoreReg[3] & 0xff) << 8));
;;;1289       GDMA_BASE->MASK_SRC_TRAN = (GDMA_StoreReg[4] | ((GDMA_StoreReg[4] & 0xff) << 8));
;;;1290       GDMA_BASE->MASK_DST_TRAN = (GDMA_StoreReg[5] | ((GDMA_StoreReg[5] & 0xff) << 8));
;;;1291       GDMA_BASE->MASK_ERR = (GDMA_StoreReg[6] | ((GDMA_StoreReg[6] & 0xff) << 8));
;;;1292   
;;;1293   #if USE_GDMACHANNEL0_DLPS
;;;1294       GDMA_Channel0->SAR      = GDMAChannel0_StoreReg[0];
;;;1295       GDMA_Channel0->DAR      = GDMAChannel0_StoreReg[1];
;;;1296       GDMA_Channel0->CTL_LOW  = GDMAChannel0_StoreReg[2];
;;;1297       GDMA_Channel0->CTL_HIGH = GDMAChannel0_StoreReg[3];
;;;1298       GDMA_Channel0->CFG_LOW  = GDMAChannel0_StoreReg[4];
;;;1299       GDMA_Channel0->CFG_HIGH = GDMAChannel0_StoreReg[5];
;;;1300   #endif
;;;1301   #if USE_GDMACHANNEL1_DLPS
;;;1302       GDMA_Channel1->SAR      = GDMAChannel1_StoreReg[0];
;;;1303       GDMA_Channel1->DAR      = GDMAChannel1_StoreReg[1];
;;;1304       GDMA_Channel1->CTL_LOW  = GDMAChannel1_StoreReg[2];
;;;1305       GDMA_Channel1->CTL_HIGH = GDMAChannel1_StoreReg[3];
;;;1306       GDMA_Channel1->CFG_LOW  = GDMAChannel1_StoreReg[4];
;;;1307       GDMA_Channel1->CFG_HIGH = GDMAChannel1_StoreReg[5];
;;;1308   #endif
;;;1309   #if USE_GDMACHANNEL2_DLPS
;;;1310       GDMA_Channel2->SAR      = GDMAChannel2_StoreReg[0];
;;;1311       GDMA_Channel2->DAR      = GDMAChannel2_StoreReg[1];
;;;1312       GDMA_Channel2->CTL_LOW  = GDMAChannel2_StoreReg[2];
;;;1313       GDMA_Channel2->CTL_HIGH = GDMAChannel2_StoreReg[3];
;;;1314       GDMA_Channel2->CFG_LOW  = GDMAChannel2_StoreReg[4];
;;;1315       GDMA_Channel2->CFG_HIGH = GDMAChannel2_StoreReg[5];
;;;1316   #endif
;;;1317   #if USE_GDMACHANNEL3_DLPS
;;;1318       GDMA_Channel3->SAR      = GDMAChannel3_StoreReg[0];
;;;1319       GDMA_Channel3->DAR      = GDMAChannel3_StoreReg[1];
;;;1320       GDMA_Channel3->CTL_LOW  = GDMAChannel3_StoreReg[2];
;;;1321       GDMA_Channel3->CTL_HIGH = GDMAChannel3_StoreReg[3];
;;;1322       GDMA_Channel3->CFG_LOW  = GDMAChannel3_StoreReg[4];
;;;1323       GDMA_Channel3->CFG_HIGH = GDMAChannel3_StoreReg[5];
;;;1324   #endif
;;;1325   #if USE_GDMACHANNEL4_DLPS
;;;1326       GDMA_Channel4->SAR      = GDMAChannel4_StoreReg[0];
;;;1327       GDMA_Channel4->DAR      = GDMAChannel4_StoreReg[1];
;;;1328       GDMA_Channel4->CTL_LOW  = GDMAChannel4_StoreReg[2];
;;;1329       GDMA_Channel4->CTL_HIGH = GDMAChannel4_StoreReg[3];
;;;1330       GDMA_Channel4->CFG_LOW  = GDMAChannel4_StoreReg[4];
;;;1331       GDMA_Channel4->CFG_HIGH = GDMAChannel4_StoreReg[5];
;;;1332   #endif
;;;1333   #if USE_GDMACHANNEL5_DLPS
;;;1334       GDMA_Channel5->SAR      = GDMAChannel5_StoreReg[0];
;;;1335       GDMA_Channel5->DAR      = GDMAChannel5_StoreReg[1];
;;;1336       GDMA_Channel5->CTL_LOW  = GDMAChannel5_StoreReg[2];
;;;1337       GDMA_Channel5->CTL_HIGH = GDMAChannel5_StoreReg[3];
;;;1338       GDMA_Channel5->CFG_LOW  = GDMAChannel5_StoreReg[4];
;;;1339       GDMA_Channel5->CFG_HIGH = GDMAChannel5_StoreReg[5];
;;;1340   #endif
;;;1341   
;;;1342       /*----------clear pending all interrupts of GDMA channel before enable channel-----------*/
;;;1343       GDMA_BASE->CLEAR_TFR = 0x3f;
;;;1344       GDMA_BASE->CLEAR_BLOCK = 0x3f;
;;;1345       GDMA_BASE->CLEAR_DST_TRAN = 0x3f;
;;;1346       GDMA_BASE->CLEAR_SRC_TRAN = 0x3f;
;;;1347       GDMA_BASE->CLEAR_ERR = 0x3f;
;;;1348   
;;;1349       /* Enable the selected DMA Channelx */
;;;1350   //    GDMA_BASE->ChEnReg = GDMA_StoreReg[1];
;;;1351   }
;;;1352   #endif
;;;1353   
;;;1354   /********************************************** ********************************************************/
;;;1355   /**************************************** [LCD DLPS] ************************************************/
;;;1356   /*******************************************************************************************************/
;;;1357   /*******************************************************************************************************/
;;;1358   #if USE_LCD_DLPS
;;;1359   
;;;1360   uint32_t LCD_StoreReg[5];
;;;1361   
;;;1362   /**
;;;1363     * @brief  LCD enter dlps callback function(Save LCD register values when system enter DLPS)
;;;1364     * @param  None
;;;1365     * @retval None
;;;1366     */
;;;1367   __STATIC_INLINE void LCD_DLPS_Enter(void)
;;;1368   {
;;;1369       /* Enable LCD 8080 interface controller function */
;;;1370       PERIPH->PERI_FUNC0_EN |= BIT(25);
;;;1371       /* Enable LCD 8080 interface controller clock */
;;;1372       PERIPH->PERI_CLK_CTRL1 |= BIT(28) | BIT(29);
;;;1373   
;;;1374       LCD_StoreReg[0] = *((volatile uint32_t *)0x400002A8UL) & (0x03 << 28);
;;;1375       LCD_StoreReg[1] = LCD->IMR;
;;;1376       LCD_StoreReg[2] = LCD->CTRL0;
;;;1377       LCD_StoreReg[3] = LCD->CTRL1;
;;;1378       LCD_StoreReg[4] = LCD->CFG;
;;;1379   
;;;1380   }
;;;1381   
;;;1382   /**
;;;1383     * @brief  LCD exit dlps callback function(Resume LCD register values when system exit DLPS)
;;;1384     * @param  None
;;;1385     * @retval None
;;;1386     */
;;;1387   DATA_RAM_FUNCTION __STATIC_INLINE void LCD_DLPS_Exit(void)
;;;1388   {
;;;1389       /* Enable LCD 8080 interface controller function */
;;;1390       PERIPH->PERI_FUNC0_EN |= BIT(25);
;;;1391       /* Enable LCD 8080 interface controller clock */
;;;1392       PERIPH->PERI_CLK_CTRL1 |= BIT(28) | BIT(29);
;;;1393   
;;;1394       /* Restore Dedicated SDIO pin option */
;;;1395       *((volatile uint32_t *)0x400002A8UL) &= ~(0x03 << 28);
;;;1396       *((volatile uint32_t *)0x400002A8UL) |= LCD_StoreReg[0];
;;;1397   
;;;1398       /* Initialize LCD */
;;;1399   
;;;1400       LCD->IMR    = LCD_StoreReg[1];
;;;1401       LCD->CTRL1  = LCD_StoreReg[3];
;;;1402       LCD->CFG    = LCD_StoreReg[4];
;;;1403       LCD->CTRL0  = LCD_StoreReg[2];
;;;1404   }
;;;1405   #endif
;;;1406   
;;;1407   /********************************************** ********************************************************/
;;;1408   /**************************************** [I2S0 DLPS] **************************************************/
;;;1409   /*******************************************************************************************************/
;;;1410   /*******************************************************************************************************/
;;;1411   #if USE_I2S0_DLPS
;;;1412   
;;;1413   uint32_t I2S0_StoreReg[4];
;;;1414   
;;;1415   /**
;;;1416     * @brief  I2S0 enter dlps callback function(Save I2S0 register values when system enter DLPS)
;;;1417     * @param  None
;;;1418     * @retval None
;;;1419     */
;;;1420   __STATIC_INLINE void I2S0_DLPS_Enter(void)
;;;1421   {
;;;1422       PERIPH->PERI_BD_FUNC0_EN |= BIT(1) | BIT(5) | BIT(8);
;;;1423   
;;;1424       I2S0_StoreReg[0] = I2S0->BCLK_DIV;
;;;1425       I2S0_StoreReg[1] = I2S0->CTRL0;
;;;1426       I2S0_StoreReg[2] = I2S0->CTRL1;
;;;1427       I2S0_StoreReg[3] = I2S0->DMA_TRDLR;
;;;1428   }
;;;1429   
;;;1430   /**
;;;1431     * @brief  I2S0 exit dlps callback function(Resume I2S0 register values when system exit DLPS)
;;;1432     * @param  None
;;;1433     * @retval None
;;;1434     */
;;;1435   DATA_RAM_FUNCTION __STATIC_INLINE void I2S0_DLPS_Exit(void)
;;;1436   {
;;;1437       PERIPH->PERI_BD_FUNC0_EN |= BIT(1) | BIT(5) | BIT(8);
;;;1438   
;;;1439       /* Reset I2S0 module */
;;;1440       I2S0->CTRL0 |= 1 << 0;
;;;1441       I2S0->CTRL0 &= ~(1 << 0);
;;;1442   
;;;1443       /* Initialize I2S0 */
;;;1444       I2S0->BCLK_DIV  = I2S0_StoreReg[0];
;;;1445       I2S0->CTRL1     = I2S0_StoreReg[2];
;;;1446       I2S0->DMA_TRDLR = I2S0_StoreReg[3];
;;;1447       I2S0->CTRL0     = I2S0_StoreReg[1];
;;;1448   }
;;;1449   #endif
;;;1450   
;;;1451   /********************************************** ********************************************************/
;;;1452   /**************************************** [I2S1 DLPS] **************************************************/
;;;1453   /*******************************************************************************************************/
;;;1454   /*******************************************************************************************************/
;;;1455   #if USE_I2S1_DLPS
;;;1456   
;;;1457   uint32_t I2S1_StoreReg[4];
;;;1458   
;;;1459   /**
;;;1460     * @brief  I2S1 enter dlps callback function(Save I2S1 register values when system enter DLPS)
;;;1461     * @param  None
;;;1462     * @retval None
;;;1463     */
;;;1464   __STATIC_INLINE void I2S1_DLPS_Enter(void)
;;;1465   {
;;;1466       PERIPH->PERI_BD_FUNC0_EN |= BIT(2) | BIT(6) | BIT(8);
;;;1467   
;;;1468       I2S1_StoreReg[0] = I2S1->BCLK_DIV;
;;;1469       I2S1_StoreReg[1] = I2S1->CTRL0;
;;;1470       I2S1_StoreReg[2] = I2S1->CTRL1;
;;;1471       I2S1_StoreReg[3] = I2S1->DMA_TRDLR;
;;;1472   }
;;;1473   
;;;1474   /**
;;;1475     * @brief  I2S1 exit dlps callback function(Resume I2S1 register values when system exit DLPS)
;;;1476     * @param  None
;;;1477     * @retval None
;;;1478     */
;;;1479   DATA_RAM_FUNCTION __STATIC_INLINE void I2S1_DLPS_Exit(void)
;;;1480   {
;;;1481       PERIPH->PERI_BD_FUNC0_EN |= BIT(2) | BIT(6) | BIT(8);
;;;1482   
;;;1483       /* Reset I2S1 module */
;;;1484       I2S1->CTRL0 |= 1 << 0;
;;;1485       I2S1->CTRL0 &= ~(1 << 0);
;;;1486   
;;;1487       /* Initialize I2S1 */
;;;1488       I2S1->BCLK_DIV  = I2S1_StoreReg[0];
;;;1489       I2S1->CTRL1     = I2S1_StoreReg[2];
;;;1490       I2S1->DMA_TRDLR = I2S1_StoreReg[3];
;;;1491       I2S1->CTRL0     = I2S1_StoreReg[1];
;;;1492   }
;;;1493   #endif
;;;1494   
;;;1495   /********************************************** ********************************************************/
;;;1496   /**************************************** [CODEC DLPS] ************************************************/
;;;1497   /*******************************************************************************************************/
;;;1498   /*******************************************************************************************************/
;;;1499   #if USE_CODEC_DLPS
;;;1500   
;;;1501   uint32_t CODEC_StoreReg[7];
;;;1502   
;;;1503   /**
;;;1504     * @brief  CODEC enter dlps callback function(Save CODEC register values when system enter DLPS)
;;;1505     * @param  None
;;;1506     * @retval None
;;;1507     */
;;;1508   __STATIC_INLINE void CODEC_DLPS_Enter(void)
;;;1509   {
;;;1510       /* Enable codec function and clock */
;;;1511       PERIPH->PERI_BD_FUNC0_EN |= (1 << 0) | (1 << 4);
;;;1512   
;;;1513       CODEC_StoreReg[0] = CODEC->CR0;
;;;1514       CODEC_StoreReg[1] = CODEC->CR1;
;;;1515       CODEC_StoreReg[2] = CODEC->CR2;
;;;1516       CODEC_StoreReg[3] = CODEC->CLK_CTRL;
;;;1517       CODEC_StoreReg[4] = CODEC->I2S_CTRL;
;;;1518       CODEC_StoreReg[5] = CODEC->ADC_CTRL;
;;;1519       CODEC_StoreReg[6] = CODEC->DAC_CTRL;
;;;1520   }
;;;1521   
;;;1522   /**
;;;1523     * @brief  CODEC exit dlps callback function(Resume CODEC register values when system exit DLPS)
;;;1524     * @param  None
;;;1525     * @retval None
;;;1526     */
;;;1527   DATA_RAM_FUNCTION __STATIC_INLINE void CODEC_DLPS_Exit(void)
;;;1528   {
;;;1529       /* Enable codec function and clock */
;;;1530       PERIPH->PERI_BD_FUNC0_EN |= (1 << 0) | (1 << 4);
;;;1531   
;;;1532       /* Initialize CODEC */
;;;1533       if ((CODEC_StoreReg[3] & 0x900) == 0x900)
;;;1534       {
;;;1535           /* Configure AMIC parameters */
;;;1536           CODEC->CR0 = CODEC_StoreReg[0];
;;;1537           CODEC->CR1 = CODEC_StoreReg[1];
;;;1538           CODEC->CR2 = CODEC_StoreReg[2];
;;;1539       }
;;;1540   
;;;1541       /*  Reset audio digital IP */
;;;1542       CODEC->AUDIO_CTRL = 0;
;;;1543       CODEC->AUDIO_CTRL = 1;
;;;1544   
;;;1545       CODEC->CLK_CTRL = CODEC_StoreReg[3];
;;;1546       CODEC->I2S_CTRL = CODEC_StoreReg[4];
;;;1547       CODEC->ADC_CTRL = CODEC_StoreReg[5];
;;;1548       CODEC->DAC_CTRL = CODEC_StoreReg[6];
;;;1549   }
;;;1550   #endif
;;;1551   
;;;1552   /********************************************** ********************************************************/
;;;1553   /**************************************** [CODEC_EQ1 DLPS] ************************************************/
;;;1554   /*******************************************************************************************************/
;;;1555   /*******************************************************************************************************/
;;;1556   #if USE_CODEC_EQ1_DLPS
;;;1557   
;;;1558   uint32_t CODEC_EQ1_StoreReg[5];
;;;1559   
;;;1560   /**
;;;1561     * @brief  CODEC_EQ1 enter dlps callback function(Save CODEC_EQ1 register values when system enter DLPS)
;;;1562     * @param  None
;;;1563     * @retval None
;;;1564     */
;;;1565   __STATIC_INLINE void CODEC_EQ1_DLPS_Enter(void)
;;;1566   {
;;;1567       /* Enable codec function and clock */
;;;1568       PERIPH->PERI_BD_FUNC0_EN |= (1 << 0) | (1 << 4);
;;;1569   
;;;1570       CODEC_EQ1_StoreReg[0] = CODEC_EQ1->EQ_H0;
;;;1571       CODEC_EQ1_StoreReg[1] = CODEC_EQ1->EQ_B1;
;;;1572       CODEC_EQ1_StoreReg[2] = CODEC_EQ1->EQ_B2;
;;;1573       CODEC_EQ1_StoreReg[3] = CODEC_EQ1->EQ_A1;
;;;1574       CODEC_EQ1_StoreReg[4] = CODEC_EQ1->EQ_A2;
;;;1575   }
;;;1576   
;;;1577   /**
;;;1578     * @brief  CODEC_EQ1 exit dlps callback function(Resume CODEC_EQ1 register values when system exit DLPS)
;;;1579     * @param  None
;;;1580     * @retval None
;;;1581     */
;;;1582   DATA_RAM_FUNCTION __STATIC_INLINE void CODEC_EQ1_DLPS_Exit(void)
;;;1583   {
;;;1584       /* Enable codec function and clock */
;;;1585       PERIPH->PERI_BD_FUNC0_EN |= (1 << 0) | (1 << 4);
;;;1586   
;;;1587       CODEC_EQ1->EQ_H0 = CODEC_EQ1_StoreReg[0];
;;;1588       CODEC_EQ1->EQ_B1 = CODEC_EQ1_StoreReg[1];
;;;1589       CODEC_EQ1->EQ_B2 = CODEC_EQ1_StoreReg[2];
;;;1590       CODEC_EQ1->EQ_A1 = CODEC_EQ1_StoreReg[3];
;;;1591       CODEC_EQ1->EQ_A2 = CODEC_EQ1_StoreReg[4];
;;;1592   }
;;;1593   #endif
;;;1594   
;;;1595   /********************************************** ********************************************************/
;;;1596   /**************************************** [CODEC_EQ2 DLPS] ************************************************/
;;;1597   /*******************************************************************************************************/
;;;1598   /*******************************************************************************************************/
;;;1599   #if USE_CODEC_EQ2_DLPS
;;;1600   
;;;1601   uint32_t CODEC_EQ2_StoreReg[5];
;;;1602   
;;;1603   /**
;;;1604     * @brief  CODEC_EQ2 enter dlps callback function(Save CODEC_EQ2 register values when system enter DLPS)
;;;1605     * @param  None
;;;1606     * @retval None
;;;1607     */
;;;1608   __STATIC_INLINE void CODEC_EQ2_DLPS_Enter(void)
;;;1609   {
;;;1610       /* Enable codec function and clock */
;;;1611       PERIPH->PERI_BD_FUNC0_EN |= (1 << 0) | (1 << 4);
;;;1612   
;;;1613       CODEC_EQ2_StoreReg[0] = CODEC_EQ2->EQ_H0;
;;;1614       CODEC_EQ2_StoreReg[1] = CODEC_EQ2->EQ_B1;
;;;1615       CODEC_EQ2_StoreReg[2] = CODEC_EQ2->EQ_B2;
;;;1616       CODEC_EQ2_StoreReg[3] = CODEC_EQ2->EQ_A1;
;;;1617       CODEC_EQ2_StoreReg[4] = CODEC_EQ2->EQ_A2;
;;;1618   }
;;;1619   
;;;1620   /**
;;;1621     * @brief  CODEC_EQ2 exit dlps callback function(Resume CODEC_EQ2 register values when system exit DLPS)
;;;1622     * @param  None
;;;1623     * @retval None
;;;1624     */
;;;1625   DATA_RAM_FUNCTION __STATIC_INLINE void CODEC_EQ2_DLPS_Exit(void)
;;;1626   {
;;;1627       /* Enable codec function and clock */
;;;1628       PERIPH->PERI_BD_FUNC0_EN |= (1 << 0) | (1 << 4);
;;;1629   
;;;1630       CODEC_EQ2->EQ_H0 = CODEC_EQ2_StoreReg[0];
;;;1631       CODEC_EQ2->EQ_B1 = CODEC_EQ2_StoreReg[1];
;;;1632       CODEC_EQ2->EQ_B2 = CODEC_EQ2_StoreReg[2];
;;;1633       CODEC_EQ2->EQ_A1 = CODEC_EQ2_StoreReg[3];
;;;1634       CODEC_EQ2->EQ_A2 = CODEC_EQ2_StoreReg[4];
;;;1635   }
;;;1636   #endif
;;;1637   
;;;1638   /********************************************** ********************************************************/
;;;1639   /**************************************** [CODEC_EQ3 DLPS] ************************************************/
;;;1640   /*******************************************************************************************************/
;;;1641   /*******************************************************************************************************/
;;;1642   #if USE_CODEC_EQ3_DLPS
;;;1643   
;;;1644   uint32_t CODEC_EQ3_StoreReg[5];
;;;1645   
;;;1646   /**
;;;1647     * @brief  CODEC_EQ3 enter dlps callback function(Save CODEC_EQ3 register values when system enter DLPS)
;;;1648     * @param  None
;;;1649     * @retval None
;;;1650     */
;;;1651   __STATIC_INLINE void CODEC_EQ3_DLPS_Enter(void)
;;;1652   {
;;;1653       /* Enable codec function and clock */
;;;1654       PERIPH->PERI_BD_FUNC0_EN |= (1 << 0) | (1 << 4);
;;;1655   
;;;1656       CODEC_EQ3_StoreReg[0] = CODEC_EQ3->EQ_H0;
;;;1657       CODEC_EQ3_StoreReg[1] = CODEC_EQ3->EQ_B1;
;;;1658       CODEC_EQ3_StoreReg[2] = CODEC_EQ3->EQ_B2;
;;;1659       CODEC_EQ3_StoreReg[3] = CODEC_EQ3->EQ_A1;
;;;1660       CODEC_EQ3_StoreReg[4] = CODEC_EQ3->EQ_A2;
;;;1661   }
;;;1662   
;;;1663   /**
;;;1664     * @brief  CODEC_EQ3 exit dlps callback function(Resume CODEC_EQ3 register values when system exit DLPS)
;;;1665     * @param  None
;;;1666     * @retval None
;;;1667     */
;;;1668   DATA_RAM_FUNCTION __STATIC_INLINE void CODEC_EQ3_DLPS_Exit(void)
;;;1669   {
;;;1670       /* Enable codec function and clock */
;;;1671       PERIPH->PERI_BD_FUNC0_EN |= (1 << 0) | (1 << 4);
;;;1672   
;;;1673       CODEC_EQ3->EQ_H0 = CODEC_EQ3_StoreReg[0];
;;;1674       CODEC_EQ3->EQ_B1 = CODEC_EQ3_StoreReg[1];
;;;1675       CODEC_EQ3->EQ_B2 = CODEC_EQ3_StoreReg[2];
;;;1676       CODEC_EQ3->EQ_A1 = CODEC_EQ3_StoreReg[3];
;;;1677       CODEC_EQ3->EQ_A2 = CODEC_EQ3_StoreReg[4];
;;;1678   }
;;;1679   #endif
;;;1680   
;;;1681   /********************************************** ********************************************************/
;;;1682   /**************************************** [CODEC_EQ4 DLPS] ************************************************/
;;;1683   /*******************************************************************************************************/
;;;1684   /*******************************************************************************************************/
;;;1685   #if USE_CODEC_EQ4_DLPS
;;;1686   
;;;1687   uint32_t CODEC_EQ4_StoreReg[5];
;;;1688   
;;;1689   /**
;;;1690     * @brief  CODEC_EQ4 enter dlps callback function(Save CODEC_EQ4 register values when system enter DLPS)
;;;1691     * @param  None
;;;1692     * @retval None
;;;1693     */
;;;1694   __STATIC_INLINE void CODEC_EQ4_DLPS_Enter(void)
;;;1695   {
;;;1696       /* Enable codec function and clock */
;;;1697       PERIPH->PERI_BD_FUNC0_EN |= (1 << 0) | (1 << 4);
;;;1698   
;;;1699       CODEC_EQ4_StoreReg[0] = CODEC_EQ4->EQ_H0;
;;;1700       CODEC_EQ4_StoreReg[1] = CODEC_EQ4->EQ_B1;
;;;1701       CODEC_EQ4_StoreReg[2] = CODEC_EQ4->EQ_B2;
;;;1702       CODEC_EQ4_StoreReg[3] = CODEC_EQ4->EQ_A1;
;;;1703       CODEC_EQ4_StoreReg[4] = CODEC_EQ4->EQ_A2;
;;;1704   }
;;;1705   
;;;1706   /**
;;;1707     * @brief  CODEC_EQ4 exit dlps callback function(Resume CODEC_EQ4 register values when system exit DLPS)
;;;1708     * @param  None
;;;1709     * @retval None
;;;1710     */
;;;1711   DATA_RAM_FUNCTION __STATIC_INLINE void CODEC_EQ4_DLPS_Exit(void)
;;;1712   {
;;;1713       /* Enable codec function and clock */
;;;1714       PERIPH->PERI_BD_FUNC0_EN |= (1 << 0) | (1 << 4);
;;;1715   
;;;1716       CODEC_EQ4->EQ_H0 = CODEC_EQ4_StoreReg[0];
;;;1717       CODEC_EQ4->EQ_B1 = CODEC_EQ4_StoreReg[1];
;;;1718       CODEC_EQ4->EQ_B2 = CODEC_EQ4_StoreReg[2];
;;;1719       CODEC_EQ4->EQ_A1 = CODEC_EQ4_StoreReg[3];
;;;1720       CODEC_EQ4->EQ_A2 = CODEC_EQ4_StoreReg[4];
;;;1721   }
;;;1722   #endif
;;;1723   
;;;1724   /********************************************** ********************************************************/
;;;1725   /**************************************** [CODEC_EQ5 DLPS] ************************************************/
;;;1726   /*******************************************************************************************************/
;;;1727   /*******************************************************************************************************/
;;;1728   #if USE_CODEC_EQ5_DLPS
;;;1729   
;;;1730   uint32_t CODEC_EQ5_StoreReg[5];
;;;1731   
;;;1732   /**
;;;1733     * @brief  CODEC_EQ5 enter dlps callback function(Save CODEC_EQ5 register values when system enter DLPS)
;;;1734     * @param  None
;;;1735     * @retval None
;;;1736     */
;;;1737   __STATIC_INLINE void CODEC_EQ5_DLPS_Enter(void)
;;;1738   {
;;;1739       /* Enable codec function and clock */
;;;1740       PERIPH->PERI_BD_FUNC0_EN |= (1 << 0) | (1 << 4);
;;;1741   
;;;1742       CODEC_EQ5_StoreReg[0] = CODEC_EQ5->EQ_H0;
;;;1743       CODEC_EQ5_StoreReg[1] = CODEC_EQ5->EQ_B1;
;;;1744       CODEC_EQ5_StoreReg[2] = CODEC_EQ5->EQ_B2;
;;;1745       CODEC_EQ5_StoreReg[3] = CODEC_EQ5->EQ_A1;
;;;1746       CODEC_EQ5_StoreReg[4] = CODEC_EQ5->EQ_A2;
;;;1747   }
;;;1748   
;;;1749   /**
;;;1750     * @brief  CODEC_EQ5 exit dlps callback function(Resume CODEC_EQ5 register values when system exit DLPS)
;;;1751     * @param  None
;;;1752     * @retval None
;;;1753     */
;;;1754   DATA_RAM_FUNCTION __STATIC_INLINE void CODEC_EQ5_DLPS_Exit(void)
;;;1755   {
;;;1756       /* Enable codec function and clock */
;;;1757       PERIPH->PERI_BD_FUNC0_EN |= (1 << 0) | (1 << 4);
;;;1758   
;;;1759       CODEC_EQ5->EQ_H0 = CODEC_EQ5_StoreReg[0];
;;;1760       CODEC_EQ5->EQ_B1 = CODEC_EQ5_StoreReg[1];
;;;1761       CODEC_EQ5->EQ_B2 = CODEC_EQ5_StoreReg[2];
;;;1762       CODEC_EQ5->EQ_A1 = CODEC_EQ5_StoreReg[3];
;;;1763       CODEC_EQ5->EQ_A2 = CODEC_EQ5_StoreReg[4];
;;;1764   }
;;;1765   #endif
;;;1766   
;;;1767   /**
;;;1768     * @brief  Set Log and SWD pins to SW mode.
;;;1769     * @param  void.
;;;1770     * @retval void.
;;;1771     */
;;;1772   __STATIC_INLINE void Log_SWD_DLPS_Enter(void)
;;;1773   {
;;;1774       if (OTP->SWD_ENABLE)
;;;1775       {
;;;1776           Pad_Config(P1_0, PAD_SW_MODE, PAD_IS_PWRON, PAD_PULL_DOWN, PAD_OUT_DISABLE, PAD_OUT_LOW);
;;;1777           Pad_Config(P1_1, PAD_SW_MODE, PAD_IS_PWRON, PAD_PULL_DOWN, PAD_OUT_DISABLE, PAD_OUT_LOW);
;;;1778       }
;;;1779   
;;;1780       Pad_Config(OTP->logPin, PAD_SW_MODE, PAD_IS_PWRON, PAD_PULL_UP, PAD_OUT_DISABLE, PAD_OUT_LOW);
;;;1781   
;;;1782   }
;;;1783   
;;;1784   /**
;;;1785     * @brief  Set Log and SWD pins to PINMUX mode.
;;;1786     * @param  void.
;;;1787     * @retval void.
;;;1788     */
;;;1789   DATA_RAM_FUNCTION __STATIC_INLINE void Log_SWD_DLPS_Exit(void)
;;;1790   {
;;;1791       Pad_Config(OTP->logPin, PAD_PINMUX_MODE, PAD_IS_PWRON, PAD_PULL_NONE, PAD_OUT_DISABLE, PAD_OUT_LOW);
        0x00207d5e:    2400        .$      MOVS     r4,#0
        0x00207d60:    f44f1500    O...    MOV      r5,#0x200000
        0x00207d64:    9400        ..      STR      r4,[sp,#0]
        0x00207d66:    9401        ..      STR      r4,[sp,#4]
        0x00207d68:    f8950398    ....    LDRB     r0,[r5,#0x398]
        0x00207d6c:    2201        ."      MOVS     r2,#1
        0x00207d6e:    f000003f    ..?.    AND      r0,r0,#0x3f
        0x00207d72:    4623        #F      MOV      r3,r4
        0x00207d74:    4611        .F      MOV      r1,r2
        0x00207d76:    f5057566    ..fu    ADD      r5,r5,#0x398
        0x00207d7a:    f609fb2f    ../.    BL       Pad_Config ; 0x113dc
;;;1792   
;;;1793       if (OTP->SWD_ENABLE)
        0x00207d7e:    f8150c64    ..d.    LDRB     r0,[r5,#-0x64]
        0x00207d82:    07c0        ..      LSLS     r0,r0,#31
        0x00207d84:    d00f        ..      BEQ      0x207da6 ; DLPS_IO_ExitDlpsCb + 102
;;;1794       {
;;;1795           Pad_Config(P1_0, PAD_PINMUX_MODE, PAD_IS_PWRON, PAD_PULL_UP, PAD_OUT_DISABLE, PAD_OUT_LOW);
        0x00207d86:    2301        .#      MOVS     r3,#1
        0x00207d88:    9400        ..      STR      r4,[sp,#0]
        0x00207d8a:    461a        .F      MOV      r2,r3
        0x00207d8c:    4619        .F      MOV      r1,r3
        0x00207d8e:    2008        .       MOVS     r0,#8
        0x00207d90:    9401        ..      STR      r4,[sp,#4]
        0x00207d92:    f609fb23    ..#.    BL       Pad_Config ; 0x113dc
;;;1796           Pad_Config(P1_1, PAD_PINMUX_MODE, PAD_IS_PWRON, PAD_PULL_UP, PAD_OUT_DISABLE, PAD_OUT_LOW);
        0x00207d96:    2301        .#      MOVS     r3,#1
        0x00207d98:    9400        ..      STR      r4,[sp,#0]
        0x00207d9a:    461a        .F      MOV      r2,r3
        0x00207d9c:    4619        .F      MOV      r1,r3
        0x00207d9e:    2009        .       MOVS     r0,#9
        0x00207da0:    9401        ..      STR      r4,[sp,#4]
        0x00207da2:    f609fb1b    ....    BL       Pad_Config ; 0x113dc
;;;1797       }
;;;1798   }
;;;1799   
;;;1800   /********************************************** ********************************************************/
;;;1801   /*********************************** [USER Exit DLPS CALLBACK FUCN] *****************************************/
;;;1802   /*******************************************************************************************************/
;;;1803   /*******************************************************************************************************/
;;;1804   #if USE_USER_DEFINE_DLPS_EXIT_CB
;;;1805   
;;;1806   DLPS_IO_ExitDlpsCB User_IO_ExitDlpsCB = NULL;
;;;1807   
;;;1808   #endif /* USE_USER_DEFINE_DLPS_EXIT_CB */
;;;1809   
;;;1810   /********************************************** ********************************************************/
;;;1811   /*********************************** [USER Enter DLPS CALLBACK FUCN] *****************************************/
;;;1812   /*******************************************************************************************************/
;;;1813   /*******************************************************************************************************/
;;;1814   #if USE_USER_DEFINE_DLPS_ENTER_CB
;;;1815   
;;;1816   DLPS_IO_EnterDlpsCB User_IO_EnterDlpsCB = NULL;
;;;1817   
;;;1818   #endif /* USE_USER_DEFINE_DLPS_EXIT_CB */
;;;1819   
;;;1820   /********************************************** ********************************************************/
;;;1821   /*********************************** [Enter & Exit DLPS CALLBACK FUNC] *********************************/
;;;1822   /*******************************************************************************************************/
;;;1823   /*******************************************************************************************************/
;;;1824   #if USE_IO_DRIVER_DLPS
;;;1825   
;;;1826   /**
;;;1827     * @brief  IO enter dlps callback function
;;;1828     * @param  None
;;;1829     * @retval None
;;;1830     */
;;;1831   void DLPS_IO_EnterDlpsCb(void)
;;;1832   {
;;;1833       /* low stack do it instead */
;;;1834   //    Pad_ClearAllWakeupINT();
;;;1835   
;;;1836   //    DBG_DIRECT("DLPS_IO_EnterDlpsCb");
;;;1837       NVIC_DisableIRQ(System_IRQn);
;;;1838       CPU_DLPS_Enter();
;;;1839   
;;;1840       Pinmux_DLPS_Enter();
;;;1841   
;;;1842   #if USE_USER_DEFINE_DLPS_ENTER_CB
;;;1843       if (User_IO_EnterDlpsCB)
;;;1844       {
;;;1845           User_IO_EnterDlpsCB();
;;;1846       }
;;;1847   #endif
;;;1848   
;;;1849   #if USE_I2C0_DLPS
;;;1850       I2C0_DLPS_Enter();
;;;1851   #endif
;;;1852   
;;;1853   #if USE_I2C1_DLPS
;;;1854       I2C1_DLPS_Enter();
;;;1855   #endif
;;;1856   
;;;1857   #if USE_TIM_DLPS
;;;1858       TIM_DLPS_Enter();
;;;1859   #endif
;;;1860   
;;;1861   #if USE_QDECODER_DLPS
;;;1862       QuadDecoder_DLPS_Enter();
;;;1863   #endif
;;;1864   
;;;1865   #if USE_IR_DLPS
;;;1866       IR_DLPS_Enter();
;;;1867   #endif
;;;1868   
;;;1869   #if USE_UART_DLPS
;;;1870       UART_DLPS_Enter();
;;;1871   #endif
;;;1872   
;;;1873   #if USE_UART1_DLPS
;;;1874       UART1_DLPS_Enter();
;;;1875   #endif
;;;1876   
;;;1877   #if USE_UART2_DLPS
;;;1878       UART2_DLPS_Enter();
;;;1879   #endif
;;;1880   
;;;1881   #if USE_SPI0_DLPS
;;;1882       SPI0_DLPS_Enter();
;;;1883   #endif
;;;1884   
;;;1885   #if USE_SPI1_DLPS
;;;1886       SPI1_DLPS_Enter();
;;;1887   #endif
;;;1888   
;;;1889   #if USE_SPI2W_DLPS
;;;1890       SPI2W_DLPS_Enter();
;;;1891   #endif
;;;1892   
;;;1893   #if USE_KEYSCAN_DLPS
;;;1894       KeyScan_DLPS_Enter();
;;;1895   #endif
;;;1896   
;;;1897   #if USE_GPIO_DLPS
;;;1898       GPIO_DLPS_Enter();
;;;1899   #endif
;;;1900   
;;;1901   #if USE_ADC_DLPS
;;;1902       ADC_DLPS_Enter();
;;;1903   #endif
;;;1904   
;;;1905   #if USE_LCD_DLPS
;;;1906       LCD_DLPS_Enter();
;;;1907   #endif
;;;1908   
;;;1909   #if USE_I2S0_DLPS
;;;1910       I2S0_DLPS_Enter();
;;;1911   #endif
;;;1912   
;;;1913   #if USE_I2S1_DLPS
;;;1914       I2S1_DLPS_Enter();
;;;1915   #endif
;;;1916   
;;;1917   #if USE_CODEC_DLPS
;;;1918       CODEC_DLPS_Enter();
;;;1919   #endif
;;;1920   
;;;1921   #if USE_CODEC_EQ1_DLPS
;;;1922       CODEC_EQ1_DLPS_Enter();
;;;1923   #endif
;;;1924   
;;;1925   #if USE_CODEC_EQ2_DLPS
;;;1926       CODEC_EQ2_DLPS_Enter();
;;;1927   #endif
;;;1928   
;;;1929   #if USE_CODEC_EQ3_DLPS
;;;1930       CODEC_EQ3_DLPS_Enter();
;;;1931   #endif
;;;1932   
;;;1933   #if USE_CODEC_EQ4_DLPS
;;;1934       CODEC_EQ4_DLPS_Enter();
;;;1935   #endif
;;;1936   
;;;1937   #if USE_CODEC_EQ5_DLPS
;;;1938       CODEC_EQ5_DLPS_Enter();
;;;1939   #endif
;;;1940   
;;;1941   #if USE_GDMA_DLPS
;;;1942       GDMA_DLPS_Enter();
;;;1943   #endif
;;;1944   
;;;1945       Log_SWD_DLPS_Enter();
;;;1946   
;;;1947   }
;;;1948   #endif  /* USE_IO_DRIVER_DLPS */
;;;1949   
;;;1950   #if USE_IO_DRIVER_DLPS
;;;1951   /**
;;;1952     * @brief  IO exit dlps callback function.
;;;1953     * @param  None
;;;1954     * @retval None
;;;1955     */
;;;1956   DATA_RAM_FUNCTION void DLPS_IO_ExitDlpsCb(void)
;;;1957   {
;;;1958   
;;;1959   //    DBG_BUFFER(TYPE_BUMBLEBEE3, SUBTYPE_FORMAT, MODULE_DLPS, LEVEL_INFO,
;;;1960   //               "DLPS_IO_ExitDlpsCb",0);
;;;1961   
;;;1962       Pinmux_DLPS_Exit();
;;;1963   
;;;1964       Log_SWD_DLPS_Exit();
;;;1965   
;;;1966   #if USE_I2C0_DLPS
;;;1967       I2C0_DLPS_Exit();
;;;1968   #endif
;;;1969   
;;;1970   #if USE_I2C1_DLPS
;;;1971       I2C1_DLPS_Exit();
;;;1972   #endif
;;;1973   
;;;1974   #if USE_TIM_DLPS
;;;1975       TIM_DLPS_Exit();
;;;1976   #endif
;;;1977   
;;;1978   #if USE_QDECODER_DLPS
;;;1979       QuadDecoder_DLPS_Exit();
;;;1980   #endif
;;;1981   
;;;1982   #if USE_IR_DLPS
;;;1983       IR_DLPS_Exit();
;;;1984   #endif
;;;1985   
;;;1986   #if USE_UART_DLPS
;;;1987       UART_DLPS_Exit();
;;;1988   #endif
;;;1989   
;;;1990   #if USE_UART1_DLPS
;;;1991       UART1_DLPS_Exit();
;;;1992   #endif
;;;1993   
;;;1994   #if USE_UART2_DLPS
;;;1995       UART2_DLPS_Exit();
;;;1996   #endif
;;;1997   
;;;1998   #if USE_SPI0_DLPS
;;;1999       SPI0_DLPS_Exit();
;;;2000   #endif
;;;2001   
;;;2002   #if USE_SPI1_DLPS
;;;2003       SPI1_DLPS_Exit();
;;;2004   #endif
;;;2005   
;;;2006   #if USE_SPI2W_DLPS
;;;2007       SPI2W_DLPS_Exit();
;;;2008   #endif
;;;2009   
;;;2010   #if USE_KEYSCAN_DLPS
;;;2011       KeyScan_DLPS_Exit();
;;;2012   #endif
;;;2013   
;;;2014   #if USE_GPIO_DLPS
;;;2015       GPIO_DLPS_Exit();
        0x00207da6:    f000f832    ..2.    BL       GPIO_DLPS_Exit ; 0x207e0e
;;;2016   #endif
;;;2017   
;;;2018   #if USE_ADC_DLPS
;;;2019       ADC_DLPS_Exit();
;;;2020   #endif
;;;2021   
;;;2022   #if USE_LCD_DLPS
;;;2023       LCD_DLPS_Exit();
;;;2024   #endif
;;;2025   
;;;2026   #if USE_I2S0_DLPS
;;;2027       I2S0_DLPS_Exit();
;;;2028   #endif
;;;2029   
;;;2030   #if USE_I2S1_DLPS
;;;2031       I2S1_DLPS_Exit();
;;;2032   #endif
;;;2033   
;;;2034   #if USE_CODEC_DLPS
;;;2035       CODEC_DLPS_Exit();
;;;2036   #endif
;;;2037   
;;;2038   #if USE_CODEC_EQ1_DLPS
;;;2039       CODEC_EQ1_DLPS_Exit();
;;;2040   #endif
;;;2041   
;;;2042   #if USE_CODEC_EQ2_DLPS
;;;2043       CODEC_EQ2_DLPS_Exit();
;;;2044   #endif
;;;2045   
;;;2046   #if USE_CODEC_EQ3_DLPS
;;;2047       CODEC_EQ3_DLPS_Exit();
;;;2048   #endif
;;;2049   
;;;2050   #if USE_CODEC_EQ4_DLPS
;;;2051       CODEC_EQ4_DLPS_Exit();
;;;2052   #endif
;;;2053   
;;;2054   #if USE_CODEC_EQ5_DLPS
;;;2055       CODEC_EQ5_DLPS_Exit();
;;;2056   #endif
;;;2057   
;;;2058   #if USE_GDMA_DLPS
;;;2059       GDMA_DLPS_Exit();
;;;2060   #endif
;;;2061   
;;;2062   #if USE_USER_DEFINE_DLPS_EXIT_CB
;;;2063       if (User_IO_ExitDlpsCB)
        0x00207daa:    4d2d        -M      LDR      r5,[pc,#180] ; [0x207e60] = 0x20bc28
        0x00207dac:    3d90        .=      SUBS     r5,r5,#0x90
        0x00207dae:    6868        hh      LDR      r0,[r5,#4]
        0x00207db0:    b100        ..      CBZ      r0,0x207db4 ; DLPS_IO_ExitDlpsCb + 116
;;;2064       {
;;;2065           User_IO_ExitDlpsCB();
        0x00207db2:    4780        .G      BLX      r0
;;;2066       }
;;;2067   #endif
;;;2068   
;;;2069       NVIC_InitTypeDef nvic_init_struct;
;;;2070       nvic_init_struct.NVIC_IRQChannel         = System_IRQn;
;;;2071       nvic_init_struct.NVIC_IRQChannelCmd      = (FunctionalState)ENABLE;
        0x00207db4:    2001        .       MOVS     r0,#1
        0x00207db6:    f88d0010    ....    STRB     r0,[sp,#0x10]
;;;2072       nvic_init_struct.NVIC_IRQChannelPriority = 3;
        0x00207dba:    2003        .       MOVS     r0,#3
;;;2073       NVIC_Init(&nvic_init_struct); //Enable SYSTEM_ON Interrupt
        0x00207dbc:    9003        ..      STR      r0,[sp,#0xc]
        0x00207dbe:    f88d4008    ...@    STRB     r4,[sp,#8]
        0x00207dc2:    a802        ..      ADD      r0,sp,#8
        0x00207dc4:    f609fa7c    ..|.    BL       NVIC_Init ; 0x112c0
        0x00207dc8:    4c25        %L      LDR      r4,[pc,#148] ; [0x207e60] = 0x20bc28
        0x00207dca:    3c84        .<      SUBS     r4,r4,#0x84
        0x00207dcc:    6863        ch      LDR      r3,[r4,#4]
        0x00207dce:    b123        #.      CBZ      r3,0x207dda ; DLPS_IO_ExitDlpsCb + 154
        0x00207dd0:    2201        ."      MOVS     r2,#1
        0x00207dd2:    4924        $I      LDR      r1,[pc,#144] ; [0x207e64] = 0x88003d8
        0x00207dd4:    4824        $H      LDR      r0,[pc,#144] ; [0x207e68] = 0x21100401
        0x00207dd6:    f5fffe42    ..B.    BL       log_buffer ; 0x7a5e
        0x00207dda:    2003        .       MOVS     r0,#3
        0x00207ddc:    f10022e0    ..."    ADD      r2,r0,#0xe000e000
        0x00207de0:    f8141020    .. .    LDRB     r1,[r4,r0,LSL #2]
        0x00207de4:    f8821400    ....    STRB     r1,[r2,#0x400]
        0x00207de8:    1c40        @.      ADDS     r0,r0,#1
        0x00207dea:    2820         (      CMP      r0,#0x20
        0x00207dec:    d3f6        ..      BCC      0x207ddc ; DLPS_IO_ExitDlpsCb + 156
        0x00207dee:    491f        .I      LDR      r1,[pc,#124] ; [0x207e6c] = 0xe000ed08
        0x00207df0:    f8d40080    ....    LDR      r0,[r4,#0x80]
        0x00207df4:    6008        .`      STR      r0,[r1,#0]
        0x00207df6:    491e        .I      LDR      r1,[pc,#120] ; [0x207e70] = 0x40006000
        0x00207df8:    6828        (h      LDR      r0,[r5,#0]
        0x00207dfa:    60c8        .`      STR      r0,[r1,#0xc]
        0x00207dfc:    f04f21e0    O..!    MOV      r1,#0xe000e000
        0x00207e00:    6820         h      LDR      r0,[r4,#0]
        0x00207e02:    f8c10100    ....    STR      r0,[r1,#0x100]
        0x00207e06:    f206f339    ..9.    BL       debug_monitor_enable ; 0x80e47c
;;;2074   
;;;2075       CPU_DLPS_Exit();
;;;2076   }
        0x00207e0a:    b005        ..      ADD      sp,sp,#0x14
        0x00207e0c:    bd30        0.      POP      {r4,r5,pc}
    GPIO_DLPS_Exit
        0x00207e0e:    b510        ..      PUSH     {r4,lr}
;;; .\..\..\..\src\mcu\peripheral\rtl876x_io_dlps.c (177)
        0x00207e10:    f04f4280    O..B    MOV      r2,#0x40000000
        0x00207e14:    f8d2021c    ....    LDR      r0,[r2,#0x21c]
        0x00207e18:    f4407080    @..p    ORR      r0,r0,#0x100
        0x00207e1c:    f8c2021c    ....    STR      r0,[r2,#0x21c]
;;;178        PERIPH->PERI_CLK_CTRL |= (BIT_SOC_ACTCK_GPIO_EN | SYSBLK_SLPCK_GPIO_EN_Msk);
        0x00207e20:    f8d20230    ..0.    LDR      r0,[r2,#0x230]
        0x00207e24:    f0407040    @.@p    ORR      r0,r0,#0x3000000
        0x00207e28:    f8c20230    ..0.    STR      r0,[r2,#0x230]
;;;179    
;;;180        GPIO->DATADIR       = GPIO_StoreReg[1];
        0x00207e2c:    480c        .H      LDR      r0,[pc,#48] ; [0x207e60] = 0x20bc28
        0x00207e2e:    4911        .I      LDR      r1,[pc,#68] ; [0x207e74] = 0x40001000
        0x00207e30:    3028        (0      ADDS     r0,r0,#0x28
        0x00207e32:    6843        Ch      LDR      r3,[r0,#4]
        0x00207e34:    604b        K`      STR      r3,[r1,#4]
;;;181        GPIO->DATASRC       = GPIO_StoreReg[2];
        0x00207e36:    6884        .h      LDR      r4,[r0,#8]
        0x00207e38:    608c        .`      STR      r4,[r1,#8]
;;;182        GPIO->INTMASK       = GPIO_StoreReg[4];
        0x00207e3a:    6904        .i      LDR      r4,[r0,#0x10]
        0x00207e3c:    634c        Lc      STR      r4,[r1,#0x34]
;;;183        GPIO->INTTYPE       = GPIO_StoreReg[5];
        0x00207e3e:    6944        Di      LDR      r4,[r0,#0x14]
        0x00207e40:    638c        .c      STR      r4,[r1,#0x38]
;;;184        GPIO->INTPOLARITY   = GPIO_StoreReg[6];
        0x00207e42:    6984        .i      LDR      r4,[r0,#0x18]
        0x00207e44:    63cc        .c      STR      r4,[r1,#0x3c]
;;;185        GPIO->DEBOUNCE      = GPIO_StoreReg[7];
        0x00207e46:    69c4        .i      LDR      r4,[r0,#0x1c]
        0x00207e48:    648c        .d      STR      r4,[r1,#0x48]
;;;186        GPIO->DATAOUT       = GPIO_StoreReg[0];
        0x00207e4a:    6804        .h      LDR      r4,[r0,#0]
        0x00207e4c:    600c        .`      STR      r4,[r1,#0]
;;;187        GPIO->INTCLR        = ~(GPIO_StoreReg[1]);
        0x00207e4e:    43db        .C      MVNS     r3,r3
        0x00207e50:    64cb        .d      STR      r3,[r1,#0x4c]
;;;188        GPIO->INTEN         = GPIO_StoreReg[3];
        0x00207e52:    68c3        .h      LDR      r3,[r0,#0xc]
        0x00207e54:    630b        .c      STR      r3,[r1,#0x30]
;;;189        *(__IO uint32_t *)(0x40000344UL) = GPIO_StoreReg[8];
        0x00207e56:    6a00        .j      LDR      r0,[r0,#0x20]
        0x00207e58:    f8c20344    ..D.    STR      r0,[r2,#0x344]
;;;190    
;;;191        return;
;;;192    }
        0x00207e5c:    bd10        ..      POP      {r4,pc}
    $d
        0x00207e5e:    0000        ..      DCW    0
        0x00207e60:    0020bc28    (. .    DCD    2145320
        0x00207e64:    088003d8    ....    DCD    142607320
        0x00207e68:    21100401    ...!    DCD    554697729
        0x00207e6c:    e000ed08    ....    DCD    3758157064
        0x00207e70:    40006000    .`.@    DCD    1073766400
        0x00207e74:    40001000    ...@    DCD    1073745920
    $t
    .text
    $v0
    ADC_Handler
    BTMAC_Handler
    BusFault_Handler
    DebugMon_Handler
    Default_Handler
    GDMA0_Channel0_Handler
    GDMA0_Channel1_Handler
    GDMA0_Channel2_Handler
    GDMA0_Channel3_Handler
    GDMA0_Channel4_Handler
    GDMA0_Channel5_Handler
    GPIO0_Handler
    GPIO10_Handler
    GPIO11_Handler
    GPIO12_Handler
    GPIO13_Handler
    GPIO14_Handler
    GPIO15_Handler
    GPIO16_Handler
    GPIO17_Handler
    GPIO18_Handler
    GPIO19_Handler
    GPIO1_Handler
    GPIO21_Handler
    GPIO22_Handler
    GPIO23_Handler
    GPIO24_Handler
    GPIO25_Handler
    GPIO26_Handler
    GPIO27_Handler
    GPIO28_Handler
    GPIO29_Handler
    GPIO2_Handler
    GPIO30_Handler
    GPIO31_Handler
    GPIO3_Handler
    GPIO4_Handler
    GPIO5_Handler
    GPIO6_Handler
    GPIO7_Handler
    GPIO8_Handler
    GPIO9_Handler
    HardFault_Handler
    I2C0_Handler
    I2C1_Handler
    I2S0_RX_Handler
    I2S0_TX_Handler
    I2S1_RX_Handler
    I2S1_TX_Handler
    IR_Handler
    LCD_Handler
    LPCOMP_Handler
    MemManage_Handler
    NMI_Handler
    PTA_Mailbox_Handler
    PendSV_Handler
    Peripheral_Handler
    Qdecode_Handler
    RTC_Handler
    SPI0_Handler
    SPI1_Handler
    SPI2W_Handler
    SPI_Flash_Handler
    SVC_Handler
    SysTick_Handler
    Timer2_Handler
    Timer3_Handler
    Timer4_7_Handler
    Timer4_Handler
    Timer5_Handler
    Timer6_Handler
    Timer7_Handler
    UART0_Handler
    UART1_Handler
    UART2_Handler
    UsageFault_Handler
    WDG_Handler
;;; ..\\..\\..\\src\\mcu\\rtl876x\\arm\\startup_rtl8762c.s
;;;276                    LDR    R0, =0x20000000
        0x00207e78:    f04f5000    O..P    MOV      r0,#0x20000000
;;;277                    LDR    R1, =DEFAULT_HANDLER_TXT
        0x00207e7c:    4910        .I      LDR      r1,[pc,#64] ; [0x207ec0] = 0x207e8a
;;;278                    MRS    R2, IPSR
        0x00207e7e:    f3ef8205    ....    MRS      r2,IPSR
;;;279                    LDR    R3, =log_direct
        0x00207e82:    4b10        .K      LDR      r3,[pc,#64] ; [0x207ec4] = 0x79b1
;;;280                    BLX    R3
        0x00207e84:    4798        .G      BLX      r3
;;;281                    B      .
        0x00207e86:    e7fe        ..      B        0x207e86 ; ADC_Handler + 14
    __user_setup_stackheap
;;;282    
;;;283                    ENDP
;;;284    
;;;285    
;;;286    ; User Initial Stack
;;;287                    EXPORT  __user_setup_stackheap
;;;288    __user_setup_stackheap PROC
;;;289                    BX      LR
        0x00207e88:    4770        pG      BX       lr
    $d
    DEFAULT_HANDLER_TXT
        0x00207e8a:    7245        Er      DCW    29253
        0x00207e8c:    21726f72    ror!    DCD    561147762
        0x00207e90:    656c5020     Ple    DCD    1701597216
        0x00207e94:    20657361    ase     DCD    543519585
        0x00207e98:    6c706d69    impl    DCD    1819307369
        0x00207e9c:    6e656d65    emen    DCD    1852140901
        0x00207ea0:    6f792074    t yo    DCD    1870209140
        0x00207ea4:    49207275    ur I    DCD    1226863221
        0x00207ea8:    48205253    SR H    DCD    1210077779
        0x00207eac:    6c646e61    andl    DCD    1818521185
        0x00207eb0:    66207265    er f    DCD    1713402469
        0x00207eb4:    4920726f    or I    DCD    1226863215
        0x00207eb8:    25205152    RQ %    DCD    622874962
        0x00207ebc:    000a2164    d!..    DCD    663908
        0x00207ec0:    00207e8a    .~ .    DCD    2129546
        0x00207ec4:    000079b1    .y..    DCD    31153
    $t
    .text
    common_main
;;; .\..\..\..\src\mcu\rtl876x\system_rtl8762c.c
;;;253    {
        0x00207ec8:    b510        ..      PUSH     {r4,lr}
;;;254    //add common system code here before enter user defined main function
;;;255        OTP->run_in_app = 1;
        0x00207eca:    f44f1000    O...    MOV      r0,#0x200000
        0x00207ece:    f890139b    ....    LDRB     r1,[r0,#0x39b]
        0x00207ed2:    f0410180    A...    ORR      r1,r1,#0x80
        0x00207ed6:    f880139b    ....    STRB     r1,[r0,#0x39b]
;;;256    
;;;257    #if (RUN_APP_IN_HCIMODE_ENABLE == 0)
;;;258        if (OTP->stack_en)
        0x00207eda:    f89002dc    ....    LDRB     r0,[r0,#0x2dc]
        0x00207ede:    07c1        ..      LSLS     r1,r0,#31
;;;259        {
;;;260            DBG_DIRECT("In SoC Mode");
        0x00207ee0:    f04f5004    O..P    MOV      r0,#0x21000000
        0x00207ee4:    d003        ..      BEQ      0x207eee ; common_main + 38
        0x00207ee6:    a119        ..      ADR      r1,{pc}+0x66 ; 0x207f4c
        0x00207ee8:    f5fffd62    ..b.    BL       log_direct ; 0x79b0
        0x00207eec:    e006        ..      B        0x207efc ; common_main + 52
;;;261        }
;;;262        else
;;;263        {
;;;264            DBG_DIRECT("WARNING: In HCI Mode, will not run APP Task");
        0x00207eee:    a11a        ..      ADR      r1,{pc}+0x6a ; 0x207f58
        0x00207ef0:    f5fffd5e    ..^.    BL       log_direct ; 0x79b0
;;;265    		WDG_Disable();
        0x00207ef4:    f609fd25    ..%.    BL       WDG_Disable ; 0x11942
;;;266            os_sched_start();
        0x00207ef8:    f61efc63    ..c.    BL       os_sched_start ; 0x267c2
;;;267        }
;;;268    #endif
;;;269    
;;;270    #if (DEBUG_TASK_HANG_ENABLE == 1)
;;;271        extern void DebugTaskHang(void);  //defined in debug_platform.c
;;;272        DebugTaskHang();
;;;273    #endif
;;;274    
;;;275    #if (DEBUG_DLPS_ERROR_IN_APP_ENABLE == 1)
;;;276        void dlps_debug_swtimer_init(void);  //defined in debug_platform.c
;;;277        dlps_debug_swtimer_init();
;;;278    #endif
;;;279    
;;;280        extern int main(void);
;;;281        main();
        0x00207efc:    e8bd4010    ...@    POP      {r4,lr}
        0x00207f00:    f001b9aa    ....    B.W      main ; 0x209258
    WDG_SystemReset
;;;282    }
;;;283    /**
;;;284     * @brief  Enable Debug Monitor Function (include NVIC Enable and DWT configuration)
;;;285     * @param  none
;;;286     * @return none
;;;287     */
;;;288    
;;;289    APP_FLASH_TEXT_SECTION
;;;290    void debug_monitor_enable(void)
;;;291    {
;;;292        //DBG_DIRECT("debug_monitor_enable");
;;;293    
;;;294        //set debug monitor priority
;;;295        NVIC_SetPriority(DebugMonitor_IRQn, 3);
;;;296    
;;;297        //enable exception and monitor control register
;;;298        CoreDebug->DEMCR |= CoreDebug_DEMCR_MON_EN_Msk | CoreDebug_DEMCR_TRCENA_Msk;
;;;299    
;;;300        //set DWT compare registers (max 4 comparators)
;;;301        //watch_point_0_setting(0x1000180C, DWT_DATAVSIZE_WORD, DWT_FUNCTION_WRITE);
;;;302        //watch_point_1_setting(0x10000004, DWT_DATAVSIZE_WORD, DWT_FUNCTION_READ_OR_WRITE);
;;;303        //watch_point_2_setting(0x10000008, DWT_DATAVSIZE_WORD, DWT_FUNCTION_READ_OR_WRITE);
;;;304        //watch_point_3_setting(0x1000000C, DWT_DATAVSIZE_WORD, DWT_FUNCTION_READ_OR_WRITE);
;;;305    
;;;306        //enable DWT control register
;;;307        DWT->CTRL |= DWT_CTRL_CYCCNTENA_Msk;
;;;308    
;;;309        return;
;;;310    }
;;;311    
;;;312    APP_FLASH_TEXT_SECTION
;;;313    void ram_init(void)
;;;314    {
;;;315        //copy data on ro
;;;316        extern char Image$$RAM_DATA_ON$$RO$$Base[];
;;;317        extern char Load$$RAM_DATA_ON$$RO$$Base[];
;;;318        extern unsigned int Image$$RAM_DATA_ON$$RO$$Length;
;;;319    
;;;320        memcpy(Image$$RAM_DATA_ON$$RO$$Base,
;;;321               Load$$RAM_DATA_ON$$RO$$Base,
;;;322               (unsigned int)&Image$$RAM_DATA_ON$$RO$$Length);
;;;323    
;;;324        //copy data on rw
;;;325        extern char Image$$RAM_DATA_ON$$RW$$Base[];
;;;326        extern char Load$$RAM_DATA_ON$$RW$$Base[];
;;;327        extern unsigned int Image$$RAM_DATA_ON$$RW$$Length;
;;;328    
;;;329        memcpy(Image$$RAM_DATA_ON$$RW$$Base,
;;;330               Load$$RAM_DATA_ON$$RW$$Base,
;;;331               (unsigned int)&Image$$RAM_DATA_ON$$RW$$Length);
;;;332    
;;;333        //clear data on zi
;;;334        extern char Image$$RAM_DATA_ON$$ZI$$Base[];
;;;335        extern unsigned int Image$$RAM_DATA_ON$$ZI$$Length;
;;;336    
;;;337        memset(Image$$RAM_DATA_ON$$ZI$$Base,
;;;338               0,
;;;339               (unsigned int)&Image$$RAM_DATA_ON$$ZI$$Length);
;;;340    
;;;341        //copy cache ro
;;;342        extern char Image$$CACHE_DATA_ON$$RO$$Base[];
;;;343        extern char Load$$CACHE_DATA_ON$$RO$$Base[];
;;;344        extern unsigned int Image$$CACHE_DATA_ON$$RO$$Length;
;;;345    
;;;346        memcpy(Image$$CACHE_DATA_ON$$RO$$Base,
;;;347               Load$$CACHE_DATA_ON$$RO$$Base,
;;;348               (unsigned int)&Image$$CACHE_DATA_ON$$RO$$Length);
;;;349    }
;;;350    
;;;351    APP_FLASH_TEXT_SECTION
;;;352    void SystemInit(void)
;;;353    {
;;;354        //init pre_main and main functions
;;;355        extern void pre_main(void);
;;;356        app_pre_main = (APP_MAIN_FUNC)pre_main;
;;;357        app_main = (APP_MAIN_FUNC)common_main;
;;;358    
;;;359        /******** update otp here**********/
;;;360        //ram config
;;;361        OTP->appDataSize = APP_GLOBAL_SIZE;
;;;362        OTP->heapDataONSize = HEAP_DATA_ON_SIZE;
;;;363        /* not share: SHARE_CACHE_RAM_0K; 8K: SHARE_CACHE_RAM_8K; 16K: SHARE_CACHE_RAM_16K */
;;;364    #if ((16 * 1024) == SHARE_CACHE_RAM_SIZE)
;;;365        OTP->share_cache_ram_reg = SHARE_CACHE_RAM_16K;
;;;366    #elif ((8 * 1024) == SHARE_CACHE_RAM_SIZE)
;;;367        OTP->share_cache_ram_reg = SHARE_CACHE_RAM_8K;
;;;368    #else
;;;369        OTP->share_cache_ram_reg = SHARE_CACHE_RAM_0K;
;;;370    #endif
;;;371    
;;;372    
;;;373        //flash config
;;;374        /*config enable flash block proect depending on flash layout and flash id*/
;;;375    #if (FLASH_BLOCK_PROTECT_ENABLE == 1)
;;;376        OTP->bp_enable = 1;
;;;377    #else
;;;378        OTP->bp_enable = 0;
;;;379    #endif
;;;380        OTP->delay_10us_after_toggle_cs = AFTER_TOGGLE_CS_DELAY;
;;;381    
;;;382    
;;;383        //os config
;;;384        /*config enable check task stack overflow*/
;;;385    #if (CHECK_STACK_OVERFLOW_ENABLE == 1)
;;;386        OTP->checkForStackOverflow = 1;
;;;387    #else
;;;388        OTP->checkForStackOverflow = 0;
;;;389    #endif
;;;390    
;;;391    
;;;392        //platform config
;;;393        /*config enable platform assert*/
;;;394    #if (PLATFORM_ASSERT_ENABLE == 1)
;;;395        OTP->enableASSERT = 1;
;;;396    #else
;;;397        OTP->enableASSERT = 0;
;;;398    #endif
;;;399    
;;;400        /*Print all log in log buffer before entering DLPS */
;;;401    #if (CHECK_LOG_BUFFER_BEFORE_DLPS_ENABLE == 1)
;;;402        OTP->printAllLogBeforeEnterDLPS = 1;
;;;403    #else
;;;404        OTP->printAllLogBeforeEnterDLPS = 0;
;;;405    #endif
;;;406    
;;;407        /*config enable log or not*/
;;;408    #if (CONFIG_LOG_FUNCTION_ENABLE == 1)
;;;409        OTP->logDisable = 0;
;;;410    #else
;;;411        OTP->logDisable = 1;
;;;412    #endif
;;;413    
;;;414        /*config enable swd pinmux*/
;;;415    #if (SWD_PINMUX_ENABLE == 1)
;;;416        OTP->SWD_ENABLE = 1;
;;;417    #else
;;;418        OTP->SWD_ENABLE = 0;
;;;419    #endif
;;;420    
;;;421        /*config enable watch dog in rom*/
;;;422    #if (ROM_WATCH_DOG_ENABLE == 1)
;;;423        OTP->wdgEnableInRom = 1;
;;;424    #else
;;;425        OTP->wdgEnableInRom = 0;
;;;426    #endif
;;;427    
;;;428        /*config watch dog mode in rom, defualt reset all*/
;;;429        OTP->wdgMode = ROM_WATCH_DOG_MODE;
;;;430    
;;;431    
;;;432        //app config
;;;433        OTP->ota_timeout_total = OTA_TIMEOUT_TOTAL;
;;;434        OTP->ota_timeout_wait4_conn = OTA_TIMEOUT_WAIT4_CONN;
;;;435        OTP->ota_timeout_wait4_image_transfer = OTA_TIMEOUT_WAIT4_IMAGE_TRANS;
;;;436        OTP->ota_timeout_ctittv = OTA_TIMEOUT_CTITTV;
;;;437    
;;;438        /*config bt stack parameters in rom*/
;;;439    #ifdef BT_STACK_CONFIG_ENABLE
;;;440        bt_stack_config_init();
;;;441    #endif
;;;442    
;;;443    //add more otp config here
;;;444    }
;;;445    
;;;446    APP_FLASH_TEXT_SECTION
;;;447    void pre_main(void)
;;;448    {
;;;449        __disable_irq();
;;;450    
;;;451        ram_init();
;;;452    
;;;453        load_overlay(OVERLAY_SCENARIO_BOOT_ONCE);
;;;454    
;;;455        setlocale(LC_ALL, "C");
;;;456    
;;;457        BOOT_PRINT_ERROR2("SDK Ver: %s, Build Time: %s",
;;;458                          TRACE_STRING(VERSION_BUILD_STR),
;;;459                          TRACE_STRING(BUILDING_TIME));
;;;460    
;;;461        AppUpdateVectorTable();
;;;462    
;;;463        debug_monitor_enable();
;;;464    
;;;465        return;
;;;466    }
;;;467    /**
;;;468     * @brief  update vector table in app
;;;469     * @param  none
;;;470     * @return none
;;;471      */
;;;472    OVERLAY_SECTION_BOOT_ONCE
;;;473    static void AppUpdateVectorTable(void)
;;;474    {
;;;475        extern uint32_t Load$$RAM_VECTOR_TABLE$$RO$$Base;
;;;476        extern uint32_t Image$$RAM_VECTOR_TABLE$$RO$$Length;
;;;477        extern void Default_Handler(void);
;;;478        const char *SysException[] =
;;;479        {
;;;480            "InitialSP", "Reset", "NMI", "HardFault", "MemManage", "BusFault", "UsageFault", "Rsvd",
;;;481            "Rsvd", "Rsvd", "Rsvd", "SVC", "DebugMon", "Rsvd", "PendSV", "SysTick"
;;;482        };
;;;483        const char *ExtIrq[] =
;;;484        {
;;;485            "System", "WDG", "BTMAC", "TIM3", "TIM2", "Platform", "I2S0_TX", "I2S0_RX", "Timer4-7",
;;;486            "GPIO4", "GPIO5", "UART1", "UART0", "RTC", "SPI0", "SPI1", "I2C0", "I2C1", "ADC",
;;;487            "Peripheral", "GDMA0 Channel0", "GDMA0 Channel1", "GDMA0 Channel2", "GDMA0 Channel3",
;;;488            "GDMA0 Channel4", "GDMA0 Channel5", "GPIO_Group3", "GPIO_Group2", "IR", "GPIO_Group1",
;;;489            "GPIO_Group0", "UART2", "TIM4", "TIM5", "TIM6", "TIM7", "SPI_Flash", "Qdecode",
;;;490            "Keyscan", "SPI2W", "LPCOMP", "PTA_Mailbox", "SPORT1 TX", "SPORT1 RX", "LCD"
;;;491        };
;;;492    
;;;493        IRQ_Fun *pRamVector    = (IRQ_Fun *)VTOR_RAM_ADDR;
;;;494        IRQ_Fun *pAppVector    = (IRQ_Fun *)&Load$$RAM_VECTOR_TABLE$$RO$$Base;
;;;495        uint32_t AppVectorSize = (uint32_t)&Image$$RAM_VECTOR_TABLE$$RO$$Length;
;;;496        uint32_t i             = 0;
;;;497    
;;;498        if (SCB->VTOR != VTOR_RAM_ADDR)
;;;499        {
;;;500            RamVectorTableInit(VTOR_RAM_ADDR);
;;;501        }
;;;502    
;;;503        /* Update APP defined handlers */
;;;504        for (i = 0; i < AppVectorSize / 4; ++i)
;;;505        {
;;;506            if (i == 1) //skip reset_handler remap
;;;507            {
;;;508                continue;
;;;509            }
;;;510    
;;;511            if ((pAppVector[i] != Default_Handler) && (pAppVector[i] != 0))
;;;512            {
;;;513                if (i < System_VECTORn)
;;;514                {
;;;515                    OS_PRINT_WARN1("Warning! %s is updated by APP!", TRACE_STRING(SysException[i]));
;;;516                }
;;;517                else
;;;518                {
;;;519                    OS_PRINT_WARN1("Warning! ISR %s is updated by APP!",
;;;520                                   TRACE_STRING(ExtIrq[i - System_VECTORn]));
;;;521                }
;;;522    
;;;523                pRamVector[i] = pAppVector[i];
;;;524            }
;;;525        }
;;;526    
;;;527        __DMB();
;;;528        __DSB();
;;;529    }
;;;530    /**
;;;531     * @brief  GPIO Group3 Handler
;;;532     * @param  none
;;;533     * @return none
;;;534      */
;;;535    DATA_RAM_FUNCTION void GPIO_Group3_Handler(void)
;;;536    {
;;;537        uint32_t GPIOIrqStatus = GPIO->INTSTATUS;
;;;538    
;;;539        //Check exact IRQ function
;;;540        if (GPIOIrqStatus & BIT3)
;;;541        {
;;;542            GPIO3_Handler();
;;;543        }
;;;544        if (GPIOIrqStatus & BIT7)
;;;545        {
;;;546            GPIO7_Handler();
;;;547        }
;;;548        if (GPIOIrqStatus & BIT11)
;;;549        {
;;;550            GPIO11_Handler();
;;;551        }
;;;552        if (GPIOIrqStatus & BIT15)
;;;553        {
;;;554            GPIO15_Handler();
;;;555        }
;;;556        if (GPIOIrqStatus & BIT19)
;;;557        {
;;;558            GPIO19_Handler();
;;;559        }
;;;560        if (GPIOIrqStatus & BIT23)
;;;561        {
;;;562            GPIO23_Handler();
;;;563        }
;;;564        if (GPIOIrqStatus & BIT27)
;;;565        {
;;;566            GPIO27_Handler();
;;;567        }
;;;568        if (GPIOIrqStatus & BIT31)
;;;569        {
;;;570            GPIO31_Handler();
;;;571        }
;;;572    }
;;;573    /**
;;;574     * @brief  GPIO Group2 Handler
;;;575     * @param  none
;;;576     * @return none
;;;577      */
;;;578    DATA_RAM_FUNCTION void GPIO_Group2_Handler(void)
;;;579    {
;;;580        uint32_t GPIOIrqStatus = GPIO->INTSTATUS;
;;;581    
;;;582        //Check exact IRQ function
;;;583        if (GPIOIrqStatus & BIT2)
;;;584        {
;;;585            GPIO2_Handler();
;;;586        }
;;;587        if (GPIOIrqStatus & BIT6)
;;;588        {
;;;589            GPIO6_Handler();
;;;590        }
;;;591        if (GPIOIrqStatus & BIT10)
;;;592        {
;;;593            GPIO10_Handler();
;;;594        }
;;;595        if (GPIOIrqStatus & BIT14)
;;;596        {
;;;597            GPIO14_Handler();
;;;598        }
;;;599        if (GPIOIrqStatus & BIT18)
;;;600        {
;;;601            GPIO18_Handler();
;;;602        }
;;;603        if (GPIOIrqStatus & BIT22)
;;;604        {
;;;605            GPIO22_Handler();
;;;606        }
;;;607        if (GPIOIrqStatus & BIT26)
;;;608        {
;;;609            GPIO26_Handler();
;;;610        }
;;;611        if (GPIOIrqStatus & BIT30)
;;;612        {
;;;613            GPIO30_Handler();
;;;614        }
;;;615    }
;;;616    /**
;;;617     * @brief  GPIO Group1 Handler
;;;618     * @param  none
;;;619     * @return none
;;;620      */
;;;621    DATA_RAM_FUNCTION void GPIO_Group1_Handler(void)
;;;622    {
;;;623        uint32_t GPIOIrqStatus = GPIO->INTSTATUS;
;;;624    
;;;625        //Check exact IRQ function
;;;626        if (GPIOIrqStatus & BIT1)
;;;627        {
;;;628            GPIO1_Handler();
;;;629        }
;;;630        if (GPIOIrqStatus & BIT9)
;;;631        {
;;;632            GPIO9_Handler();
;;;633        }
;;;634        if (GPIOIrqStatus & BIT13)
;;;635        {
;;;636            GPIO13_Handler();
;;;637        }
;;;638        if (GPIOIrqStatus & BIT17)
;;;639        {
;;;640            GPIO17_Handler();
;;;641        }
;;;642        if (GPIOIrqStatus & BIT21)
;;;643        {
;;;644            GPIO21_Handler();
;;;645        }
;;;646        if (GPIOIrqStatus & BIT25)
;;;647        {
;;;648            GPIO25_Handler();
;;;649        }
;;;650        if (GPIOIrqStatus & BIT29)
;;;651        {
;;;652            GPIO29_Handler();
;;;653        }
;;;654    }
;;;655    /**
;;;656     * @brief  GPIO Group0 Handler
;;;657     * @param  none
;;;658     * @return none
;;;659      */
;;;660    DATA_RAM_FUNCTION void GPIO_Group0_Handler(void)
;;;661    {
;;;662        uint32_t GPIOIrqStatus = GPIO->INTSTATUS;
;;;663    
;;;664        //Check exact IRQ function
;;;665        if (GPIOIrqStatus & BIT0)
;;;666        {
;;;667            GPIO0_Handler();
;;;668        }
;;;669        if (GPIOIrqStatus & BIT8)
;;;670        {
;;;671            GPIO8_Handler();
;;;672        }
;;;673        if (GPIOIrqStatus & BIT12)
;;;674        {
;;;675            GPIO12_Handler();
;;;676        }
;;;677        if (GPIOIrqStatus & BIT16)
;;;678        {
;;;679            GPIO16_Handler();
;;;680        }
;;;681        if (GPIOIrqStatus & BIT20)
;;;682        {
;;;683            GPIO20_Handler();
;;;684        }
;;;685        if (GPIOIrqStatus & BIT24)
;;;686        {
;;;687            GPIO24_Handler();
;;;688        }
;;;689        if (GPIOIrqStatus & BIT28)
;;;690        {
;;;691            GPIO28_Handler();
;;;692        }
;;;693    }
;;;694    
;;;695    void WDG_SystemReset(T_WDG_MODE wdg_mode, T_SW_RESET_REASON reset_reason)
;;;696    {
;;;697        uint32_t parm = wdg_mode | (reset_reason << 8);
        0x00207f04:    ea402101    @..!    ORR      r1,r0,r1,LSL #8
;;;698        SystemCall(SYSTEM_CALL_WDG_RESET, parm);
        0x00207f08:    2001        .       MOVS     r0,#1
        0x00207f0a:    f5ffb9c9    ....    B        SystemCall ; 0x72a0
    flash_try_high_speed
;;;699    }
;;;700    
;;;701    /**
;;;702     * @brief  flash try to switch to high speed bit mode
;;;703     * @note  switch back to 1 bit mode, if flash switch to high speed bit mode fail
;;;704     * @param  bit_mode config bit mode @ref T_FLASH_MODE
;;;705     * @retval 0 fail
;;;706     * @retval 1 success
;;;707      */
;;;708    uint32_t flash_try_high_speed(T_FLASH_MODE bit_mode)
;;;709    {
        0x00207f0e:    b510        ..      PUSH     {r4,lr}
;;;710        uint32_t result = 0;
;;;711        OTP->bit_mode = bit_mode;
        0x00207f10:    f44f1400    O...    MOV      r4,#0x200000
        0x00207f14:    2200        ."      MOVS     r2,#0
        0x00207f16:    f894134c    ..L.    LDRB     r1,[r4,#0x34c]
        0x00207f1a:    f3600101    `...    BFI      r1,r0,#0,#2
        0x00207f1e:    f884134c    ..L.    STRB     r1,[r4,#0x34c]
;;;712        result = flash_ioctl(flash_ioctrl_try_high_speed, 0, 0);
        0x00207f22:    4611        .F      MOV      r1,r2
        0x00207f24:    f2450002    E...    MOV      r0,#0x5002
        0x00207f28:    f604f8a3    ....    BL       flash_ioctl ; 0xc072
;;;713        //if try fail, set back OTP->bit_mode to one bit mode
;;;714        if (!result)
        0x00207f2c:    2800        .(      CMP      r0,#0
        0x00207f2e:    d105        ..      BNE      0x207f3c ; flash_try_high_speed + 46
;;;715        {
;;;716            OTP->bit_mode = FLASH_MODE_1BIT;
        0x00207f30:    f894134c    ..L.    LDRB     r1,[r4,#0x34c]
        0x00207f34:    f0210103    !...    BIC      r1,r1,#3
        0x00207f38:    f884134c    ..L.    STRB     r1,[r4,#0x34c]
;;;717        }
;;;718        return result;
;;;719    }
        0x00207f3c:    bd10        ..      POP      {r4,pc}
    app_cb0_wdg_reset
        0x00207f3e:    4a11        .J      LDR      r2,[pc,#68] ; [0x207f84] = 0x20bacc
        0x00207f40:    6812        .h      LDR      r2,[r2,#0]
;;;720    
;;;721    void app_cb0_wdg_reset(T_WDG_MODE wdg_mode, T_SW_RESET_REASON reset_reason)
;;;722    {
        0x00207f42:    2a00        .*      CMP      r2,#0
        0x00207f44:    d000        ..      BEQ      0x207f48 ; app_cb0_wdg_reset + 10
;;;723        if (user_wdg_cb)
;;;724        {
;;;725            if (user_wdg_cb(wdg_mode, reset_reason))
        0x00207f46:    4710        .G      BX       r2
;;;726            {
;;;727                return;
;;;728            }
;;;729        }
;;;730    
;;;731        //do something necessary before watch dog reset
;;;732    }
        0x00207f48:    4770        pG      BX       lr
    $d
        0x00207f4a:    0000        ..      DCW    0
        0x00207f4c:    53206e49    In S    DCD    1394634313
        0x00207f50:    4d20436f    oC M    DCD    1293960047
        0x00207f54:    0065646f    ode.    DCD    6644847
        0x00207f58:    4e524157    WARN    DCD    1314013527
        0x00207f5c:    3a474e49    ING:    DCD    977751625
        0x00207f60:    206e4920     In     DCD    544098592
        0x00207f64:    20494348    HCI     DCD    541672264
        0x00207f68:    65646f4d    Mode    DCD    1701080909
        0x00207f6c:    6977202c    , wi    DCD    1769414700
        0x00207f70:    6e206c6c    ll n    DCD    1847618668
        0x00207f74:    7220746f    ot r    DCD    1914729583
        0x00207f78:    41206e75    un A    DCD    1092644469
        0x00207f7c:    54205050    PP T    DCD    1411403856
        0x00207f80:    006b7361    ask.    DCD    7041889
        0x00207f84:    0020bacc    .. .    DCD    2144972
    $t
    .text
    hids_set_parameter
;;; .\..\..\..\src\ble\profile\server\hids_kb.c
;;;542    {
        0x00207f88:    b570        p.      PUSH     {r4-r6,lr}
        0x00207f8a:    4613        .F      MOV      r3,r2
        0x00207f8c:    460a        .F      MOV      r2,r1
;;;543        bool ret = true;
        0x00207f8e:    2401        .$      MOVS     r4,#1
        0x00207f90:    498d        .I      LDR      r1,[pc,#564] ; [0x2081c8] = 0x20bad0
;;;544    
;;;545        switch (param_type)
        0x00207f92:    280b        .(      CMP      r0,#0xb
        0x00207f94:    d215        ..      BCS      0x207fc2 ; hids_set_parameter + 58
        0x00207f96:    e8dff000    ....    TBB      [pc,r0]
    $d
        0x00207f9a:    0614        ..      DCW    1556
        0x00207f9c:    15151515    ....    DCD    353703189
        0x00207fa0:    0c151509    ....    DCD    202708233
        0x00207fa4:    0011        ..      DCW    17
    $t
;;;546        {
;;;547        case HID_PROTOCOL_MODE:
;;;548            {
;;;549                hid_protocol_mode = (T_HID_PROTOCOL_MODE) * ((uint8_t *)value_ptr);
        0x00207fa6:    7818        .x      LDRB     r0,[r3,#0]
        0x00207fa8:    7008        .p      STRB     r0,[r1,#0]
;;;550            }
;;;551            break;
        0x00207faa:    e00b        ..      B        0x207fc4 ; hids_set_parameter + 60
;;;552    
;;;553        case HID_REPORT_INPUT:
;;;554            break;
;;;555    
;;;556        case HID_REPORT_OUTPUT:
;;;557            break;
;;;558    
;;;559        case HID_REPORT_FEATURE:
;;;560            break;
;;;561    
;;;562        case HID_REPORT_MAP:
;;;563            break;
;;;564    
;;;565        case HID_EXTERNAL_REPORT_REFER:
;;;566            {
;;;567                external_report_refer = *(uint16_t *)value_ptr;
        0x00207fac:    8818        ..      LDRH     r0,[r3,#0]
        0x00207fae:    8048        H.      STRH     r0,[r1,#2]
;;;568            }
;;;569            break;
        0x00207fb0:    e008        ..      B        0x207fc4 ; hids_set_parameter + 60
;;;570    
;;;571        case HID_BOOT_KB_IN_REPORT:
;;;572            break;
;;;573    
;;;574        case HID_BOOT_KB_OUT_REPORT:
;;;575            break;
;;;576    
;;;577        case HID_INFO:
;;;578            {
;;;579                memcpy((void *)&hid_info, value_ptr, length);
        0x00207fb2:    4619        .F      MOV      r1,r3
        0x00207fb4:    4885        .H      LDR      r0,[pc,#532] ; [0x2081cc] = 0x20ba2e
        0x00207fb6:    f651ff70    Q.p.    BL       __aeabi_memcpy ; 0x59e9a
;;;580            }
;;;581            break;
        0x00207fba:    e003        ..      B        0x207fc4 ; hids_set_parameter + 60
;;;582    
;;;583        case HID_CONTROL_POINT:
;;;584            hid_suspand_mode = *((uint8_t *)value_ptr);
        0x00207fbc:    7818        .x      LDRB     r0,[r3,#0]
        0x00207fbe:    7048        Hp      STRB     r0,[r1,#1]
;;;585            break;
        0x00207fc0:    e000        ..      B        0x207fc4 ; hids_set_parameter + 60
;;;586    
;;;587        default:
;;;588            ret = false;
        0x00207fc2:    2400        .$      MOVS     r4,#0
;;;589            break;
;;;590        }
;;;591        return ret;
        0x00207fc4:    4620         F      MOV      r0,r4
;;;592    }
        0x00207fc6:    bd70        p.      POP      {r4-r6,pc}
    hids_attr_read_cb
;;;593    
;;;594    
;;;595    static T_APP_RESULT hids_attr_read_cb(uint8_t conn_id, T_SERVER_ID service_id,
;;;596                                          uint16_t attrib_index,
;;;597                                          uint16_t offset, uint16_t *p_length, uint8_t **pp_value)
;;;598    {
        0x00207fc8:    b5f0        ..      PUSH     {r4-r7,lr}
        0x00207fca:    b087        ..      SUB      sp,sp,#0x1c
        0x00207fcc:    460b        .F      MOV      r3,r1
        0x00207fce:    4601        .F      MOV      r1,r0
        0x00207fd0:    2702        .'      MOVS     r7,#2
;;; .\..\..\..\src\ble\profile\server\hids_kb.c (598)
        0x00207fd2:    e9dd540c    ...T    LDRD     r5,r4,[sp,#0x30]
;;;599        T_APP_RESULT cause = APP_RESULT_SUCCESS;
        0x00207fd6:    2000        .       MOVS     r0,#0
;;;600        T_HID_CALLBACK_DATA callback_data;
;;;601        callback_data.msg_type = SERVICE_CALLBACK_TYPE_READ_CHAR_VALUE;
        0x00207fd8:    f88d7001    ...p    STRB     r7,[sp,#1]
        0x00207fdc:    4e7a        zN      LDR      r6,[pc,#488] ; [0x2081c8] = 0x20bad0
;;;602        callback_data.conn_id = conn_id;
        0x00207fde:    f88d1000    ....    STRB     r1,[sp,#0]
;;;603    
;;;604        callback_data.msg_type = SERVICE_CALLBACK_TYPE_READ_CHAR_VALUE;
;;;605    
;;;606        switch (attrib_index)
        0x00207fe2:    2a0f        .*      CMP      r2,#0xf
        0x00207fe4:    d026        &.      BEQ      0x208034 ; hids_attr_read_cb + 108
        0x00207fe6:    dc0d        ..      BGT      0x208004 ; hids_attr_read_cb + 60
        0x00207fe8:    2a08        .*      CMP      r2,#8
        0x00207fea:    d004        ..      BEQ      0x207ff6 ; hids_attr_read_cb + 46
        0x00207fec:    dc05        ..      BGT      0x207ffa ; hids_attr_read_cb + 50
        0x00207fee:    2a02        .*      CMP      r2,#2
        0x00207ff0:    d013        ..      BEQ      0x20801a ; hids_attr_read_cb + 82
        0x00207ff2:    2a04        .*      CMP      r2,#4
        0x00207ff4:    d10e        ..      BNE      0x208014 ; hids_attr_read_cb + 76
        0x00207ff6:    b007        ..      ADD      sp,sp,#0x1c
        0x00207ff8:    bdf0        ..      POP      {r4-r7,pc}
        0x00207ffa:    2a0b        .*      CMP      r2,#0xb
        0x00207ffc:    d0fb        ..      BEQ      0x207ff6 ; hids_attr_read_cb + 46
        0x00207ffe:    2a0e        .*      CMP      r2,#0xe
        0x00208000:    d108        ..      BNE      0x208014 ; hids_attr_read_cb + 76
        0x00208002:    e013        ..      B        0x20802c ; hids_attr_read_cb + 100
        0x00208004:    2a11        .*      CMP      r2,#0x11
        0x00208006:    d0f6        ..      BEQ      0x207ff6 ; hids_attr_read_cb + 46
        0x00208008:    2a14        .*      CMP      r2,#0x14
        0x0020800a:    d0f4        ..      BEQ      0x207ff6 ; hids_attr_read_cb + 46
        0x0020800c:    2a16        .*      CMP      r2,#0x16
        0x0020800e:    d01d        ..      BEQ      0x20804c ; hids_attr_read_cb + 132
        0x00208010:    2a18        .*      CMP      r2,#0x18
        0x00208012:    d0f0        ..      BEQ      0x207ff6 ; hids_attr_read_cb + 46
;;;607        {
;;;608        default:
;;;609            cause = APP_RESULT_ATTR_NOT_FOUND;
        0x00208014:    f240400a    @..@    MOV      r0,#0x40a
        0x00208018:    e7ed        ..      B        0x207ff6 ; hids_attr_read_cb + 46
;;;610            break;
;;;611    
;;;612        case GATT_SVC_HID_PROTOCOL_MODE_INDEX:
;;;613            callback_data.msg_data.read_value_index = GATT_SVC_HID_PROTOCOL_MODE_INDEX;
        0x0020801a:    f88d7004    ...p    STRB     r7,[sp,#4]
;;;614            cause = pfn_hids_cb(service_id, (void *)&callback_data);
        0x0020801e:    6872        rh      LDR      r2,[r6,#4]
        0x00208020:    4669        iF      MOV      r1,sp
        0x00208022:    4618        .F      MOV      r0,r3
        0x00208024:    4790        .G      BLX      r2
;;;615            *pp_value = (uint8_t *)&hid_protocol_mode;
;;;616            *p_length = sizeof(hid_protocol_mode);
        0x00208026:    2101        .!      MOVS     r1,#1
;;;617            break;
        0x00208028:    6026        &`      STR      r6,[r4,#0]
        0x0020802a:    e019        ..      B        0x208060 ; hids_attr_read_cb + 152
;;;618    
;;;619        case GATT_SVC_HID_REPORT_INPUT_INDEX:
;;;620            break;
;;;621    
;;;622        case GATT_SVC_HID_REPORT_OUTPUT_INDEX:
;;;623            break;
;;;624    
;;;625        case GATT_SVC_HID_REPORT_FEATURE_INDEX:
;;;626            break;
;;;627    
;;;628        case GATT_SVC_HID_REPORT_MAP_INDEX:
;;;629            *pp_value = (uint8_t *)hids_report_descriptor;
        0x0020802c:    4968        hI      LDR      r1,[pc,#416] ; [0x2081d0] = 0x20aecc
;;;630            *p_length = sizeof(hids_report_descriptor);
        0x0020802e:    6021        !`      STR      r1,[r4,#0]
        0x00208030:    2193        .!      MOVS     r1,#0x93
;;;631            break;
        0x00208032:    e015        ..      B        0x208060 ; hids_attr_read_cb + 152
;;;632    
;;;633        case GATT_SVC_HID_EXTERNAL_REPORT_REFER_INDEX:
;;;634            callback_data.msg_data.read_value_index = GATT_SVC_HID_EXTERNAL_REPORT_REFER_INDEX;
        0x00208034:    200f        .       MOVS     r0,#0xf
        0x00208036:    f88d0004    ....    STRB     r0,[sp,#4]
;;;635            cause = pfn_hids_cb(service_id, (void *)&callback_data);
        0x0020803a:    6872        rh      LDR      r2,[r6,#4]
        0x0020803c:    4669        iF      MOV      r1,sp
        0x0020803e:    4618        .F      MOV      r0,r3
        0x00208040:    4790        .G      BLX      r2
;;;636            *pp_value = (uint8_t *)&external_report_refer;
        0x00208042:    4961        aI      LDR      r1,[pc,#388] ; [0x2081c8] = 0x20bad0
        0x00208044:    1c89        ..      ADDS     r1,r1,#2
;;;637            *p_length = sizeof(external_report_refer);
        0x00208046:    6021        !`      STR      r1,[r4,#0]
        0x00208048:    802f        /.      STRH     r7,[r5,#0]
        0x0020804a:    e7d4        ..      B        0x207ff6 ; hids_attr_read_cb + 46
;;;638            break;
;;;639    
;;;640        case GATT_SVC_HID_BOOT_KB_IN_REPORT_INDEX:
;;;641            break;
;;;642    
;;;643        case GATT_SVC_HID_BOOT_KB_OUT_REPORT_INDEX:
;;;644            break;
;;;645    
;;;646        case GATT_SVC_HID_INFO_INDEX:
;;;647            callback_data.msg_data.read_value_index = GATT_SVC_HID_INFO_INDEX;
        0x0020804c:    2016        .       MOVS     r0,#0x16
        0x0020804e:    f88d0004    ....    STRB     r0,[sp,#4]
;;;648            cause = pfn_hids_cb(service_id, (void *)&callback_data);
        0x00208052:    6872        rh      LDR      r2,[r6,#4]
        0x00208054:    4669        iF      MOV      r1,sp
        0x00208056:    4618        .F      MOV      r0,r3
        0x00208058:    4790        .G      BLX      r2
;;;649            *pp_value = (uint8_t *)&hid_info;
        0x0020805a:    495c        \I      LDR      r1,[pc,#368] ; [0x2081cc] = 0x20ba2e
;;;650            *p_length = sizeof(hid_info);
        0x0020805c:    6021        !`      STR      r1,[r4,#0]
        0x0020805e:    2104        .!      MOVS     r1,#4
        0x00208060:    8029        ).      STRH     r1,[r5,#0]
;;;651            break;
;;;652    
;;;653        case GATT_SVC_HID_CONTROL_POINT_INDEX:
;;;654            break;
;;;655        }
;;;656    
;;;657        return cause;
;;;658    }
        0x00208062:    e7c8        ..      B        0x207ff6 ; hids_attr_read_cb + 46
    hids_attr_write_cb
;;;659    
;;;660    
;;;661    static T_APP_RESULT hids_attr_write_cb(uint8_t conn_id, T_SERVER_ID service_id,
;;;662                                           uint16_t attrib_index, T_WRITE_TYPE write_type,
;;;663                                           uint16_t length, uint8_t *p_value, P_FUN_WRITE_IND_POST_PROC *p_write_ind_post_proc)
;;;664    {
        0x00208064:    b570        p.      PUSH     {r4-r6,lr}
        0x00208066:    b086        ..      SUB      sp,sp,#0x18
        0x00208068:    460d        .F      MOV      r5,r1
        0x0020806a:    e9dd100a    ....    LDRD     r1,r0,[sp,#0x28]
        0x0020806e:    2400        .$      MOVS     r4,#0
        0x00208070:    2603        .&      MOVS     r6,#3
        0x00208072:    f88d6001    ...`    STRB     r6,[sp,#1]
;;; .\..\..\..\src\ble\profile\server\hids_kb.c (664)
        0x00208076:    b158        X.      CBZ      r0,0x208090 ; hids_attr_write_cb + 44
        0x00208078:    2a0e        .*      CMP      r2,#0xe
        0x0020807a:    d02e        ..      BEQ      0x2080da ; hids_attr_write_cb + 118
        0x0020807c:    dc0c        ..      BGT      0x208098 ; hids_attr_write_cb + 52
        0x0020807e:    2a02        .*      CMP      r2,#2
        0x00208080:    d015        ..      BEQ      0x2080ae ; hids_attr_write_cb + 74
        0x00208082:    2a04        .*      CMP      r2,#4
        0x00208084:    d029        ).      BEQ      0x2080da ; hids_attr_write_cb + 118
        0x00208086:    2a08        .*      CMP      r2,#8
        0x00208088:    d01f        ..      BEQ      0x2080ca ; hids_attr_write_cb + 102
        0x0020808a:    2a0b        .*      CMP      r2,#0xb
        0x0020808c:    d10c        ..      BNE      0x2080a8 ; hids_attr_write_cb + 68
        0x0020808e:    e024        $.      B        0x2080da ; hids_attr_write_cb + 118
;;;665        T_APP_RESULT cause  = APP_RESULT_SUCCESS;
;;;666        T_HID_CALLBACK_DATA callback_data;
;;;667        callback_data.msg_type = SERVICE_CALLBACK_TYPE_WRITE_CHAR_VALUE;
;;;668    
;;;669        if (!p_value)
;;;670        {
;;;671            cause = APP_RESULT_INVALID_PDU;
        0x00208090:    f2404004    @..@    MOV      r0,#0x404
        0x00208094:    b006        ..      ADD      sp,sp,#0x18
        0x00208096:    bd70        p.      POP      {r4-r6,pc}
;;;672            return cause;
;;;673        }
;;;674    
;;;675        switch (attrib_index)
        0x00208098:    2a11        .*      CMP      r2,#0x11
        0x0020809a:    d01e        ..      BEQ      0x2080da ; hids_attr_write_cb + 118
        0x0020809c:    2a14        .*      CMP      r2,#0x14
        0x0020809e:    d01c        ..      BEQ      0x2080da ; hids_attr_write_cb + 118
        0x002080a0:    2a16        .*      CMP      r2,#0x16
        0x002080a2:    d01a        ..      BEQ      0x2080da ; hids_attr_write_cb + 118
        0x002080a4:    2a18        .*      CMP      r2,#0x18
        0x002080a6:    d018        ..      BEQ      0x2080da ; hids_attr_write_cb + 118
;;;676        {
;;;677        default:
;;;678            cause = APP_RESULT_ATTR_NOT_FOUND;
        0x002080a8:    f240440a    @..D    MOV      r4,#0x40a
;;;679            break;
        0x002080ac:    e015        ..      B        0x2080da ; hids_attr_write_cb + 118
;;;680    
;;;681        case GATT_SVC_HID_PROTOCOL_MODE_INDEX:
;;;682            callback_data.msg_data.read_value_index = GATT_SVC_HID_PROTOCOL_MODE_INDEX;
        0x002080ae:    2202        ."      MOVS     r2,#2
        0x002080b0:    f88d2004    ...     STRB     r2,[sp,#4]
;;;683            callback_data.msg_data.write_msg.write_type = write_type;
        0x002080b4:    f88d3008    ...0    STRB     r3,[sp,#8]
;;;684            callback_data.msg_data.write_msg.write_parameter.protocol_mode = *p_value;
        0x002080b8:    7802        .x      LDRB     r2,[r0,#0]
        0x002080ba:    f88d200c    ...     STRB     r2,[sp,#0xc]
;;;685            hids_set_parameter(HID_PROTOCOL_MODE, length, p_value);
        0x002080be:    4602        .F      MOV      r2,r0
        0x002080c0:    b2c9        ..      UXTB     r1,r1
        0x002080c2:    2001        .       MOVS     r0,#1
        0x002080c4:    f7ffff60    ..`.    BL       hids_set_parameter ; 0x207f88
;;;686            break;
        0x002080c8:    e007        ..      B        0x2080da ; hids_attr_write_cb + 118
;;;687    
;;;688        case GATT_SVC_HID_REPORT_INPUT_INDEX:
;;;689            break;
;;;690    
;;;691        case GATT_SVC_HID_REPORT_OUTPUT_INDEX:
;;;692            callback_data.msg_data.read_value_index = GATT_SVC_HID_REPORT_OUTPUT_INDEX;
        0x002080ca:    2108        .!      MOVS     r1,#8
        0x002080cc:    f88d1004    ....    STRB     r1,[sp,#4]
;;;693            callback_data.msg_data.write_msg.write_type = write_type;
        0x002080d0:    f88d3008    ...0    STRB     r3,[sp,#8]
;;;694            callback_data.msg_data.write_msg.write_parameter.output = *p_value;
        0x002080d4:    7800        .x      LDRB     r0,[r0,#0]
        0x002080d6:    f88d000c    ....    STRB     r0,[sp,#0xc]
;;;695            break;
;;;696    
;;;697        case GATT_SVC_HID_REPORT_FEATURE_INDEX:
;;;698            break;
;;;699    
;;;700        case GATT_SVC_HID_REPORT_MAP_INDEX:
;;;701            break;
;;;702    
;;;703        case GATT_SVC_HID_BOOT_KB_IN_REPORT_INDEX:
;;;704            break;
;;;705    
;;;706        case GATT_SVC_HID_BOOT_KB_OUT_REPORT_INDEX:
;;;707            break;
;;;708    
;;;709        case GATT_SVC_HID_INFO_INDEX:
;;;710            break;
;;;711    
;;;712        case GATT_SVC_HID_CONTROL_POINT_INDEX:
;;;713            break;
;;;714        }
;;;715    
;;;716        if (pfn_hids_cb && (cause == APP_RESULT_SUCCESS))
        0x002080da:    483b        ;H      LDR      r0,[pc,#236] ; [0x2081c8] = 0x20bad0
        0x002080dc:    6842        Bh      LDR      r2,[r0,#4]
        0x002080de:    b11a        ..      CBZ      r2,0x2080e8 ; hids_attr_write_cb + 132
        0x002080e0:    b914        ..      CBNZ     r4,0x2080e8 ; hids_attr_write_cb + 132
;;;717        {
;;;718            pfn_hids_cb(service_id, (void *)&callback_data);
        0x002080e2:    4669        iF      MOV      r1,sp
        0x002080e4:    4628        (F      MOV      r0,r5
        0x002080e6:    4790        .G      BLX      r2
;;;719        }
;;;720    
;;;721        return cause;
        0x002080e8:    4620         F      MOV      r0,r4
;;;722    
;;;723    }
        0x002080ea:    e7d3        ..      B        0x208094 ; hids_attr_write_cb + 48
    hids_cccd_update_cb
;;;724    
;;;725    void hids_cccd_update_cb(uint8_t conn_id, T_SERVER_ID service_id, uint16_t index, uint16_t ccc_bits)
;;;726    {
        0x002080ec:    e92d41f0    -..A    PUSH     {r4-r8,lr}
        0x002080f0:    b088        ..      SUB      sp,sp,#0x20
        0x002080f2:    461c        .F      MOV      r4,r3
;;;727        bool cause = true;
        0x002080f4:    2501        .%      MOVS     r5,#1
;;;728        T_HID_CALLBACK_DATA callback_data;
;;;729        callback_data.conn_id = conn_id;
        0x002080f6:    f88d0004    ....    STRB     r0,[sp,#4]
        0x002080fa:    9300        ..      STR      r3,[sp,#0]
        0x002080fc:    4616        .F      MOV      r6,r2
        0x002080fe:    4688        .F      MOV      r8,r1
        0x00208100:    4613        .F      MOV      r3,r2
;;;730        callback_data.msg_type = SERVICE_CALLBACK_TYPE_INDIFICATION_NOTIFICATION;
        0x00208102:    462f        /F      MOV      r7,r5
        0x00208104:    f88d5005    ...P    STRB     r5,[sp,#5]
;;;731    
;;;732        PROFILE_PRINT_INFO2("hids_cccd_update_cb index = %d ccc_bits %x", index, ccc_bits);
        0x00208108:    2202        ."      MOVS     r2,#2
        0x0020810a:    4932        2I      LDR      r1,[pc,#200] ; [0x2081d4] = 0x880006c
        0x0020810c:    4832        2H      LDR      r0,[pc,#200] ; [0x2081d8] = 0x21103302
        0x0020810e:    f5fffca6    ....    BL       log_buffer ; 0x7a5e
        0x00208112:    2000        .       MOVS     r0,#0
;;;733    
;;;734        switch (index)
        0x00208114:    2e05        ..      CMP      r6,#5
        0x00208116:    d003        ..      BEQ      0x208120 ; hids_cccd_update_cb + 52
        0x00208118:    2e12        ..      CMP      r6,#0x12
        0x0020811a:    d003        ..      BEQ      0x208124 ; hids_cccd_update_cb + 56
;;;735        {
;;;736        default:
;;;737            cause = false;
        0x0020811c:    2500        .%      MOVS     r5,#0
;;;738            break;
        0x0020811e:    e00b        ..      B        0x208138 ; hids_cccd_update_cb + 76
;;;739    
;;;740        case GATT_SVC_HID_REPORT_INPUT_CCCD_INDEX:
;;;741            {
;;;742                callback_data.msg_data.not_ind_data.index = GATT_SVC_HID_REPORT_INPUT_CCCD_INDEX;
        0x00208120:    2105        .!      MOVS     r1,#5
        0x00208122:    e000        ..      B        0x208126 ; hids_cccd_update_cb + 58
        0x00208124:    2112        .!      MOVS     r1,#0x12
        0x00208126:    f88d1018    ....    STRB     r1,[sp,#0x18]
;;;743                if (ccc_bits & GATT_PDU_TYPE_NOTIFICATION)
        0x0020812a:    07e1        ..      LSLS     r1,r4,#31
        0x0020812c:    d002        ..      BEQ      0x208134 ; hids_cccd_update_cb + 72
;;;744                {
;;;745                    callback_data.msg_data.not_ind_data.value = NOTIFY_ENABLE;
;;;746                }
;;;747                else
;;;748                {
;;;749                    callback_data.msg_data.not_ind_data.value = NOTIFY_DISABLE;
;;;750                }
;;;751                break;
;;;752            }
;;;753    
;;;754        case GATT_SVC_HID_BOOT_KB_IN_REPORT_CCCD_INDEX:
;;;755            {
;;;756                callback_data.msg_data.not_ind_data.index = GATT_SVC_HID_BOOT_KB_IN_REPORT_CCCD_INDEX;
;;;757                if (ccc_bits & GATT_PDU_TYPE_NOTIFICATION)
;;;758                {
;;;759                    callback_data.msg_data.not_ind_data.value = NOTIFY_ENABLE;
        0x0020812e:    f88d0019    ....    STRB     r0,[sp,#0x19]
        0x00208132:    e001        ..      B        0x208138 ; hids_cccd_update_cb + 76
;;;760                }
;;;761                else
;;;762                {
;;;763                    callback_data.msg_data.not_ind_data.value = NOTIFY_DISABLE;
        0x00208134:    f88d7019    ...p    STRB     r7,[sp,#0x19]
;;;764                }
;;;765                break;
;;;766            }
;;;767    
;;;768        }
;;;769    
;;;770        if (pfn_hids_cb && (cause == true))
        0x00208138:    4823        #H      LDR      r0,[pc,#140] ; [0x2081c8] = 0x20bad0
        0x0020813a:    6842        Bh      LDR      r2,[r0,#4]
        0x0020813c:    2a00        .*      CMP      r2,#0
        0x0020813e:    d004        ..      BEQ      0x20814a ; hids_cccd_update_cb + 94
        0x00208140:    2d00        .-      CMP      r5,#0
        0x00208142:    d002        ..      BEQ      0x20814a ; hids_cccd_update_cb + 94
;;;771        {
;;;772            pfn_hids_cb(service_id, (void *)&callback_data);
        0x00208144:    a901        ..      ADD      r1,sp,#4
        0x00208146:    4640        @F      MOV      r0,r8
        0x00208148:    4790        .G      BLX      r2
;;;773        }
;;;774    
;;;775        return;
;;;776    }
        0x0020814a:    b008        ..      ADD      sp,sp,#0x20
        0x0020814c:    e8bd81f0    ....    POP      {r4-r8,pc}
    hids_send_report
;;;777    
;;;778    
;;;779    /**
;;;780     * @brief       Send HIDS notification data .
;;;781     *
;;;782     *
;;;783     * @param[in]   conn_id  Connection id.
;;;784     * @param[in]   service_id  Service id.
;;;785     * @param[in]   index  hids characteristic index.
;;;786     * @param[in]   p_data report value pointer.
;;;787     * @param[in]   data_len length of report data.
;;;788     * @return Operation result.
;;;789     * @retval true Operation success.
;;;790     * @retval false Operation failure.
;;;791     *
;;;792     * <b>Example usage</b>
;;;793     * \code{.c}
;;;794        void test(void)
;;;795        {
;;;796            uint8_t conn_id = 0;
;;;797            T_SERVER_ID service_id = hids_id;
;;;798            uint8_t hid_report_input[] = {0x01, 0x02, 0x03, 0x04, 0x05, 0x06, 0x07, 0x08, 0x09};
;;;799            hids_send_report(conn_id, service_id, GATT_SVC_HID_REPORT_INPUT_INDEX, hid_report_input, sizeof(hid_report_input));
;;;800        }
;;;801     * \endcode
;;;802     */
;;;803    bool hids_send_report(uint8_t conn_id, T_SERVER_ID service_id, uint16_t index, uint8_t *p_data,
;;;804                          uint16_t data_len)
;;;805    {
        0x00208150:    e92d41fc    -..A    PUSH     {r2-r8,lr}
        0x00208154:    460f        .F      MOV      r7,r1
        0x00208156:    9c08        ..      LDR      r4,[sp,#0x20]
        0x00208158:    491e        .I      LDR      r1,[pc,#120] ; [0x2081d4] = 0x880006c
;;; .\..\..\..\src\ble\profile\server\hids_kb.c (805)
        0x0020815a:    461d        .F      MOV      r5,r3
        0x0020815c:    4616        .F      MOV      r6,r2
        0x0020815e:    4680        .F      MOV      r8,r0
;;;806        PROFILE_PRINT_INFO1("hids_send_report data_len %d", data_len);
        0x00208160:    4623        #F      MOV      r3,r4
        0x00208162:    2201        ."      MOVS     r2,#1
        0x00208164:    3130        01      ADDS     r1,r1,#0x30
        0x00208166:    481c        .H      LDR      r0,[pc,#112] ; [0x2081d8] = 0x21103302
        0x00208168:    f5fffc79    ..y.    BL       log_buffer ; 0x7a5e
;;;807        return server_send_data(conn_id, service_id, index, p_data, data_len, GATT_PDU_TYPE_NOTIFICATION);
        0x0020816c:    2001        .       MOVS     r0,#1
        0x0020816e:    e9cd4000    ...@    STRD     r4,r0,[sp,#0]
        0x00208172:    462b        +F      MOV      r3,r5
        0x00208174:    4632        2F      MOV      r2,r6
        0x00208176:    4639        9F      MOV      r1,r7
        0x00208178:    4640        @F      MOV      r0,r8
        0x0020817a:    f647fb13    G...    BL       server_send_data ; 0x4f7a4
;;;808    }
        0x0020817e:    e8bd81fc    ....    POP      {r2-r8,pc}
    hids_add_service
;;;809    
;;;810    
;;;811    
;;;812    uint16_t hids_attr_tbl_len = sizeof(hids_attr_tbl);
;;;813    
;;;814    const T_FUN_GATT_SERVICE_CBS hids_cbs =
;;;815    {
;;;816        hids_attr_read_cb,      // Read callback function pointer
;;;817        hids_attr_write_cb,     // Write callback function pointer
;;;818        hids_cccd_update_cb,    // Authorization callback function pointer
;;;819    };
;;;820    
;;;821    /**
;;;822      * @brief       Add HID service to the BLE stack database.
;;;823      *
;;;824      *
;;;825      * @param[in]   p_func  Callback when service attribute was read, write or cccd update.
;;;826      * @return Service id generated by the BLE stack: @ref T_SERVER_ID.
;;;827      * @retval 0xFF Operation failure.
;;;828      * @retval Others Service id assigned by stack.
;;;829      *
;;;830      * <b>Example usage</b>
;;;831      * \code{.c}
;;;832         void profile_init()
;;;833         {
;;;834             server_init(1);
;;;835             hids_id = hids_add_service(app_handle_profile_message);
;;;836         }
;;;837      * \endcode
;;;838      */
;;;839    T_SERVER_ID hids_add_service(void *p_func)
;;;840    {
        0x00208182:    b53e        >.      PUSH     {r1-r5,lr}
        0x00208184:    4604        .F      MOV      r4,r0
;;;841        T_SERVER_ID service_id;
;;;842        if (false == server_add_service(&service_id, (uint8_t *)hids_attr_tbl, hids_attr_tbl_len, hids_cbs))
        0x00208186:    4815        .H      LDR      r0,[pc,#84] ; [0x2081dc] = 0x20b24c
        0x00208188:    e9d01211    ....    LDRD     r1,r2,[r0,#0x44]
        0x0020818c:    e9cd1200    ....    STRD     r1,r2,[sp,#0]
        0x00208190:    6c03        .l      LDR      r3,[r0,#0x40]
        0x00208192:    480e        .H      LDR      r0,[pc,#56] ; [0x2081cc] = 0x20ba2e
        0x00208194:    490e        .I      LDR      r1,[pc,#56] ; [0x2081d0] = 0x20aecc
        0x00208196:    1e80        ..      SUBS     r0,r0,#2
        0x00208198:    3194        .1      ADDS     r1,r1,#0x94
        0x0020819a:    8802        ..      LDRH     r2,[r0,#0]
        0x0020819c:    a802        ..      ADD      r0,sp,#8
        0x0020819e:    f647fa66    G.f.    BL       server_add_service ; 0x4f66e
        0x002081a2:    b958        X.      CBNZ     r0,0x2081bc ; hids_add_service + 58
;;;843        {
;;;844            PROFILE_PRINT_ERROR1("hids_add_service: ServiceId %d", service_id);
        0x002081a4:    490b        .I      LDR      r1,[pc,#44] ; [0x2081d4] = 0x880006c
        0x002081a6:    480c        .H      LDR      r0,[pc,#48] ; [0x2081d8] = 0x21103302
        0x002081a8:    f89d3008    ...0    LDRB     r3,[sp,#8]
        0x002081ac:    2201        ."      MOVS     r2,#1
        0x002081ae:    3150        P1      ADDS     r1,r1,#0x50
        0x002081b0:    1e80        ..      SUBS     r0,r0,#2
        0x002081b2:    f5fffc54    ..T.    BL       log_buffer ; 0x7a5e
;;;845            service_id = 0xff;
        0x002081b6:    20ff        .       MOVS     r0,#0xff
        0x002081b8:    f88d0008    ....    STRB     r0,[sp,#8]
;;;846        }
;;;847    
;;;848        pfn_hids_cb = (P_FUN_SERVER_GENERAL_CB)p_func;
        0x002081bc:    4802        .H      LDR      r0,[pc,#8] ; [0x2081c8] = 0x20bad0
;;;849        return service_id;
        0x002081be:    6044        D`      STR      r4,[r0,#4]
        0x002081c0:    f89d0008    ....    LDRB     r0,[sp,#8]
;;;850    }
        0x002081c4:    bd3e        >.      POP      {r1-r5,pc}
    $d
        0x002081c6:    0000        ..      DCW    0
        0x002081c8:    0020bad0    .. .    DCD    2144976
        0x002081cc:    0020ba2e    .. .    DCD    2144814
        0x002081d0:    0020aecc    .. .    DCD    2141900
        0x002081d4:    0880006c    l...    DCD    142606444
        0x002081d8:    21103302    .3.!    DCD    554709762
        0x002081dc:    0020b24c    L. .    DCD    2142796
    $t
    .text
    bas_set_parameter
;;; .\..\..\..\src\ble\profile\server\bas.c
;;;137    {
        0x002081e0:    b510        ..      PUSH     {r4,lr}
        0x002081e2:    2401        .$      MOVS     r4,#1
        0x002081e4:    2801        .(      CMP      r0,#1
;;; .\..\..\..\src\ble\profile\server\bas.c (137)
        0x002081e6:    d006        ..      BEQ      0x2081f6 ; bas_set_parameter + 22
;;;138        bool ret = true;
;;;139    
;;;140        switch (param_type)
;;;141        {
;;;142        default:
;;;143            {
;;;144                ret = false;
        0x002081e8:    2400        .$      MOVS     r4,#0
;;;145                PROFILE_PRINT_ERROR0("bas_set_parameter failed");
        0x002081ea:    4622        "F      MOV      r2,r4
        0x002081ec:    4953        SI      LDR      r1,[pc,#332] ; [0x20833c] = 0x88000e0
        0x002081ee:    4854        TH      LDR      r0,[pc,#336] ; [0x208340] = 0x21103300
        0x002081f0:    f5fffc35    ..5.    BL       log_buffer ; 0x7a5e
;;;146            }
;;;147            break;
        0x002081f4:    e006        ..      B        0x208204 ; bas_set_parameter + 36
;;;148    
;;;149        case BAS_PARAM_BATTERY_LEVEL:
;;;150            {
;;;151                if (length != sizeof(uint8_t))
        0x002081f6:    2901        .)      CMP      r1,#1
        0x002081f8:    d001        ..      BEQ      0x2081fe ; bas_set_parameter + 30
;;;152                {
;;;153                    ret = false;
        0x002081fa:    2400        .$      MOVS     r4,#0
        0x002081fc:    e002        ..      B        0x208204 ; bas_set_parameter + 36
;;;154                }
;;;155                else
;;;156                {
;;;157                    battery_level = p_value[0];
        0x002081fe:    4951        QI      LDR      r1,[pc,#324] ; [0x208344] = 0x20bad8
        0x00208200:    7810        .x      LDRB     r0,[r2,#0]
        0x00208202:    7008        .p      STRB     r0,[r1,#0]
;;;158                }
;;;159            }
;;;160            break;
;;;161        }
;;;162    
;;;163        return ret;
        0x00208204:    4620         F      MOV      r0,r4
;;;164    }
        0x00208206:    bd10        ..      POP      {r4,pc}
    bas_battery_level_value_notify
;;;165    
;;;166    /**
;;;167     * @brief       Send notify battery level notification data .
;;;168     *
;;;169     * @param[in]   conn_id  Connection id.
;;;170     * @param[in]   service_id  Service id.
;;;171     * @param[in]   battery_level  Battery level value.
;;;172     * @return Operation result.
;;;173     * @retval true Operation success.
;;;174     * @retval false Operation failure.
;;;175     *
;;;176     * <b>Example usage</b>
;;;177     * \code{.c}
;;;178        void test(void)
;;;179        {
;;;180            uint8_t battery_level = 90;
;;;181            bas_battery_level_value_notify(conn_id, bas_id, battery_level);
;;;182        }
;;;183     * \endcode
;;;184     */
;;;185    bool bas_battery_level_value_notify(uint8_t conn_id, uint8_t service_id, uint8_t battery_level)
;;;186    {
        0x00208208:    b507        ..      PUSH     {r0-r2,lr}
        0x0020820a:    b082        ..      SUB      sp,sp,#8
;;;187        return server_send_data(conn_id, service_id, GATT_SVC_BAS_BATTERY_LEVEL_INDEX, &battery_level,
        0x0020820c:    2300        .#      MOVS     r3,#0
        0x0020820e:    2201        ."      MOVS     r2,#1
        0x00208210:    e9cd2300    ...#    STRD     r2,r3,[sp,#0]
        0x00208214:    ab04        ..      ADD      r3,sp,#0x10
        0x00208216:    2202        ."      MOVS     r2,#2
        0x00208218:    f647fac4    G...    BL       server_send_data ; 0x4f7a4
;;;188                                sizeof(battery_level), GATT_PDU_TYPE_ANY);
;;;189    }
        0x0020821c:    b005        ..      ADD      sp,sp,#0x14
        0x0020821e:    bd00        ..      POP      {pc}
    bas_battery_level_value_read_confirm
;;;190    
;;;191    /**
;;;192     * @brief       Confirm for read battery level value request.
;;;193     *
;;;194     * @param[in]   conn_id  Callback when service attribute was read/write.
;;;195     * @param[in]   service_id  Callback when service attribute was read/write.
;;;196     * @param[in]   battery_level  Callback when service attribute was read/write.
;;;197     * @return Operation result.
;;;198     * @retval true Operation success.
;;;199     * @retval false Operation failure.
;;;200     *
;;;201     * <b>Example usage</b>
;;;202     * \code{.c}
;;;203        void test(void)
;;;204        {
;;;205            uint8_t battery_level = 90;
;;;206            bas_battery_level_value_read_confirm(conn_id, bas_id, battery_level);
;;;207        }
;;;208     * \endcode
;;;209     */
;;;210    bool bas_battery_level_value_read_confirm(uint8_t conn_id, uint8_t service_id,
;;;211                                              uint8_t battery_level)
;;;212    {
        0x00208220:    b507        ..      PUSH     {r0-r2,lr}
        0x00208222:    4b48        HK      LDR      r3,[pc,#288] ; [0x208344] = 0x20bad8
;;; .\..\..\..\src\ble\profile\server\bas.c (212)
        0x00208224:    b082        ..      SUB      sp,sp,#8
        0x00208226:    785a        Zx      LDRB     r2,[r3,#1]
        0x00208228:    b14a        J.      CBZ      r2,0x20823e ; bas_battery_level_value_read_confirm + 30
;;;213        if (bas_read_battery_level_pending == true)
;;;214        {
;;;215            bas_read_battery_level_pending = false;
        0x0020822a:    2200        ."      MOVS     r2,#0
        0x0020822c:    705a        Zp      STRB     r2,[r3,#1]
;;;216            return server_attr_read_confirm(conn_id, service_id, GATT_SVC_BAS_BATTERY_LEVEL_INDEX,
        0x0020822e:    2301        .#      MOVS     r3,#1
        0x00208230:    e9cd3200    ...2    STRD     r3,r2,[sp,#0]
        0x00208234:    ab04        ..      ADD      r3,sp,#0x10
        0x00208236:    2202        ."      MOVS     r2,#2
        0x00208238:    f647fa2b    G.+.    BL       server_attr_read_confirm ; 0x4f692
        0x0020823c:    e7ee        ..      B        0x20821c ; bas_battery_level_value_notify + 20
;;;217                                            &battery_level, sizeof(battery_level), APP_RESULT_SUCCESS);
;;;218        }
;;;219        else
;;;220        {
;;;221            return false;
        0x0020823e:    2000        .       MOVS     r0,#0
;;;222        }
;;;223    }
        0x00208240:    e7ec        ..      B        0x20821c ; bas_battery_level_value_notify + 20
    bas_attr_read_cb
;;;224    
;;;225    /**
;;;226     * @brief read characteristic data from service.
;;;227     *
;;;228     * @param conn_id           Connection ID.
;;;229     * @param service_id        ServiceID to be read.
;;;230     * @param attrib_index      Attribute index of getting characteristic data.
;;;231     * @param offset            Offset of characteritic to be read.
;;;232     * @param p_length          Length of getting characteristic data.
;;;233     * @param pp_value          Pointer to pointer of characteristic value to be read.
;;;234     * @return T_APP_RESULT
;;;235    */
;;;236    T_APP_RESULT bas_attr_read_cb(uint8_t conn_id, T_SERVER_ID service_id, uint16_t attrib_index,
;;;237                                  uint16_t offset, uint16_t *p_length, uint8_t **pp_value)
;;;238    {
        0x00208242:    e92d43f8    -..C    PUSH     {r3-r9,lr}
        0x00208246:    4605        .F      MOV      r5,r0
        0x00208248:    e9dd6708    ...g    LDRD     r6,r7,[sp,#0x20]
        0x0020824c:    2000        .       MOVS     r0,#0
        0x0020824e:    8030        0.      STRH     r0,[r6,#0]
        0x00208250:    4688        .F      MOV      r8,r1
        0x00208252:    9300        ..      STR      r3,[sp,#0]
        0x00208254:    4939        9I      LDR      r1,[pc,#228] ; [0x20833c] = 0x88000e0
        0x00208256:    483a        :H      LDR      r0,[pc,#232] ; [0x208340] = 0x21103300
        0x00208258:    4614        .F      MOV      r4,r2
;;;239        T_APP_RESULT cause = APP_RESULT_SUCCESS;
;;;240        *p_length = 0;
;;;241    
;;;242        PROFILE_PRINT_INFO2("bas_attr_read_cb attrib_index = %d offset %x", attrib_index, offset);
        0x0020825a:    4613        .F      MOV      r3,r2
        0x0020825c:    2202        ."      MOVS     r2,#2
        0x0020825e:    311c        .1      ADDS     r1,r1,#0x1c
        0x00208260:    1c80        ..      ADDS     r0,r0,#2
        0x00208262:    f5fffbfc    ....    BL       log_buffer ; 0x7a5e
;;;243    
;;;244        switch (attrib_index)
        0x00208266:    2c02        .,      CMP      r4,#2
        0x00208268:    d00a        ..      BEQ      0x208280 ; bas_attr_read_cb + 62
;;;245        {
;;;246        default:
;;;247            {
;;;248                PROFILE_PRINT_ERROR1("bas_attr_read_cb attrib_index = %d not found", attrib_index);
        0x0020826a:    4934        4I      LDR      r1,[pc,#208] ; [0x20833c] = 0x88000e0
        0x0020826c:    4623        #F      MOV      r3,r4
        0x0020826e:    2201        ."      MOVS     r2,#1
        0x00208270:    314c        L1      ADDS     r1,r1,#0x4c
        0x00208272:    4833        3H      LDR      r0,[pc,#204] ; [0x208340] = 0x21103300
        0x00208274:    f5fffbf3    ....    BL       log_buffer ; 0x7a5e
;;;249                cause  = APP_RESULT_ATTR_NOT_FOUND;
        0x00208278:    f240400a    @..@    MOV      r0,#0x40a
        0x0020827c:    e8bd83f8    ....    POP      {r3-r9,pc}
;;;250            }
;;;251            break;
;;;252    
;;;253        case GATT_SVC_BAS_BATTERY_LEVEL_INDEX:
;;;254            {
;;;255                T_BAS_CALLBACK_DATA callback_data;
;;;256                callback_data.msg_type = SERVICE_CALLBACK_TYPE_READ_CHAR_VALUE;
        0x00208280:    2002        .       MOVS     r0,#2
        0x00208282:    f88d0001    ....    STRB     r0,[sp,#1]
;;;257                callback_data.conn_id = conn_id;
        0x00208286:    f88d5000    ...P    STRB     r5,[sp,#0]
        0x0020828a:    4d2e        .M      LDR      r5,[pc,#184] ; [0x208344] = 0x20bad8
;;;258                callback_data.msg_data.read_value_index = BAS_READ_BATTERY_LEVEL;
        0x0020828c:    2401        .$      MOVS     r4,#1
        0x0020828e:    f88d4002    ...@    STRB     r4,[sp,#2]
;;;259                cause = pfn_bas_cb(service_id, (void *)&callback_data);
        0x00208292:    686a        jh      LDR      r2,[r5,#4]
        0x00208294:    4669        iF      MOV      r1,sp
        0x00208296:    4640        @F      MOV      r0,r8
        0x00208298:    4790        .G      BLX      r2
;;;260                if (cause == APP_RESULT_PENDING)
        0x0020829a:    f5a06150    ..Pa    SUB      r1,r0,#0xd00
        0x0020829e:    3901        .9      SUBS     r1,#1
        0x002082a0:    d100        ..      BNE      0x2082a4 ; bas_attr_read_cb + 98
;;;261                {
;;;262                    bas_read_battery_level_pending = true;
        0x002082a2:    706c        lp      STRB     r4,[r5,#1]
;;;263                }
;;;264    
;;;265                *pp_value = &battery_level;
;;;266                *p_length = sizeof(battery_level);
        0x002082a4:    603d        =`      STR      r5,[r7,#0]
        0x002082a6:    8034        4.      STRH     r4,[r6,#0]
;;;267            }
;;;268            break;
;;;269        }
;;;270        return (cause);
;;;271    }
        0x002082a8:    e7e8        ..      B        0x20827c ; bas_attr_read_cb + 58
    bas_cccd_update_cb
;;;272    
;;;273    /**
;;;274     * @brief update CCCD bits from stack.
;;;275     *
;;;276     * @param conn_id           Connection ID.
;;;277     * @param service_id        Service ID.
;;;278     * @param index             Attribute index of characteristic data.
;;;279     * @param ccc_bits          CCCD bits from stack.
;;;280     * @return None
;;;281    */
;;;282    void bas_cccd_update_cb(uint8_t conn_id, T_SERVER_ID service_id, uint16_t index, uint16_t ccc_bits)
;;;283    {
        0x002082aa:    e92d41fc    -..A    PUSH     {r2-r8,lr}
        0x002082ae:    2601        .&      MOVS     r6,#1
        0x002082b0:    f88d6005    ...`    STRB     r6,[sp,#5]
        0x002082b4:    4688        .F      MOV      r8,r1
        0x002082b6:    f88d0004    ....    STRB     r0,[sp,#4]
        0x002082ba:    461d        .F      MOV      r5,r3
        0x002082bc:    9300        ..      STR      r3,[sp,#0]
        0x002082be:    491f        .I      LDR      r1,[pc,#124] ; [0x20833c] = 0x88000e0
        0x002082c0:    481f        .H      LDR      r0,[pc,#124] ; [0x208340] = 0x21103300
        0x002082c2:    4617        .F      MOV      r7,r2
        0x002082c4:    4613        .F      MOV      r3,r2
;;;284        T_BAS_CALLBACK_DATA callback_data;
;;;285        callback_data.msg_type = SERVICE_CALLBACK_TYPE_INDIFICATION_NOTIFICATION;
;;;286        callback_data.conn_id = conn_id;
;;;287        bool handle = true;
        0x002082c6:    4634        4F      MOV      r4,r6
;;;288        PROFILE_PRINT_INFO2("bas_cccd_update_cb index = %d ccc_bits %x", index, ccc_bits);
        0x002082c8:    2202        ."      MOVS     r2,#2
        0x002082ca:    317c        |1      ADDS     r1,r1,#0x7c
        0x002082cc:    1c80        ..      ADDS     r0,r0,#2
        0x002082ce:    f5fffbc6    ....    BL       log_buffer ; 0x7a5e
;;;289    
;;;290        switch (index)
        0x002082d2:    2f03        ./      CMP      r7,#3
        0x002082d4:    d00b        ..      BEQ      0x2082ee ; bas_cccd_update_cb + 68
;;;291        {
;;;292        case GATT_SVC_BAS_CHAR_CCCD_INDEX:
;;;293            {
;;;294                if (ccc_bits & GATT_CLIENT_CHAR_CONFIG_NOTIFY)
;;;295                {
;;;296                    callback_data.msg_data.notification_indification_index = BAS_NOTIFY_BATTERY_LEVEL_ENABLE;
;;;297                }
;;;298                else
;;;299                {
;;;300                    callback_data.msg_data.notification_indification_index = BAS_NOTIFY_BATTERY_LEVEL_DISABLE;
;;;301                }
;;;302                break;
;;;303            }
;;;304        default:
;;;305            {
;;;306                handle = false;
        0x002082d6:    2400        .$      MOVS     r4,#0
;;;307                break;
;;;308            }
;;;309    
;;;310        }
;;;311    
;;;312        if (pfn_bas_cb && (handle == true))
        0x002082d8:    481a        .H      LDR      r0,[pc,#104] ; [0x208344] = 0x20bad8
        0x002082da:    6842        Bh      LDR      r2,[r0,#4]
        0x002082dc:    2a00        .*      CMP      r2,#0
        0x002082de:    d004        ..      BEQ      0x2082ea ; bas_cccd_update_cb + 64
        0x002082e0:    2c00        .,      CMP      r4,#0
        0x002082e2:    d002        ..      BEQ      0x2082ea ; bas_cccd_update_cb + 64
;;;313        {
;;;314            pfn_bas_cb(service_id, (void *)&callback_data);
        0x002082e4:    a901        ..      ADD      r1,sp,#4
        0x002082e6:    4640        @F      MOV      r0,r8
        0x002082e8:    4790        .G      BLX      r2
;;;315        }
;;;316    
;;;317        return;
;;;318    }
        0x002082ea:    e8bd81fc    ....    POP      {r2-r8,pc}
        0x002082ee:    07e8        ..      LSLS     r0,r5,#31
        0x002082f0:    d002        ..      BEQ      0x2082f8 ; bas_cccd_update_cb + 78
        0x002082f2:    f88d6006    ...`    STRB     r6,[sp,#6]
        0x002082f6:    e7ef        ..      B        0x2082d8 ; bas_cccd_update_cb + 46
        0x002082f8:    2002        .       MOVS     r0,#2
        0x002082fa:    f88d0006    ....    STRB     r0,[sp,#6]
        0x002082fe:    e7eb        ..      B        0x2082d8 ; bas_cccd_update_cb + 46
    bas_add_service
;;;319    
;;;320    /**
;;;321     * @brief BAS Service Callbacks.
;;;322    */
;;;323    const T_FUN_GATT_SERVICE_CBS bas_cbs =
;;;324    {
;;;325        bas_attr_read_cb,  // Read callback function pointer
;;;326        NULL, // Write callback function pointer
;;;327        bas_cccd_update_cb  // CCCD update callback function pointer
;;;328    };
;;;329    
;;;330    /**
;;;331      * @brief       Add battery service to the BLE stack database.
;;;332      *
;;;333      *
;;;334      * @param[in]   p_func  Callback when service attribute was read, write or cccd update.
;;;335      * @return Service id generated by the BLE stack: @ref T_SERVER_ID.
;;;336      * @retval 0xFF Operation failure.
;;;337      * @retval Others Service id assigned by stack.
;;;338      *
;;;339      * <b>Example usage</b>
;;;340      * \code{.c}
;;;341         void profile_init()
;;;342         {
;;;343             server_init(1);
;;;344             bas_id = bas_add_service(app_handle_profile_message);
;;;345         }
;;;346      * \endcode
;;;347      */
;;;348    T_SERVER_ID bas_add_service(void *p_func)
;;;349    {
        0x00208300:    b53e        >.      PUSH     {r1-r5,lr}
        0x00208302:    4604        .F      MOV      r4,r0
;;;350        T_SERVER_ID service_id;
;;;351        if (false == server_add_service(&service_id,
        0x00208304:    4810        .H      LDR      r0,[pc,#64] ; [0x208348] = 0x20b298
        0x00208306:    e9d0121d    ....    LDRD     r1,r2,[r0,#0x74]
        0x0020830a:    e9cd1200    ....    STRD     r1,r2,[sp,#0]
        0x0020830e:    4601        .F      MOV      r1,r0
        0x00208310:    6f03        .o      LDR      r3,[r0,#0x70]
        0x00208312:    2270        p"      MOVS     r2,#0x70
        0x00208314:    a802        ..      ADD      r0,sp,#8
        0x00208316:    f647f9aa    G...    BL       server_add_service ; 0x4f66e
        0x0020831a:    b950        P.      CBNZ     r0,0x208332 ; bas_add_service + 50
;;;352                                        (uint8_t *)bas_attr_tbl,
;;;353                                        bas_attr_tbl_size,
;;;354                                        bas_cbs))
;;;355        {
;;;356            PROFILE_PRINT_ERROR1("bas_add_service: service_id %d", service_id);
        0x0020831c:    4907        .I      LDR      r1,[pc,#28] ; [0x20833c] = 0x88000e0
        0x0020831e:    f89d3008    ...0    LDRB     r3,[sp,#8]
        0x00208322:    2201        ."      MOVS     r2,#1
        0x00208324:    31ac        .1      ADDS     r1,r1,#0xac
        0x00208326:    4806        .H      LDR      r0,[pc,#24] ; [0x208340] = 0x21103300
        0x00208328:    f5fffb99    ....    BL       log_buffer ; 0x7a5e
;;;357            service_id = 0xff;
        0x0020832c:    20ff        .       MOVS     r0,#0xff
        0x0020832e:    f88d0008    ....    STRB     r0,[sp,#8]
;;;358        }
;;;359        pfn_bas_cb = (P_FUN_SERVER_GENERAL_CB)p_func;
        0x00208332:    4804        .H      LDR      r0,[pc,#16] ; [0x208344] = 0x20bad8
;;;360        return service_id;
        0x00208334:    6044        D`      STR      r4,[r0,#4]
        0x00208336:    f89d0008    ....    LDRB     r0,[sp,#8]
;;;361    }
        0x0020833a:    bd3e        >.      POP      {r1-r5,pc}
    $d
        0x0020833c:    088000e0    ....    DCD    142606560
        0x00208340:    21103300    .3.!    DCD    554709760
        0x00208344:    0020bad8    .. .    DCD    2144984
        0x00208348:    0020b298    .. .    DCD    2142872
    $t
    .text
    dis_set_parameter
;;; .\..\..\..\src\ble\profile\server\dis.c
;;;422    {
        0x0020834c:    b570        p.      PUSH     {r4-r6,lr}
        0x0020834e:    4613        .F      MOV      r3,r2
;;;423        bool ret = true;
        0x00208350:    2401        .$      MOVS     r4,#1
        0x00208352:    4a9a        .J      LDR      r2,[pc,#616] ; [0x2085bc] = 0x20bae0
;;;424    
;;;425        switch (param_type)
        0x00208354:    2809        .(      CMP      r0,#9
        0x00208356:    d206        ..      BCS      0x208366 ; dis_set_parameter + 26
        0x00208358:    e8dff000    ....    TBB      [pc,r0]
    $d
        0x0020835c:    2a21150c    ..!*    DCD    706811148
        0x00208360:    4c453c33    3<EL    DCD    1279605811
        0x00208364:    0056        V.      DCW    86
    $t
;;;426        {
;;;427        default:
;;;428            ret = false;
        0x00208366:    2400        .$      MOVS     r4,#0
        0x00208368:    4622        "F      MOV      r2,r4
        0x0020836a:    4995        .I      LDR      r1,[pc,#596] ; [0x2085c0] = 0x88001b0
        0x0020836c:    4895        .H      LDR      r0,[pc,#596] ; [0x2085c4] = 0x21103300
        0x0020836e:    f5fffb76    ..v.    BL       log_buffer ; 0x7a5e
;;;429            break;
        0x00208372:    e012        ..      B        0x20839a ; dis_set_parameter + 78
;;;430    
;;;431    #if DIS_CHAR_MANUFACTURER_NAME_SUPPORT
;;;432        case DIS_PARAM_MANUFACTURER_NAME:
;;;433            if (length > DIS_CHAR_MANUFACTURER_NAME_STR_MAX_LENGTH)
        0x00208374:    2914        .)      CMP      r1,#0x14
        0x00208376:    d900        ..      BLS      0x20837a ; dis_set_parameter + 46
;;;434            {
;;;435                length = DIS_CHAR_MANUFACTURER_NAME_STR_MAX_LENGTH;
        0x00208378:    2114        .!      MOVS     r1,#0x14
;;;436            }
;;;437            dis_manufacturer_name_len = length;
        0x0020837a:    7011        .p      STRB     r1,[r2,#0]
;;;438            memcpy(dis_manufacturer_name, p_value, length);
        0x0020837c:    488f        .H      LDR      r0,[pc,#572] ; [0x2085bc] = 0x20bae0
        0x0020837e:    460a        .F      MOV      r2,r1
        0x00208380:    4619        .F      MOV      r1,r3
        0x00208382:    300c        .0      ADDS     r0,r0,#0xc
;;;439            break;
        0x00208384:    e007        ..      B        0x208396 ; dis_set_parameter + 74
;;;440    #endif
;;;441    
;;;442    #if DIS_CHAR_MODEL_NUMBER_SUPPORT
;;;443        case DIS_PARAM_MODEL_NUMBER:
;;;444            if (length > DIS_CHAR_MODEL_NUMBER_STR_MAX_LENGTH)
        0x00208386:    2914        .)      CMP      r1,#0x14
        0x00208388:    d900        ..      BLS      0x20838c ; dis_set_parameter + 64
;;;445            {
;;;446                length = DIS_CHAR_MODEL_NUMBER_STR_MAX_LENGTH;
        0x0020838a:    2114        .!      MOVS     r1,#0x14
;;;447            }
;;;448            dis_model_number_len = length;
        0x0020838c:    7051        Qp      STRB     r1,[r2,#1]
;;;449            memcpy(dis_model_number, p_value, length);
        0x0020838e:    488b        .H      LDR      r0,[pc,#556] ; [0x2085bc] = 0x20bae0
        0x00208390:    460a        .F      MOV      r2,r1
        0x00208392:    4619        .F      MOV      r1,r3
        0x00208394:    3020         0      ADDS     r0,r0,#0x20
        0x00208396:    f651fd80    Q...    BL       __aeabi_memcpy ; 0x59e9a
        0x0020839a:    4620         F      MOV      r0,r4
        0x0020839c:    bd70        p.      POP      {r4-r6,pc}
;;;450            break;
;;;451    #endif
;;;452    
;;;453    #if DIS_CHAR_SERIAL_NUMBER_SUPPORT
;;;454        case DIS_PARAM_SERIAL_NUMBER:
;;;455            if (length > DIS_CHAR_SERIAL_NUMBER_STR_MAX_LENGTH)
        0x0020839e:    2914        .)      CMP      r1,#0x14
        0x002083a0:    d900        ..      BLS      0x2083a4 ; dis_set_parameter + 88
;;;456            {
;;;457                length = DIS_CHAR_SERIAL_NUMBER_STR_MAX_LENGTH;
        0x002083a2:    2114        .!      MOVS     r1,#0x14
;;;458            }
;;;459            dis_serial_number_len = length;
        0x002083a4:    7091        .p      STRB     r1,[r2,#2]
;;;460            memcpy(dis_serial_number, p_value, length);
        0x002083a6:    4885        .H      LDR      r0,[pc,#532] ; [0x2085bc] = 0x20bae0
        0x002083a8:    460a        .F      MOV      r2,r1
        0x002083aa:    4619        .F      MOV      r1,r3
        0x002083ac:    3034        40      ADDS     r0,r0,#0x34
;;;461    
;;;462            break;
        0x002083ae:    e7f2        ..      B        0x208396 ; dis_set_parameter + 74
;;;463    #endif
;;;464    
;;;465    #if DIS_CHAR_HARDWARE_REVISION_SUPPORT
;;;466        case DIS_PARAM_HARDWARE_REVISION:
;;;467            if (length > DIS_CHAR_HARDWARE_REVISION_STR_MAX_LENGTH)
        0x002083b0:    2914        .)      CMP      r1,#0x14
        0x002083b2:    d900        ..      BLS      0x2083b6 ; dis_set_parameter + 106
;;;468            {
;;;469                length = DIS_CHAR_HARDWARE_REVISION_STR_MAX_LENGTH;
        0x002083b4:    2114        .!      MOVS     r1,#0x14
;;;470            }
;;;471            dis_hardware_rev_len = length;
        0x002083b6:    70d1        .p      STRB     r1,[r2,#3]
;;;472            memcpy(dis_hardware_rev, p_value, length);
        0x002083b8:    4880        .H      LDR      r0,[pc,#512] ; [0x2085bc] = 0x20bae0
        0x002083ba:    460a        .F      MOV      r2,r1
        0x002083bc:    4619        .F      MOV      r1,r3
        0x002083be:    3048        H0      ADDS     r0,r0,#0x48
;;;473            break;
        0x002083c0:    e7e9        ..      B        0x208396 ; dis_set_parameter + 74
;;;474    #endif
;;;475    
;;;476    #if DIS_CHAR_FIRMWARE_REVISION_SUPPORT
;;;477        case DIS_PARAM_FIRMWARE_REVISION:
;;;478            if (length > DIS_CHAR_FIRMWARE_REVISION_STR_MAX_LENGTH)
        0x002083c2:    2914        .)      CMP      r1,#0x14
        0x002083c4:    d900        ..      BLS      0x2083c8 ; dis_set_parameter + 124
;;;479            {
;;;480                length = DIS_CHAR_FIRMWARE_REVISION_STR_MAX_LENGTH;
        0x002083c6:    2114        .!      MOVS     r1,#0x14
;;;481            }
;;;482            dis_firmware_rev_len = length;
        0x002083c8:    7111        .q      STRB     r1,[r2,#4]
;;;483            memcpy(dis_firmware_rev, p_value, length);
        0x002083ca:    487c        |H      LDR      r0,[pc,#496] ; [0x2085bc] = 0x20bae0
        0x002083cc:    460a        .F      MOV      r2,r1
        0x002083ce:    4619        .F      MOV      r1,r3
        0x002083d0:    305c        \0      ADDS     r0,r0,#0x5c
;;;484            break;
        0x002083d2:    e7e0        ..      B        0x208396 ; dis_set_parameter + 74
;;;485    #endif
;;;486    
;;;487    #if DIS_CHAR_SOFTWARE_REVISION_SUPPORT
;;;488        case DIS_PARAM_SOFTWARE_REVISION:
;;;489            if (length > DIS_CHAR_SOFTWARE_REVISION_STR_MAX_LENGTH)
        0x002083d4:    2914        .)      CMP      r1,#0x14
        0x002083d6:    d900        ..      BLS      0x2083da ; dis_set_parameter + 142
;;;490            {
;;;491                length = DIS_CHAR_SOFTWARE_REVISION_STR_MAX_LENGTH;
        0x002083d8:    2114        .!      MOVS     r1,#0x14
;;;492            }
;;;493            dis_software_rev_len = length;
        0x002083da:    7151        Qq      STRB     r1,[r2,#5]
;;;494            memcpy(dis_software_rev, p_value, length);
        0x002083dc:    4877        wH      LDR      r0,[pc,#476] ; [0x2085bc] = 0x20bae0
        0x002083de:    460a        .F      MOV      r2,r1
        0x002083e0:    4619        .F      MOV      r1,r3
        0x002083e2:    3070        p0      ADDS     r0,r0,#0x70
;;;495            break;
        0x002083e4:    e7d7        ..      B        0x208396 ; dis_set_parameter + 74
;;;496    #endif
;;;497    
;;;498    #if DIS_CHAR_SYSTEM_ID_SUPPORT
;;;499        case DIS_PARAM_SYSTEM_ID:
;;;500            if (length > DIS_SYSTEM_ID_LENGTH)
        0x002083e6:    2908        .)      CMP      r1,#8
        0x002083e8:    d900        ..      BLS      0x2083ec ; dis_set_parameter + 160
;;;501            {
;;;502                length = DIS_SYSTEM_ID_LENGTH;
        0x002083ea:    2108        .!      MOVS     r1,#8
;;;503            }
;;;504            memcpy(dis_system_id, p_value, length);
        0x002083ec:    460a        .F      MOV      r2,r1
        0x002083ee:    4619        .F      MOV      r1,r3
        0x002083f0:    4875        uH      LDR      r0,[pc,#468] ; [0x2085c8] = 0x20ba3a
;;;505            break;
        0x002083f2:    e7d0        ..      B        0x208396 ; dis_set_parameter + 74
;;;506    #endif
;;;507    
;;;508    #if DIS_CHAR_IEEE_CERTIF_DATA_LIST_SUPPORT
;;;509        case DIS_PARAM_IEEE_DATA_LIST:
;;;510            if (length > DIS_CHAR_IEEE_CERTIF_DATA_LIST_MAX_LENGTH)
        0x002083f4:    291e        .)      CMP      r1,#0x1e
        0x002083f6:    d900        ..      BLS      0x2083fa ; dis_set_parameter + 174
;;;511            {
;;;512                length = DIS_CHAR_IEEE_CERTIF_DATA_LIST_MAX_LENGTH;
        0x002083f8:    211e        .!      MOVS     r1,#0x1e
;;;513            }
;;;514            dis_ieee_data_list_len = length;
        0x002083fa:    4873        sH      LDR      r0,[pc,#460] ; [0x2085c8] = 0x20ba3a
        0x002083fc:    460a        .F      MOV      r2,r1
        0x002083fe:    3808        .8      SUBS     r0,r0,#8
        0x00208400:    7001        .p      STRB     r1,[r0,#0]
;;;515            memcpy(dis_ieee_data_list, p_value, length);
        0x00208402:    4619        .F      MOV      r1,r3
        0x00208404:    3010        .0      ADDS     r0,r0,#0x10
;;;516            break;
        0x00208406:    e7c6        ..      B        0x208396 ; dis_set_parameter + 74
;;;517    #endif
;;;518    
;;;519    #if DIS_CHAR_PNP_ID_SUPPORT
;;;520        case DIS_PARAM_PNP_ID:
;;;521            if (length > DIS_PNP_ID_LENGTH)
        0x00208408:    2907        .)      CMP      r1,#7
        0x0020840a:    d900        ..      BLS      0x20840e ; dis_set_parameter + 194
;;;522            {
;;;523                length = DIS_PNP_ID_LENGTH;
        0x0020840c:    2107        .!      MOVS     r1,#7
;;;524            }
;;;525            memcpy(dis_pnp_id, p_value, length);
        0x0020840e:    486e        nH      LDR      r0,[pc,#440] ; [0x2085c8] = 0x20ba3a
        0x00208410:    460a        .F      MOV      r2,r1
        0x00208412:    4619        .F      MOV      r1,r3
        0x00208414:    1fc0        ..      SUBS     r0,r0,#7
;;;526            break;
        0x00208416:    e7be        ..      B        0x208396 ; dis_set_parameter + 74
    dis_attr_read_cb
;;;527    #endif
;;;528        }
;;;529    
;;;530        if (!ret)
;;;531        {
;;;532            PROFILE_PRINT_ERROR0("DIS parameter set failed");
;;;533        }
;;;534    
;;;535        return ret;
;;;536    }
;;;537    
;;;538    /**
;;;539     * @brief Read characteristic data from service.
;;;540     *
;;;541     * @param[in]   conn_id  Connection id.
;;;542     * @param[in] service_id            ServiceID to be read.
;;;543     * @param[in] attrib_index          Attribute index of getting characteristic data.
;;;544     * @param[in] offset                offset of characteritic to be read.
;;;545     * @param[in,out] length_ptr            length of getting characteristic data.
;;;546     * @param[in,out] pp_value              pointer to pointer of characteristic value to be read.
;;;547     * @return T_APP_RESULT
;;;548    */
;;;549    T_APP_RESULT dis_attr_read_cb(uint8_t conn_id, T_SERVER_ID service_id, uint16_t attrib_index,
;;;550                                  uint16_t offset, uint16_t *length_ptr, uint8_t **pp_value)
;;;551    {
        0x00208418:    e92d47fc    -..G    PUSH     {r2-r10,lr}
        0x0020841c:    4692        .F      MOV      r10,r2
        0x0020841e:    e9dd450a    ...E    LDRD     r4,r5,[sp,#0x28]
        0x00208422:    460a        .F      MOV      r2,r1
;;;552        T_DIS_CALLBACK_DATA callback_data;
;;;553        T_APP_RESULT  cause  = APP_RESULT_SUCCESS;
        0x00208424:    2600        .&      MOVS     r6,#0
;;;554        *length_ptr = 0;
        0x00208426:    8026        &.      STRH     r6,[r4,#0]
;;;555        callback_data.msg_type = SERVICE_CALLBACK_TYPE_READ_CHAR_VALUE;
        0x00208428:    2102        .!      MOVS     r1,#2
        0x0020842a:    f88d1004    ....    STRB     r1,[sp,#4]
;;;556        callback_data.conn_id = conn_id;
        0x0020842e:    f88d0005    ....    STRB     r0,[sp,#5]
;;;557    
;;;558        switch (attrib_index)
        0x00208432:    f1aa0002    ....    SUB      r0,r10,#2
        0x00208436:    2708        .'      MOVS     r7,#8
        0x00208438:    f8df8180    ....    LDR      r8,[pc,#384] ; [0x2085bc] = 0x20bae0
        0x0020843c:    f04f0907    O...    MOV      r9,#7
        0x00208440:    2811        .(      CMP      r0,#0x11
        0x00208442:    d20a        ..      BCS      0x20845a ; dis_attr_read_cb + 66
        0x00208444:    e8dff000    ....    TBB      [pc,r0]
    $d
        0x00208448:    098c091e    ....    DCD    160172318
        0x0020844c:    0949092c    ,.I.    DCD    155781420
        0x00208450:    0957093b    ;.W.    DCD    156698939
        0x00208454:    09650913    ..e.    DCD    157616403
        0x00208458:    0072        r.      DCW    114
    $t
;;;559        {
;;;560        default:
;;;561            PROFILE_PRINT_ERROR1("dis_attr_read_cb: attrib_index %d", attrib_index);
        0x0020845a:    4959        YI      LDR      r1,[pc,#356] ; [0x2085c0] = 0x88001b0
        0x0020845c:    4653        SF      MOV      r3,r10
        0x0020845e:    2201        ."      MOVS     r2,#1
        0x00208460:    311c        .1      ADDS     r1,r1,#0x1c
        0x00208462:    4858        XH      LDR      r0,[pc,#352] ; [0x2085c4] = 0x21103300
        0x00208464:    f5fffafb    ....    BL       log_buffer ; 0x7a5e
;;;562            cause = APP_RESULT_ATTR_NOT_FOUND;
        0x00208468:    f240460a    @..F    MOV      r6,#0x40a
;;;563            break;
        0x0020846c:    e06b        k.      B        0x208546 ; dis_attr_read_cb + 302
;;;564    
;;;565    #if DIS_CHAR_SYSTEM_ID_SUPPORT
;;;566        case GATT_SVC_DIS_SYSTEM_ID_INDEX:
;;;567            callback_data.msg_data.read_value_index = DIS_READ_SYSTEM_ID_INDEX;
        0x0020846e:    f88d9006    ....    STRB     r9,[sp,#6]
;;;568            pfn_dis_cb(service_id, (void *)&callback_data);
        0x00208472:    4610        .F      MOV      r0,r2
        0x00208474:    f8d82008    ...     LDR      r2,[r8,#8]
        0x00208478:    a901        ..      ADD      r1,sp,#4
        0x0020847a:    4790        .G      BLX      r2
;;;569            *pp_value    = (uint8_t *)&dis_system_id;
        0x0020847c:    4852        RH      LDR      r0,[pc,#328] ; [0x2085c8] = 0x20ba3a
;;;570            *length_ptr = sizeof(dis_system_id);
        0x0020847e:    6028        (`      STR      r0,[r5,#0]
        0x00208480:    8027        '.      STRH     r7,[r4,#0]
;;;571            break;
        0x00208482:    e060        `.      B        0x208546 ; dis_attr_read_cb + 302
;;;572    #endif
;;;573    
;;;574    #if DIS_CHAR_MANUFACTURER_NAME_SUPPORT
;;;575        case GATT_SVC_DIS_MANU_NAME_INDEX:
;;;576            callback_data.msg_data.read_value_index = DIS_READ_MANU_NAME_INDEX;
        0x00208484:    2001        .       MOVS     r0,#1
        0x00208486:    f88d0006    ....    STRB     r0,[sp,#6]
;;;577            pfn_dis_cb(service_id, (void *)&callback_data);
        0x0020848a:    4610        .F      MOV      r0,r2
        0x0020848c:    f8d82008    ...     LDR      r2,[r8,#8]
        0x00208490:    a901        ..      ADD      r1,sp,#4
        0x00208492:    4790        .G      BLX      r2
;;;578            *pp_value    = (uint8_t *)&dis_manufacturer_name;
        0x00208494:    4849        IH      LDR      r0,[pc,#292] ; [0x2085bc] = 0x20bae0
        0x00208496:    300c        .0      ADDS     r0,r0,#0xc
;;;579            *length_ptr = dis_manufacturer_name_len;
        0x00208498:    6028        (`      STR      r0,[r5,#0]
        0x0020849a:    f8980000    ....    LDRB     r0,[r8,#0]
;;;580            break;
        0x0020849e:    e00c        ..      B        0x2084ba ; dis_attr_read_cb + 162
;;;581    #endif
;;;582    
;;;583    #if DIS_CHAR_SERIAL_NUMBER_SUPPORT
;;;584        case GATT_SVC_DIS_SERIAL_NUM_INDEX:
;;;585            callback_data.msg_data.read_value_index = DIS_READ_SERIAL_NUM_INDEX;
        0x002084a0:    2003        .       MOVS     r0,#3
        0x002084a2:    f88d0006    ....    STRB     r0,[sp,#6]
;;;586            pfn_dis_cb(service_id, (void *)&callback_data);
        0x002084a6:    4610        .F      MOV      r0,r2
        0x002084a8:    f8d82008    ...     LDR      r2,[r8,#8]
        0x002084ac:    a901        ..      ADD      r1,sp,#4
        0x002084ae:    4790        .G      BLX      r2
;;;587            *pp_value    = (uint8_t *)&dis_serial_number;
        0x002084b0:    4842        BH      LDR      r0,[pc,#264] ; [0x2085bc] = 0x20bae0
        0x002084b2:    3034        40      ADDS     r0,r0,#0x34
;;;588            *length_ptr = dis_serial_number_len;
        0x002084b4:    6028        (`      STR      r0,[r5,#0]
        0x002084b6:    f8980002    ....    LDRB     r0,[r8,#2]
        0x002084ba:    8020         .      STRH     r0,[r4,#0]
        0x002084bc:    e043        C.      B        0x208546 ; dis_attr_read_cb + 302
;;;589            break;
;;;590    #endif
;;;591    
;;;592    #if DIS_CHAR_FIRMWARE_REVISION_SUPPORT
;;;593        case GATT_SVC_DIS_FIRMWARE_REV_INDEX:
;;;594            callback_data.msg_data.read_value_index = DIS_READ_FIRMWARE_REV_INDEX;
        0x002084be:    2005        .       MOVS     r0,#5
        0x002084c0:    f88d0006    ....    STRB     r0,[sp,#6]
;;;595            pfn_dis_cb(service_id, (void *)&callback_data);
        0x002084c4:    4610        .F      MOV      r0,r2
        0x002084c6:    f8d82008    ...     LDR      r2,[r8,#8]
        0x002084ca:    a901        ..      ADD      r1,sp,#4
        0x002084cc:    4790        .G      BLX      r2
;;;596            *pp_value    = (uint8_t *)&dis_firmware_rev;
        0x002084ce:    483b        ;H      LDR      r0,[pc,#236] ; [0x2085bc] = 0x20bae0
        0x002084d0:    305c        \0      ADDS     r0,r0,#0x5c
;;;597            *length_ptr = dis_firmware_rev_len;
        0x002084d2:    6028        (`      STR      r0,[r5,#0]
        0x002084d4:    f8980004    ....    LDRB     r0,[r8,#4]
;;;598            break;
        0x002084d8:    e7ef        ..      B        0x2084ba ; dis_attr_read_cb + 162
;;;599    #endif
;;;600    
;;;601    #if DIS_CHAR_HARDWARE_REVISION_SUPPORT
;;;602        case GATT_SVC_DIS_HARDWARE_REV_INDEX:
;;;603            callback_data.msg_data.read_value_index = DIS_READ_HARDWARE_REV_INDEX;
        0x002084da:    2004        .       MOVS     r0,#4
        0x002084dc:    f88d0006    ....    STRB     r0,[sp,#6]
;;;604            pfn_dis_cb(service_id, (void *)&callback_data);
        0x002084e0:    4610        .F      MOV      r0,r2
        0x002084e2:    f8d82008    ...     LDR      r2,[r8,#8]
        0x002084e6:    a901        ..      ADD      r1,sp,#4
        0x002084e8:    4790        .G      BLX      r2
;;;605            *pp_value    = (uint8_t *)&dis_hardware_rev;
        0x002084ea:    4834        4H      LDR      r0,[pc,#208] ; [0x2085bc] = 0x20bae0
        0x002084ec:    3048        H0      ADDS     r0,r0,#0x48
;;;606            *length_ptr = dis_hardware_rev_len;
        0x002084ee:    6028        (`      STR      r0,[r5,#0]
        0x002084f0:    f8980003    ....    LDRB     r0,[r8,#3]
;;;607            break;
        0x002084f4:    e7e1        ..      B        0x2084ba ; dis_attr_read_cb + 162
;;;608    #endif
;;;609    
;;;610    #if DIS_CHAR_SOFTWARE_REVISION_SUPPORT
;;;611        case GATT_SVC_DIS_SOFTWARE_REV_INDEX:
;;;612            callback_data.msg_data.read_value_index = DIS_READ_SOFTWARE_REV_INDEX;
        0x002084f6:    2006        .       MOVS     r0,#6
        0x002084f8:    f88d0006    ....    STRB     r0,[sp,#6]
;;;613            pfn_dis_cb(service_id, (void *)&callback_data);
        0x002084fc:    4610        .F      MOV      r0,r2
        0x002084fe:    f8d82008    ...     LDR      r2,[r8,#8]
        0x00208502:    a901        ..      ADD      r1,sp,#4
        0x00208504:    4790        .G      BLX      r2
;;;614            *pp_value    = (uint8_t *)&dis_software_rev;
        0x00208506:    482d        -H      LDR      r0,[pc,#180] ; [0x2085bc] = 0x20bae0
        0x00208508:    3070        p0      ADDS     r0,r0,#0x70
;;;615            *length_ptr = dis_software_rev_len;
        0x0020850a:    6028        (`      STR      r0,[r5,#0]
        0x0020850c:    f8980005    ....    LDRB     r0,[r8,#5]
;;;616            break;
        0x00208510:    e7d3        ..      B        0x2084ba ; dis_attr_read_cb + 162
;;;617    #endif
;;;618    
;;;619    #if DIS_CHAR_IEEE_CERTIF_DATA_LIST_SUPPORT
;;;620        case GATT_SVC_DIS_IEEE_CERT_STR_INDEX:
;;;621            callback_data.msg_data.read_value_index = DIS_READ_IEEE_CERT_STR_INDEX;
        0x00208512:    f88d7006    ...p    STRB     r7,[sp,#6]
;;;622            pfn_dis_cb(service_id, (void *)&callback_data);
        0x00208516:    4610        .F      MOV      r0,r2
        0x00208518:    f8d82008    ...     LDR      r2,[r8,#8]
        0x0020851c:    a901        ..      ADD      r1,sp,#4
        0x0020851e:    4790        .G      BLX      r2
;;;623            *pp_value    = (uint8_t *)&dis_ieee_data_list;
        0x00208520:    4829        )H      LDR      r0,[pc,#164] ; [0x2085c8] = 0x20ba3a
        0x00208522:    3008        .0      ADDS     r0,r0,#8
;;;624            *length_ptr = dis_ieee_data_list_len;
        0x00208524:    6028        (`      STR      r0,[r5,#0]
        0x00208526:    3810        .8      SUBS     r0,r0,#0x10
        0x00208528:    7800        .x      LDRB     r0,[r0,#0]
;;;625            break;
        0x0020852a:    e7c6        ..      B        0x2084ba ; dis_attr_read_cb + 162
;;;626    #endif
;;;627    
;;;628    #if DIS_CHAR_PNP_ID_SUPPORT
;;;629        case GATT_SVC_DIS_PNP_ID_INDEX:
;;;630            callback_data.msg_data.read_value_index = DIS_READ_PNP_ID_INDEX;
        0x0020852c:    2009        .       MOVS     r0,#9
        0x0020852e:    f88d0006    ....    STRB     r0,[sp,#6]
;;;631            pfn_dis_cb(service_id, (void *)&callback_data);
        0x00208532:    4610        .F      MOV      r0,r2
        0x00208534:    f8d82008    ...     LDR      r2,[r8,#8]
        0x00208538:    a901        ..      ADD      r1,sp,#4
        0x0020853a:    4790        .G      BLX      r2
;;;632            *pp_value    = (uint8_t *)&dis_pnp_id;
        0x0020853c:    4822        "H      LDR      r0,[pc,#136] ; [0x2085c8] = 0x20ba3a
        0x0020853e:    1fc0        ..      SUBS     r0,r0,#7
;;;633            *length_ptr = sizeof(dis_pnp_id);
        0x00208540:    6028        (`      STR      r0,[r5,#0]
        0x00208542:    f8a49000    ....    STRH     r9,[r4,#0]
        0x00208546:    8820         .      LDRH     r0,[r4,#0]
        0x00208548:    9000        ..      STR      r0,[sp,#0]
        0x0020854a:    491d        .I      LDR      r1,[pc,#116] ; [0x2085c0] = 0x88001b0
        0x0020854c:    481d        .H      LDR      r0,[pc,#116] ; [0x2085c4] = 0x21103300
        0x0020854e:    4653        SF      MOV      r3,r10
        0x00208550:    2202        ."      MOVS     r2,#2
        0x00208552:    3144        D1      ADDS     r1,r1,#0x44
        0x00208554:    1c80        ..      ADDS     r0,r0,#2
        0x00208556:    f5fffa82    ....    BL       log_buffer ; 0x7a5e
        0x0020855a:    4630        0F      MOV      r0,r6
        0x0020855c:    e8bd87fc    ....    POP      {r2-r10,pc}
;;;634            break;
;;;635    #endif
;;;636    
;;;637    #if DIS_CHAR_MODEL_NUMBER_SUPPORT
;;;638        case GATT_SVC_DIS_MODEL_NUM_INDEX:
;;;639            callback_data.msg_data.read_value_index = DIS_READ_MODEL_NUM_INDEX;
        0x00208560:    f88d1006    ....    STRB     r1,[sp,#6]
;;;640            pfn_dis_cb(service_id, (void *)&callback_data);
        0x00208564:    4610        .F      MOV      r0,r2
        0x00208566:    f8d82008    ...     LDR      r2,[r8,#8]
        0x0020856a:    a901        ..      ADD      r1,sp,#4
        0x0020856c:    4790        .G      BLX      r2
;;;641            *pp_value    = (uint8_t *)&dis_model_number;
        0x0020856e:    4813        .H      LDR      r0,[pc,#76] ; [0x2085bc] = 0x20bae0
        0x00208570:    3020         0      ADDS     r0,r0,#0x20
;;;642            *length_ptr = dis_model_number_len;
        0x00208572:    6028        (`      STR      r0,[r5,#0]
        0x00208574:    f8980001    ....    LDRB     r0,[r8,#1]
;;;643            break;
        0x00208578:    e79f        ..      B        0x2084ba ; dis_attr_read_cb + 162
    dis_add_service
;;;644    #endif
;;;645    
;;;646        }
;;;647    
;;;648        PROFILE_PRINT_INFO2("dis_attr_read_cb: attrib_index %d, *length_ptr %d",
;;;649                            attrib_index,
;;;650                            *length_ptr);
;;;651        return (cause);
;;;652    }
;;;653    
;;;654    const T_FUN_GATT_SERVICE_CBS dis_cbs =
;;;655    {
;;;656        dis_attr_read_cb,  // Read callback function pointer
;;;657        NULL, // Write callback function pointer
;;;658        NULL  // Authorization callback function pointer
;;;659    };
;;;660    
;;;661    /**
;;;662      * @brief Add device information service to the BLE stack database.
;;;663      *
;;;664      * @param[in]   p_func  Callback when service attribute was read, write or cccd update.
;;;665      * @return Service id generated by the BLE stack: @ref T_SERVER_ID.
;;;666      * @retval 0xFF Operation failure.
;;;667      * @retval others Service id assigned by stack.
;;;668      *
;;;669      * <b>Example usage</b>
;;;670      * \code{.c}
;;;671        void profile_init()
;;;672        {
;;;673            server_init(1);
;;;674            dis_id = dis_add_service(app_handle_profile_message);
;;;675        }
;;;676      * \endcode
;;;677      */
;;;678    T_SERVER_ID dis_add_service(void *p_func)
;;;679    {
        0x0020857a:    b53e        >.      PUSH     {r1-r5,lr}
        0x0020857c:    4604        .F      MOV      r4,r0
;;;680        T_SERVER_ID service_id;
;;;681        if (false == server_add_service(&service_id,
        0x0020857e:    4813        .H      LDR      r0,[pc,#76] ; [0x2085cc] = 0x20b514
        0x00208580:    e9d01206    ....    LDRD     r1,r2,[r0,#0x18]
        0x00208584:    e9cd1200    ....    STRD     r1,r2,[sp,#0]
        0x00208588:    f5a07100    ...q    SUB      r1,r0,#0x200
        0x0020858c:    6943        Ci      LDR      r3,[r0,#0x14]
        0x0020858e:    f44f7205    O..r    MOV      r2,#0x214
        0x00208592:    a802        ..      ADD      r0,sp,#8
        0x00208594:    f647f86b    G.k.    BL       server_add_service ; 0x4f66e
        0x00208598:    b950        P.      CBNZ     r0,0x2085b0 ; dis_add_service + 54
;;;682                                        (uint8_t *)dis_attr_tbl,
;;;683                                        dis_attr_tbl_size,
;;;684                                        dis_cbs))
;;;685        {
;;;686            PROFILE_PRINT_ERROR1("dis_add_service: service_id %d", service_id);
        0x0020859a:    4909        .I      LDR      r1,[pc,#36] ; [0x2085c0] = 0x88001b0
        0x0020859c:    f89d3008    ...0    LDRB     r3,[sp,#8]
        0x002085a0:    2201        ."      MOVS     r2,#1
        0x002085a2:    317c        |1      ADDS     r1,r1,#0x7c
        0x002085a4:    4807        .H      LDR      r0,[pc,#28] ; [0x2085c4] = 0x21103300
        0x002085a6:    f5fffa5a    ..Z.    BL       log_buffer ; 0x7a5e
;;;687            service_id = 0xff;
        0x002085aa:    20ff        .       MOVS     r0,#0xff
        0x002085ac:    f88d0008    ....    STRB     r0,[sp,#8]
;;;688        }
;;;689        pfn_dis_cb = (P_FUN_SERVER_GENERAL_CB)p_func;
        0x002085b0:    4802        .H      LDR      r0,[pc,#8] ; [0x2085bc] = 0x20bae0
;;;690        return service_id;
        0x002085b2:    6084        .`      STR      r4,[r0,#8]
        0x002085b4:    f89d0008    ....    LDRB     r0,[sp,#8]
;;;691    }
        0x002085b8:    bd3e        >.      POP      {r1-r5,pc}
    $d
        0x002085ba:    0000        ..      DCW    0
        0x002085bc:    0020bae0    .. .    DCD    2144992
        0x002085c0:    088001b0    ....    DCD    142606768
        0x002085c4:    21103300    .3.!    DCD    554709760
        0x002085c8:    0020ba3a    :. .    DCD    2144826
        0x002085cc:    0020b514    .. .    DCD    2143508
    $t
    .text
    ota_attr_write_cb
;;; ..\..\..\src\app\keyboard\ota_service.c
;;;322    {
        0x002085d0:    e92d41ff    -..A    PUSH     {r0-r8,lr}
        0x002085d4:    4ca2        .L      LDR      r4,[pc,#648] ; [0x208860] = 0x20bb64
;;; ..\..\..\src\app\keyboard\ota_service.c (322)
        0x002085d6:    e9dd300a    ...0    LDRD     r3,r0,[sp,#0x28]
        0x002085da:    460e        .F      MOV      r6,r1
        0x002085dc:    2500        .%      MOVS     r5,#0
        0x002085de:    2703        .'      MOVS     r7,#3
        0x002085e0:    6824        $h      LDR      r4,[r4,#0]
        0x002085e2:    f240410d    @..A    MOV      r1,#0x40d
        0x002085e6:    2a02        .*      CMP      r2,#2
        0x002085e8:    d012        ..      BEQ      0x208610 ; ota_attr_write_cb + 64
        0x002085ea:    f04f0c02    O...    MOV      r12,#2
        0x002085ee:    2a10        .*      CMP      r2,#0x10
        0x002085f0:    d017        ..      BEQ      0x208622 ; ota_attr_write_cb + 82
        0x002085f2:    2a0c        .*      CMP      r2,#0xc
        0x002085f4:    d02c        ,.      BEQ      0x208650 ; ota_attr_write_cb + 128
        0x002085f6:    9300        ..      STR      r3,[sp,#0]
        0x002085f8:    4613        .F      MOV      r3,r2
        0x002085fa:    2202        ."      MOVS     r2,#2
        0x002085fc:    4999        .I      LDR      r1,[pc,#612] ; [0x208864] = 0x8800250
        0x002085fe:    489a        .H      LDR      r0,[pc,#616] ; [0x208868] = 0x21103302
        0x00208600:    f5fffa2d    ..-.    BL       log_buffer ; 0x7a5e
        0x00208604:    f240450a    @..E    MOV      r5,#0x40a
        0x00208608:    b004        ..      ADD      sp,sp,#0x10
        0x0020860a:    4628        (F      MOV      r0,r5
        0x0020860c:    e8bd81f0    ....    POP      {r4-r8,pc}
;;;323        TOTA_CALLBACK_DATA callback_data;
;;;324        T_APP_RESULT  wCause = APP_RESULT_SUCCESS;
;;;325    
;;;326        if (BLE_SERVICE_CHAR_OTA_INDEX == attrib_index)
;;;327        {
;;;328            /* Make sure written value size is valid. */
;;;329            if ((length != sizeof(uint8_t)) || (p_value == NULL))
        0x00208610:    2b01        .+      CMP      r3,#1
        0x00208612:    d12d        -.      BNE      0x208670 ; ota_attr_write_cb + 160
        0x00208614:    b360        `.      CBZ      r0,0x208670 ; ota_attr_write_cb + 160
;;;330            {
;;;331                wCause  = APP_RESULT_INVALID_VALUE_SIZE;
;;;332            }
;;;333            else
;;;334            {
;;;335                /* Notify Application. */
;;;336                callback_data.msg_type = SERVICE_CALLBACK_TYPE_WRITE_CHAR_VALUE;
        0x00208616:    f88d7004    ...p    STRB     r7,[sp,#4]
;;;337                callback_data.msg_data.write.opcode = OTA_WRITE_CHAR_VAL;
        0x0020861a:    2101        .!      MOVS     r1,#1
        0x0020861c:    f88d1006    ....    STRB     r1,[sp,#6]
;;;338                callback_data.msg_data.write.u.value = p_value[0];
;;;339    
;;;340                if (pfnOTAExtendedCB)
        0x00208620:    e01d        ..      B        0x20865e ; ota_attr_write_cb + 142
;;;341                {
;;;342                    pfnOTAExtendedCB(service_id, (void *)&callback_data);
;;;343                }
;;;344            }
;;;345        }
;;;346        else if (BLE_SERVICE_CHAR_IMAGE_COUNT_INDEX == attrib_index)
;;;347        {
;;;348            /* Make sure written value size is valid. */
;;;349            if ((length != OTA_UPDATE_IMAGE_INFO_LEN) || (p_value == NULL))
        0x00208622:    2b05        .+      CMP      r3,#5
        0x00208624:    d124        $.      BNE      0x208670 ; ota_attr_write_cb + 160
        0x00208626:    b318        ..      CBZ      r0,0x208670 ; ota_attr_write_cb + 160
;;;350            {
;;;351                wCause  = APP_RESULT_INVALID_VALUE_SIZE;
;;;352            }
;;;353            else
;;;354            {
;;;355                /* Notify Application. */
;;;356                callback_data.msg_type = SERVICE_CALLBACK_TYPE_WRITE_CHAR_VALUE;
        0x00208628:    f88d7004    ...p    STRB     r7,[sp,#4]
;;;357                callback_data.msg_data.write.opcode = OTA_WRITE_IMAGE_COUNT_VAL;
        0x0020862c:    f88dc006    ....    STRB     r12,[sp,#6]
;;;358                callback_data.msg_data.write.u.update_image_info.image_count = p_value[0];
        0x00208630:    7801        .x      LDRB     r1,[r0,#0]
        0x00208632:    f88d1008    ....    STRB     r1,[sp,#8]
;;;359                callback_data.msg_data.write.u.update_image_info.update_patch_version = CHAR2SHORT(&p_value[1]);
        0x00208636:    7841        Ax      LDRB     r1,[r0,#1]
        0x00208638:    7882        .x      LDRB     r2,[r0,#2]
        0x0020863a:    eb012102    ...!    ADD      r1,r1,r2,LSL #8
        0x0020863e:    f8ad100a    ....    STRH     r1,[sp,#0xa]
;;;360                callback_data.msg_data.write.u.update_image_info.update_app_version = CHAR2SHORT(&p_value[3]);
        0x00208642:    78c1        .x      LDRB     r1,[r0,#3]
        0x00208644:    7900        .y      LDRB     r0,[r0,#4]
        0x00208646:    eb012000    ...     ADD      r0,r1,r0,LSL #8
        0x0020864a:    f8ad000c    ....    STRH     r0,[sp,#0xc]
;;;361    
;;;362                if (pfnOTAExtendedCB)
        0x0020864e:    e009        ..      B        0x208664 ; ota_attr_write_cb + 148
;;;363                {
;;;364                    pfnOTAExtendedCB(service_id, (void *)&callback_data);
;;;365                }
;;;366            }
;;;367        }
;;;368        else if (BLE_SERVICE_CHAR_TEST_MODE_INDEX == attrib_index)
;;;369        {
;;;370            /* Make sure written value size is valid. */
;;;371            if ((length != sizeof(uint8_t)) || (p_value == NULL))
        0x00208650:    2b01        .+      CMP      r3,#1
        0x00208652:    d10d        ..      BNE      0x208670 ; ota_attr_write_cb + 160
        0x00208654:    b160        `.      CBZ      r0,0x208670 ; ota_attr_write_cb + 160
;;;372            {
;;;373                wCause  = APP_RESULT_INVALID_VALUE_SIZE;
;;;374            }
;;;375            else
;;;376            {
;;;377                /* Notify Application. */
;;;378                callback_data.msg_type = SERVICE_CALLBACK_TYPE_WRITE_CHAR_VALUE;
        0x00208656:    f88d7004    ...p    STRB     r7,[sp,#4]
;;;379                callback_data.msg_data.write.opcode = OTA_WRITE_TEST_MODE_CHAR_VAL;
        0x0020865a:    f88dc006    ....    STRB     r12,[sp,#6]
        0x0020865e:    7800        .x      LDRB     r0,[r0,#0]
        0x00208660:    f88d0008    ....    STRB     r0,[sp,#8]
        0x00208664:    2c00        .,      CMP      r4,#0
        0x00208666:    d0cf        ..      BEQ      0x208608 ; ota_attr_write_cb + 56
;;;380                callback_data.msg_data.write.u.value = p_value[0];
;;;381    
;;;382                if (pfnOTAExtendedCB)
;;;383                {
;;;384                    pfnOTAExtendedCB(service_id, (void *)&callback_data);
        0x00208668:    a901        ..      ADD      r1,sp,#4
        0x0020866a:    4630        0F      MOV      r0,r6
        0x0020866c:    47a0        .G      BLX      r4
        0x0020866e:    e7cb        ..      B        0x208608 ; ota_attr_write_cb + 56
        0x00208670:    460d        .F      MOV      r5,r1
        0x00208672:    e7c9        ..      B        0x208608 ; ota_attr_write_cb + 56
    ota_attr_read_cb
;;;385                }
;;;386            }
;;;387        }
;;;388        else
;;;389        {
;;;390            PROFILE_PRINT_INFO2("--> OTA_AttrWrite Error  iAttribIndex = 0x%x wLength=%d",
;;;391                                attrib_index,
;;;392                                length);
;;;393            wCause = APP_RESULT_ATTR_NOT_FOUND;
;;;394        }
;;;395        return wCause;
;;;396    
;;;397    }
;;;398    
;;;399    
;;;400    #if SUPPORT_OTA_BANK_SWITCH
;;;401    #define MULTI_IMG 1
;;;402    #else
;;;403    #define MULTI_IMG 0
;;;404    #endif
;;;405    extern uint8_t mode;
;;;406    typedef struct _T_DFU_DEVICE_INFO
;;;407    {
;;;408        uint8_t ictype;
;;;409        uint8_t ota_version;
;;;410        uint8_t secure_version;
;;;411    
;;;412        union
;;;413        {
;;;414            uint8_t value;
;;;415            struct
;;;416            {
;;;417                uint8_t buffercheck: 1; // 1:support,  0:don't support
;;;418                uint8_t aesflg: 1;      // 1:aes encrypt when ota,  0:not encrypt
;;;419                uint8_t aesmode: 1;     // 1:all data is encrypted, 0:only encrypt 16byte
;;;420                //uint8_t verify_algo: 1; // 1:sha256,   0:crc
;;;421                uint8_t copy_img: 1;    //1:support ,0:don't support
;;;422                uint8_t multi_img: 1;   //1:support(update multi img at a time) ,0:don't support(one img at a time)
;;;423                uint8_t rsvd: 3;
;;;424            };
;;;425        } mode;
;;;426    
;;;427        uint16_t maxbuffersize;
;;;428        uint16_t res;
;;;429    
;;;430        uint32_t img_indicator;
;;;431    } T_DFU_DEVICE_INFO, * P_DFU_DEVICE_INFO;
;;;432    
;;;433    //#define SUPPORT_BANK_SWITCH
;;;434    /**
;;;435     * @brief read characteristic data from service.
;;;436     *
;;;437     * @param ServiceId          ServiceID of characteristic data.
;;;438     * @param iAttribIndex       Attribute index of getting characteristic data.
;;;439     * @param iOffset            Used for Blob Read.
;;;440     * @param piLength           length of getting characteristic data.
;;;441     * @param ppValue            data got from service.
;;;442     * @return Profile procedure result
;;;443    */
;;;444    T_APP_RESULT ota_attr_read_cb(uint8_t conn_id, T_SERVER_ID service_id, uint16_t attrib_index,
;;;445                                  uint16_t offset, uint16_t *p_length, uint8_t **pp_value)
;;;446    {
        0x00208674:    e92d5ffc    -.._    PUSH     {r2-r12,lr}
        0x00208678:    4f7b        {O      LDR      r7,[pc,#492] ; [0x208868] = 0x21103302
;;; ..\..\..\src\app\keyboard\ota_service.c (446)
        0x0020867a:    e9dd540c    ...T    LDRD     r5,r4,[sp,#0x30]
;;;447        T_APP_RESULT  wCause = APP_RESULT_SUCCESS;
        0x0020867e:    f04f0800    O...    MOV      r8,#0
        0x00208682:    f2427a92    B..z    MOV      r10,#0x2792
        0x00208686:    f2427b93    B..{    MOV      r11,#0x2793
;;;448    
;;;449        switch (attrib_index)
        0x0020868a:    2a0a        .*      CMP      r2,#0xa
        0x0020868c:    d064        d.      BEQ      0x208758 ; ota_attr_read_cb + 228
        0x0020868e:    dc09        ..      BGT      0x2086a4 ; ota_attr_read_cb + 48
        0x00208690:    4e73        sN      LDR      r6,[pc,#460] ; [0x208860] = 0x20bb64
        0x00208692:    2a04        .*      CMP      r2,#4
        0x00208694:    d016        ..      BEQ      0x2086c4 ; ota_attr_read_cb + 80
        0x00208696:    f04f0904    O...    MOV      r9,#4
        0x0020869a:    2a06        .*      CMP      r2,#6
        0x0020869c:    d02c        ,.      BEQ      0x2086f8 ; ota_attr_read_cb + 132
        0x0020869e:    2a08        .*      CMP      r2,#8
        0x002086a0:    d106        ..      BNE      0x2086b0 ; ota_attr_read_cb + 60
        0x002086a2:    e040        @.      B        0x208726 ; ota_attr_read_cb + 178
        0x002086a4:    f2427090    B..p    MOV      r0,#0x2790
        0x002086a8:    2a0e        .*      CMP      r2,#0xe
        0x002086aa:    d058        X.      BEQ      0x20875e ; ota_attr_read_cb + 234
        0x002086ac:    2a12        .*      CMP      r2,#0x12
        0x002086ae:    d078        x.      BEQ      0x2087a2 ; ota_attr_read_cb + 302
;;;450        {
;;;451        default:
;;;452            PROFILE_PRINT_INFO1("<-- OTA_AttrRead, Attr not found, index=%d", attrib_index);
        0x002086b0:    496c        lI      LDR      r1,[pc,#432] ; [0x208864] = 0x8800250
        0x002086b2:    4613        .F      MOV      r3,r2
        0x002086b4:    2201        ."      MOVS     r2,#1
        0x002086b6:    313c        <1      ADDS     r1,r1,#0x3c
        0x002086b8:    4638        8F      MOV      r0,r7
        0x002086ba:    f5fff9d0    ....    BL       log_buffer ; 0x7a5e
;;;453            wCause  = APP_RESULT_ATTR_NOT_FOUND;
        0x002086be:    f240480a    @..H    MOV      r8,#0x40a
;;;454            break;
        0x002086c2:    e049        I.      B        0x208758 ; ota_attr_read_cb + 228
;;;455        case BLE_SERVICE_CHAR_MAC_ADDRESS_INDEX:
;;;456            {
;;;457                gap_get_param(GAP_PARAM_BD_ADDR, mac_addr);
        0x002086c4:    4966        fI      LDR      r1,[pc,#408] ; [0x208860] = 0x20bb64
        0x002086c6:    f44f7000    O..p    MOV      r0,#0x200
        0x002086ca:    310c        .1      ADDS     r1,r1,#0xc
        0x002086cc:    f643fcb3    C...    BL       gap_get_param ; 0x4c036
        0x002086d0:    4a63        cJ      LDR      r2,[pc,#396] ; [0x208860] = 0x20bb64
        0x002086d2:    2000        .       MOVS     r0,#0
        0x002086d4:    4669        iF      MOV      r1,sp
        0x002086d6:    320c        .2      ADDS     r2,r2,#0xc
        0x002086d8:    f1c00305    ....    RSB      r3,r0,#5
        0x002086dc:    5cd3        .\      LDRB     r3,[r2,r3]
        0x002086de:    540b        .T      STRB     r3,[r1,r0]
        0x002086e0:    1c40        @.      ADDS     r0,r0,#1
;;;458                uint8_t addr[6];
;;;459                for (int i = 0; i < 6; i++)
        0x002086e2:    2806        .(      CMP      r0,#6
        0x002086e4:    dbf8        ..      BLT      0x2086d8 ; ota_attr_read_cb + 100
;;;460                {
;;;461                    addr[i] = mac_addr[5 - i];
;;;462                }
;;;463                memcpy(mac_addr, addr, 6);
        0x002086e6:    9800        ..      LDR      r0,[sp,#0]
        0x002086e8:    60f0        .`      STR      r0,[r6,#0xc]
        0x002086ea:    f8bd0004    ....    LDRH     r0,[sp,#4]
        0x002086ee:    8230        0.      STRH     r0,[r6,#0x10]
;;;464                *pp_value  = (uint8_t *)mac_addr;
;;;465                *p_length = sizeof(mac_addr);
        0x002086f0:    2006        .       MOVS     r0,#6
        0x002086f2:    6022        "`      STR      r2,[r4,#0]
        0x002086f4:    8028        (.      STRH     r0,[r5,#0]
        0x002086f6:    e02f        /.      B        0x208758 ; ota_attr_read_cb + 228
;;;466            }
;;;467            break;
;;;468        case BLE_SERVICE_CHAR_PATCH_INDEX:
;;;469            {
;;;470                T_IMG_HEADER_FORMAT *p_header;
;;;471                uint32_t addr = get_header_addr_by_img_id(RomPatch);
        0x002086f8:    4650        PF      MOV      r0,r10
        0x002086fa:    f604f873    ..s.    BL       get_header_addr_by_img_id ; 0xc7e4
        0x002086fe:    4959        YI      LDR      r1,[pc,#356] ; [0x208864] = 0x8800250
        0x00208700:    4682        .F      MOV      r10,r0
;;;472                PROFILE_PRINT_INFO1("patch_addr = %x", addr);
        0x00208702:    4603        .F      MOV      r3,r0
        0x00208704:    2201        ."      MOVS     r2,#1
        0x00208706:    316c        l1      ADDS     r1,r1,#0x6c
        0x00208708:    4638        8F      MOV      r0,r7
        0x0020870a:    f5fff9a8    ....    BL       log_buffer ; 0x7a5e
        0x0020870e:    4955        UI      LDR      r1,[pc,#340] ; [0x208864] = 0x8800250
;;;473                p_header = (T_IMG_HEADER_FORMAT *)addr;
;;;474    
;;;475                patch_version = p_header->git_ver.ver_info.version;
        0x00208710:    f8da3060    ..`0    LDR      r3,[r10,#0x60]
;;;476    
;;;477                PROFILE_PRINT_INFO1("patch_version = %x", patch_version);
        0x00208714:    2201        ."      MOVS     r2,#1
        0x00208716:    3180        .1      ADDS     r1,r1,#0x80
        0x00208718:    4638        8F      MOV      r0,r7
        0x0020871a:    6073        s`      STR      r3,[r6,#4]
        0x0020871c:    f5fff99f    ....    BL       log_buffer ; 0x7a5e
;;;478                *pp_value  = (uint8_t *)&patch_version;
        0x00208720:    484f        OH      LDR      r0,[pc,#316] ; [0x208860] = 0x20bb64
        0x00208722:    1d00        ..      ADDS     r0,r0,#4
;;;479                *p_length = sizeof(patch_version);
;;;480            }
;;;481            break;
        0x00208724:    e015        ..      B        0x208752 ; ota_attr_read_cb + 222
;;;482    
;;;483        case BLE_SERVICE_CHAR_APP_VERSION_INDEX:
;;;484            {
;;;485                T_IMG_HEADER_FORMAT *p_header;
;;;486                uint32_t addr = get_header_addr_by_img_id(AppPatch);
        0x00208726:    4658        XF      MOV      r0,r11
        0x00208728:    f604f85c    ..\.    BL       get_header_addr_by_img_id ; 0xc7e4
        0x0020872c:    494d        MI      LDR      r1,[pc,#308] ; [0x208864] = 0x8800250
        0x0020872e:    4682        .F      MOV      r10,r0
;;;487                PROFILE_PRINT_INFO1("app_addr = %x", addr);
        0x00208730:    4603        .F      MOV      r3,r0
        0x00208732:    2201        ."      MOVS     r2,#1
        0x00208734:    3198        .1      ADDS     r1,r1,#0x98
        0x00208736:    4638        8F      MOV      r0,r7
        0x00208738:    f5fff991    ....    BL       log_buffer ; 0x7a5e
        0x0020873c:    4949        II      LDR      r1,[pc,#292] ; [0x208864] = 0x8800250
;;;488                p_header = (T_IMG_HEADER_FORMAT *)addr;
;;;489    
;;;490    //        uint32_t _version_major: 4;     //!< major version
;;;491    //        uint32_t _version_minor: 8;     //!< minor version
;;;492    //        uint32_t _version_revision: 15; //!< revision version
;;;493    //        uint32_t _version_reserve: 5;   //!< reserved
;;;494    
;;;495                app_version = p_header->git_ver.ver_info.version;
        0x0020873e:    f8da3060    ..`0    LDR      r3,[r10,#0x60]
;;;496    
;;;497                PROFILE_PRINT_INFO1("app_version = %x", app_version);
        0x00208742:    2201        ."      MOVS     r2,#1
        0x00208744:    31ac        .1      ADDS     r1,r1,#0xac
        0x00208746:    4638        8F      MOV      r0,r7
        0x00208748:    60b3        .`      STR      r3,[r6,#8]
        0x0020874a:    f5fff988    ....    BL       log_buffer ; 0x7a5e
;;;498                *pp_value  = (uint8_t *)&app_version;
        0x0020874e:    4844        DH      LDR      r0,[pc,#272] ; [0x208860] = 0x20bb64
        0x00208750:    3008        .0      ADDS     r0,r0,#8
        0x00208752:    6020         `      STR      r0,[r4,#0]
        0x00208754:    f8a59000    ....    STRH     r9,[r5,#0]
        0x00208758:    4640        @F      MOV      r0,r8
        0x0020875a:    e8bd9ffc    ....    POP      {r2-r12,pc}
;;;499                *p_length = sizeof(app_version);
;;;500            }
;;;501            break;
;;;502    
;;;503        case BLE_SERVICE_CHAR_PATCH_EXTENSION_INDEX:        //not used in bee2
;;;504            {
;;;505    
;;;506            }
;;;507            break;
;;;508        case BLE_SERVICE_CHAR_DEVICE_INFO_INDEX:
;;;509            {
;;;510                static T_DFU_DEVICE_INFO DeviceInfo;
;;;511                T_IMG_HEADER_FORMAT *p_header;
;;;512                uint32_t addr = get_header_addr_by_img_id(OTA);
        0x0020875e:    f604f841    ..A.    BL       get_header_addr_by_img_id ; 0xc7e4
        0x00208762:    4e3f        ?N      LDR      r6,[pc,#252] ; [0x208860] = 0x20bb64
        0x00208764:    7841        Ax      LDRB     r1,[r0,#1]
        0x00208766:    3614        .6      ADDS     r6,r6,#0x14
        0x00208768:    4603        .F      MOV      r3,r0
;;;513                p_header = (T_IMG_HEADER_FORMAT *)addr;
;;;514                DeviceInfo.secure_version = p_header->ctrl_header.secure_version;
        0x0020876a:    70b1        .p      STRB     r1,[r6,#2]
;;;515    
;;;516                DeviceInfo.ictype = 5;
        0x0020876c:    2105        .!      MOVS     r1,#5
        0x0020876e:    7031        1p      STRB     r1,[r6,#0]
;;;517                DeviceInfo.ota_version = 0x1;
        0x00208770:    2101        .!      MOVS     r1,#1
        0x00208772:    7071        qp      STRB     r1,[r6,#1]
;;;518                DeviceInfo.secure_version = p_header->ctrl_header.secure_version;
        0x00208774:    7840        @x      LDRB     r0,[r0,#1]
        0x00208776:    70b0        .p      STRB     r0,[r6,#2]
;;;519                DeviceInfo.mode.buffercheck = 1;
        0x00208778:    78f0        .x      LDRB     r0,[r6,#3]
        0x0020877a:    460a        .F      MOV      r2,r1
;;;520                DeviceInfo.mode.aesflg = 1;
;;;521                DeviceInfo.mode.aesmode = 1;
;;;522                // DeviceInfo.mode.verify_algo = 0;//crc    need to delete this feature;
;;;523                DeviceInfo.mode.copy_img = 0;
        0x0020877c:    f0200018     ...    BIC      r0,r0,#0x18
;;;524                DeviceInfo.mode.multi_img = MULTI_IMG;
        0x00208780:    f0400007    @...    ORR      r0,r0,#7
        0x00208784:    70f0        .p      STRB     r0,[r6,#3]
;;;525                DeviceInfo.maxbuffersize = 2048;
        0x00208786:    02c8        ..      LSLS     r0,r1,#11
        0x00208788:    4936        6I      LDR      r1,[pc,#216] ; [0x208864] = 0x8800250
        0x0020878a:    80b0        ..      STRH     r0,[r6,#4]
;;;526                PROFILE_PRINT_INFO1("otaheader_addr = %x", addr);
        0x0020878c:    31c0        .1      ADDS     r1,r1,#0xc0
        0x0020878e:    4638        8F      MOV      r0,r7
        0x00208790:    f5fff965    ..e.    BL       log_buffer ; 0x7a5e
;;;527    #if SUPPORT_OTA_BANK_SWITCH
;;;528                if ((addr & 0xffffff) == OTA_BANK0_ADDR)
;;;529                {
;;;530                    DeviceInfo.img_indicator = IMAGE_LOCATION_BANK0 << (OTA_HEADER * 2) | IMAGE_LOCATION_BANK0 <<
;;;531                                               (ROM_PATCH * 2) | IMAGE_LOCATION_BANK0 <<
;;;532                                               (APP_IMG * 2);
;;;533                }
;;;534                else
;;;535                {
;;;536                    DeviceInfo.img_indicator = IMAGE_LOCATION_BANK1 << (OTA_HEADER * 2) | IMAGE_LOCATION_BANK1 <<
;;;537                                               (ROM_PATCH * 2) | IMAGE_LOCATION_BANK1 <<
;;;538                                               (APP_IMG * 2);
;;;539                }
;;;540    #else
;;;541                DeviceInfo.img_indicator = IMAGE_FIX_BANK_EXIST << (OTA_HEADER * 2) | IMAGE_FIX_BANK_EXIST <<
        0x00208794:    f44f6073    O.s`    MOV      r0,#0xf30
;;;542                                           (ROM_PATCH * 2) | IMAGE_FIX_BANK_EXIST <<
;;;543                                           (APP_IMG * 2);
;;;544    #endif
;;;545                *pp_value  = (uint8_t *)&DeviceInfo;
        0x00208798:    60b0        .`      STR      r0,[r6,#8]
;;;546                *p_length = sizeof(T_DFU_DEVICE_INFO);
        0x0020879a:    200c        .       MOVS     r0,#0xc
;;;547            }
;;;548            break;
        0x0020879c:    6026        &`      STR      r6,[r4,#0]
        0x0020879e:    e7a9        ..      B        0x2086f4 ; ota_attr_read_cb + 128
        0x002087a0:    e7ff        ..      B        0x2087a2 ; ota_attr_read_cb + 302
;;;549        case BLE_SERVICE_CHAR_IMAGE_VERSION_INDEX:
;;;550            {
;;;551                T_IMG_HEADER_FORMAT *p_imgheader;
;;;552                T_OTA_HEADER_FORMAT *p_otaheader;
;;;553                static uint32_t version[5];
;;;554    
;;;555    
;;;556                uint32_t addr = get_header_addr_by_img_id(OTA);
        0x002087a2:    f604f81f    ....    BL       get_header_addr_by_img_id ; 0xc7e4
        0x002087a6:    492f        /I      LDR      r1,[pc,#188] ; [0x208864] = 0x8800250
        0x002087a8:    4606        .F      MOV      r6,r0
;;;557                PROFILE_PRINT_INFO1("otaheader_addr = %x", addr);
        0x002087aa:    4603        .F      MOV      r3,r0
        0x002087ac:    2201        ."      MOVS     r2,#1
        0x002087ae:    31d8        .1      ADDS     r1,r1,#0xd8
        0x002087b0:    4638        8F      MOV      r0,r7
        0x002087b2:    f5fff954    ..T.    BL       log_buffer ; 0x7a5e
;;;558                p_otaheader = (T_OTA_HEADER_FORMAT *)addr;
;;;559    
;;;560                version[0] = p_otaheader->ver_val;
        0x002087b6:    f8d63194    ...1    LDR      r3,[r6,#0x194]
        0x002087ba:    4e29        )N      LDR      r6,[pc,#164] ; [0x208860] = 0x20bb64
        0x002087bc:    4929        )I      LDR      r1,[pc,#164] ; [0x208864] = 0x8800250
        0x002087be:    3620         6      ADDS     r6,r6,#0x20
;;;561    
;;;562                PROFILE_PRINT_INFO1("otaheader_version = %x", version[0]);
        0x002087c0:    2201        ."      MOVS     r2,#1
        0x002087c2:    31f0        .1      ADDS     r1,r1,#0xf0
        0x002087c4:    4638        8F      MOV      r0,r7
        0x002087c6:    6033        3`      STR      r3,[r6,#0]
        0x002087c8:    f5fff949    ..I.    BL       log_buffer ; 0x7a5e
;;;563    
;;;564                addr = get_header_addr_by_img_id(RomPatch);
        0x002087cc:    4650        PF      MOV      r0,r10
        0x002087ce:    f604f809    ....    BL       get_header_addr_by_img_id ; 0xc7e4
        0x002087d2:    4681        .F      MOV      r9,r0
;;;565                PROFILE_PRINT_INFO1("patch_addr = %x", addr);
        0x002087d4:    4603        .F      MOV      r3,r0
        0x002087d6:    2201        ."      MOVS     r2,#1
        0x002087d8:    4924        $I      LDR      r1,[pc,#144] ; [0x20886c] = 0x880035c
        0x002087da:    4638        8F      MOV      r0,r7
        0x002087dc:    f5fff93f    ..?.    BL       log_buffer ; 0x7a5e
        0x002087e0:    4922        "I      LDR      r1,[pc,#136] ; [0x20886c] = 0x880035c
;;;566                p_imgheader = (T_IMG_HEADER_FORMAT *)addr;
;;;567    
;;;568                version[1] = p_imgheader->git_ver.ver_info.version;
        0x002087e2:    f8d93060    ..`0    LDR      r3,[r9,#0x60]
;;;569    
;;;570                PROFILE_PRINT_INFO1("patch_version = %x", version[1]);
        0x002087e6:    2201        ."      MOVS     r2,#1
        0x002087e8:    3114        .1      ADDS     r1,r1,#0x14
        0x002087ea:    4638        8F      MOV      r0,r7
        0x002087ec:    6073        s`      STR      r3,[r6,#4]
        0x002087ee:    f5fff936    ..6.    BL       log_buffer ; 0x7a5e
;;;571    
;;;572                addr = get_header_addr_by_img_id(AppPatch);
        0x002087f2:    4658        XF      MOV      r0,r11
        0x002087f4:    f603fff6    ....    BL       get_header_addr_by_img_id ; 0xc7e4
        0x002087f8:    491c        .I      LDR      r1,[pc,#112] ; [0x20886c] = 0x880035c
        0x002087fa:    4681        .F      MOV      r9,r0
;;;573                PROFILE_PRINT_INFO1("app_addr = %x", addr);
        0x002087fc:    4603        .F      MOV      r3,r0
        0x002087fe:    2201        ."      MOVS     r2,#1
        0x00208800:    312c        ,1      ADDS     r1,r1,#0x2c
        0x00208802:    4638        8F      MOV      r0,r7
        0x00208804:    f5fff92b    ..+.    BL       log_buffer ; 0x7a5e
        0x00208808:    4918        .I      LDR      r1,[pc,#96] ; [0x20886c] = 0x880035c
;;;574                p_imgheader = (T_IMG_HEADER_FORMAT *)addr;
;;;575    
;;;576                version[2] = p_imgheader->git_ver.ver_info.version;
        0x0020880a:    f8d93060    ..`0    LDR      r3,[r9,#0x60]
;;;577    
;;;578                PROFILE_PRINT_INFO1("app_version = %x", version[2]);
        0x0020880e:    2201        ."      MOVS     r2,#1
        0x00208810:    3140        @1      ADDS     r1,r1,#0x40
        0x00208812:    4638        8F      MOV      r0,r7
        0x00208814:    60b3        .`      STR      r3,[r6,#8]
        0x00208816:    f5fff922    ..".    BL       log_buffer ; 0x7a5e
;;;579    
;;;580    //            uint32_t addr = get_header_addr_by_img_id(OTA);
;;;581    //            PROFILE_PRINT_INFO1("active Bank Addr  = %x", addr);
;;;582    
;;;583    //            T_OTA_HEADER_FORMAT *p_ota_header;
;;;584    //            p_ota_header = (T_OTA_HEADER_FORMAT *)addr;
;;;585    //            PROFILE_PRINT_INFO1("ota_header_addr = %x", addr);
;;;586    //            DeviceInfo.ota_header_version = p_ota_header->ver_val;
;;;587    
;;;588    //            addr = get_header_addr_by_img_id(AppData1);
;;;589    //            p_header = (T_IMG_HEADER_FORMAT *)addr;
;;;590    //            PROFILE_PRINT_INFO1("appdata0_addr = %x", addr);
;;;591    
;;;592    //            DeviceInfo.app_data0_version = p_header->git_ver.ver_info.version;;
;;;593    
;;;594                *pp_value  = (uint8_t *)version;
;;;595                *p_length = 8;
        0x0020881a:    2008        .       MOVS     r0,#8
;;;596    
;;;597            }
;;;598            break;
        0x0020881c:    6026        &`      STR      r6,[r4,#0]
        0x0020881e:    e769        i.      B        0x2086f4 ; ota_attr_read_cb + 128
    ota_add_service
;;;599        }
;;;600        return (wCause);
;;;601    }
;;;602    
;;;603    
;;;604    /**
;;;605     * @brief OTA ble Service Callbacks.
;;;606    */
;;;607    const T_FUN_GATT_SERVICE_CBS OTAServiceCBs =
;;;608    {
;;;609        ota_attr_read_cb,   // Read callback function pointer
;;;610        ota_attr_write_cb,  // Write callback function pointer
;;;611        NULL                    // CCCD update callback function pointer
;;;612    };
;;;613    
;;;614    /**
;;;615     * @brief  add OTA ble service to application.
;;;616     *
;;;617     * @param  pFunc          pointer of app callback function called by profile.
;;;618     * @return service ID auto generated by profile layer.
;;;619     * @retval ServiceId
;;;620    */
;;;621    uint8_t ota_add_service(void *pFunc)
;;;622    {
        0x00208820:    b53e        >.      PUSH     {r1-r5,lr}
        0x00208822:    4604        .F      MOV      r4,r0
;;;623        uint8_t ServiceId;
;;;624        if (false == server_add_service(&ServiceId,
        0x00208824:    4812        .H      LDR      r0,[pc,#72] ; [0x208870] = 0x20b744
        0x00208826:    e9d01206    ....    LDRD     r1,r2,[r0,#0x18]
        0x0020882a:    e9cd1200    ....    STRD     r1,r2,[sp,#0]
        0x0020882e:    f5a07100    ...q    SUB      r1,r0,#0x200
        0x00208832:    6943        Ci      LDR      r3,[r0,#0x14]
        0x00208834:    f44f7205    O..r    MOV      r2,#0x214
        0x00208838:    a802        ..      ADD      r0,sp,#8
        0x0020883a:    f646ff18    F...    BL       server_add_service ; 0x4f66e
        0x0020883e:    b120         .      CBZ      r0,0x20884a ; ota_add_service + 42
        0x00208840:    4807        .H      LDR      r0,[pc,#28] ; [0x208860] = 0x20bb64
        0x00208842:    6004        .`      STR      r4,[r0,#0]
        0x00208844:    f89d0008    ....    LDRB     r0,[sp,#8]
        0x00208848:    bd3e        >.      POP      {r1-r5,pc}
;;;625                                        (uint8_t *)gattOtaServiceTable,
;;;626                                        sizeof(gattOtaServiceTable),
;;;627                                        OTAServiceCBs))
;;;628        {
;;;629            PROFILE_PRINT_ERROR1("OTAService_AddService: ServiceId %d", ServiceId);
        0x0020884a:    4908        .I      LDR      r1,[pc,#32] ; [0x20886c] = 0x880035c
        0x0020884c:    4806        .H      LDR      r0,[pc,#24] ; [0x208868] = 0x21103302
        0x0020884e:    f89d3008    ...0    LDRB     r3,[sp,#8]
        0x00208852:    2201        ."      MOVS     r2,#1
        0x00208854:    3154        T1      ADDS     r1,r1,#0x54
        0x00208856:    1e80        ..      SUBS     r0,r0,#2
        0x00208858:    f5fff901    ....    BL       log_buffer ; 0x7a5e
;;;630            ServiceId = 0xff;
        0x0020885c:    20ff        .       MOVS     r0,#0xff
;;;631            return ServiceId;
;;;632        }
;;;633        pfnOTAExtendedCB = (P_FUN_SERVER_GENERAL_CB)pFunc;
;;;634        return ServiceId;
;;;635    }
        0x0020885e:    bd3e        >.      POP      {r1-r5,pc}
    $d
        0x00208860:    0020bb64    d. .    DCD    2145124
        0x00208864:    08800250    P...    DCD    142606928
        0x00208868:    21103302    .3.!    DCD    554709762
        0x0020886c:    0880035c    \...    DCD    142607196
        0x00208870:    0020b744    D. .    DCD    2144068
    $t
    .text
    DLPS_IO_EnterDlpsCb
;;; .\..\..\..\src\mcu\peripheral\rtl876x_io_dlps.c
;;;1832   {
        0x00208874:    b57c        |.      PUSH     {r2-r6,lr}
;;; ..\..\..\inc\platform\cmsis\core_cm4.h
;;;1659       NVIC->ICER[((uint32_t)(IRQn) >> 5)] = (1 << ((uint32_t)(IRQn) & 0x1F)); /* disable interrupt */
        0x00208876:    2400        .$      MOVS     r4,#0
        0x00208878:    f04f20e0    O..     MOV      r0,#0xe000e000
        0x0020887c:    2101        .!      MOVS     r1,#1
        0x0020887e:    f8c01180    ....    STR      r1,[r0,#0x180]
;;; .\..\..\..\src\mcu\peripheral\rtl876x_io_dlps.c
;;;51         CPU_StoreReg[0] = NVIC->ISER[0];
        0x00208882:    f8d02100    ...!    LDR      r2,[r0,#0x100]
        0x00208886:    493e        >I      LDR      r1,[pc,#248] ; [0x208980] = 0x20bba4
;;;52         CPU_StoreReg[1] = NVIC->ISPR[0];
        0x00208888:    600a        .`      STR      r2,[r1,#0]
        0x0020888a:    f8d02200    ..."    LDR      r2,[r0,#0x200]
;;;53         CPU_StoreReg[2] = NVIC->IABR[0];
        0x0020888e:    604a        J`      STR      r2,[r1,#4]
        0x00208890:    f8d00300    ....    LDR      r0,[r0,#0x300]
;;;54     
;;;55         //The priority of system on interrupt is 0 at first DLPS ENTER CB, so store and restore is skipped
;;;56         for (i = 3; i < 32; ++i)  //skip System_IRQn, WDG_IRQn, BTMAC_IRQn which are handled in rom
        0x00208894:    6088        .`      STR      r0,[r1,#8]
        0x00208896:    2003        .       MOVS     r0,#3
;;;57         {
;;;58             CPU_StoreReg[i] = NVIC->IP[i];
        0x00208898:    f10022e0    ..."    ADD      r2,r0,#0xe000e000
        0x0020889c:    f8922400    ...$    LDRB     r2,[r2,#0x400]
        0x002088a0:    f8412020    A.      STR      r2,[r1,r0,LSL #2]
        0x002088a4:    1c40        @.      ADDS     r0,r0,#1
;;; .\..\..\..\src\mcu\peripheral\rtl876x_io_dlps.c (56)
        0x002088a6:    2820         (      CMP      r0,#0x20
        0x002088a8:    d3f6        ..      BCC      0x208898 ; DLPS_IO_EnterDlpsCb + 36
;;;57         {
;;;58             CPU_StoreReg[i] = NVIC->IP[i];
;;;59         }
;;;60     
;;;61         CPU_StoreReg[32] = SCB->VTOR;
        0x002088aa:    4836        6H      LDR      r0,[pc,#216] ; [0x208984] = 0xe000ed08
        0x002088ac:    6800        .h      LDR      r0,[r0,#0]
;;;62         /* Save Vendor register */
;;;63         PeriIntStoreReg = PERIPHINT->EN;
        0x002088ae:    f8c10080    ....    STR      r0,[r1,#0x80]
        0x002088b2:    4835        5H      LDR      r0,[pc,#212] ; [0x208988] = 0x40006000
        0x002088b4:    68c0        .h      LDR      r0,[r0,#0xc]
        0x002088b6:    4b32        2K      LDR      r3,[pc,#200] ; [0x208980] = 0x20bba4
        0x002088b8:    3b0c        .;      SUBS     r3,r3,#0xc
;;;64     
;;;65         return;
;;;66     }
;;;67     
;;;68     /**
;;;69       * @brief  CPU exit dlps callback function(Resume CPU register values when system exit DLPS)
;;;70       * @param  None
;;;71       * @retval None
;;;72       */
;;;73     DATA_RAM_FUNCTION __STATIC_INLINE  void CPU_DLPS_Exit(void)
;;;74     {
;;;75         //NVIC restore
;;;76         uint32_t i;
;;;77     
;;;78         //Don't restore NVIC pending register, but report warning
;;;79         //NVIC->ISPR[0] = CPU_StoreReg[1];
;;;80         if (CPU_StoreReg[1])
;;;81         {
;;;82             DLPS_PRINT_WARN1("miss interrupt: pending register: 0x%x", CPU_StoreReg[1]);
;;;83         }
;;;84     //    NVIC->IABR[0] = CPU_StoreReg[2];
;;;85     
;;;86         //The priority of system on interrupt is 0 at first DLPS ENTER CB, so store and restore is skipped
;;;87         for (i = 3; i < 32; ++i) //skip System_IRQn, WDG_IRQn, BTMAC_IRQn which are handled in rom
;;;88         {
;;;89             NVIC->IP[i] = CPU_StoreReg[i];
;;;90         }
;;;91     
;;;92         SCB->VTOR = CPU_StoreReg[32];
;;;93         PERIPHINT->EN = PeriIntStoreReg;
;;;94         NVIC->ISER[0] = CPU_StoreReg[0];
;;;95     
;;;96         void debug_monitor_enable(void);
;;;97         debug_monitor_enable();
;;;98         return;
;;;99     }
;;;100    
;;;101    /**
;;;102      * @brief  PINMUX enter dlps callback function(Save PINMUX register values when system enter DLPS)
;;;103      * @param  None
;;;104      * @retval None
;;;105      */
;;;106    __STATIC_INLINE  void Pinmux_DLPS_Enter(void)
;;;107    {
;;;108        uint8_t i = 0;
;;;109    
;;;110        for (i = 0; i < 10; i++)
;;;111        {
;;;112            Pinmux_StoreReg[i] = PINMUX->CFG[i];
        0x002088ba:    f1030190    ....    ADD      r1,r3,#0x90
;;; .\..\..\..\src\mcu\peripheral\rtl876x_io_dlps.c (108)
        0x002088be:    6018        .`      STR      r0,[r3,#0]
        0x002088c0:    2000        .       MOVS     r0,#0
;;;109    
;;;110        for (i = 0; i < 10; i++)
;;;111        {
;;;112            Pinmux_StoreReg[i] = PINMUX->CFG[i];
        0x002088c2:    0082        ..      LSLS     r2,r0,#2
        0x002088c4:    f1024280    ...B    ADD      r2,r2,#0x40000000
        0x002088c8:    f8d22280    ..."    LDR      r2,[r2,#0x280]
        0x002088cc:    f8412020    A.      STR      r2,[r1,r0,LSL #2]
        0x002088d0:    1c40        @.      ADDS     r0,r0,#1
;;; .\..\..\..\src\mcu\peripheral\rtl876x_io_dlps.c (110)
        0x002088d2:    b2c0        ..      UXTB     r0,r0
;;; .\..\..\..\src\mcu\peripheral\rtl876x_io_dlps.c (110)
        0x002088d4:    280a        .(      CMP      r0,#0xa
        0x002088d6:    d3f4        ..      BCC      0x2088c2 ; DLPS_IO_EnterDlpsCb + 78
;;;111        {
;;;112            Pinmux_StoreReg[i] = PINMUX->CFG[i];
;;;113        }
;;;114    
;;;115        return;
;;;116    }
;;;117    
;;;118    /**
;;;119      * @brief  PINMUX exit dlps callback function(Resume PINMUX register values when system exit DLPS)
;;;120      * @param  None
;;;121      * @retval None
;;;122      */
;;;123    DATA_RAM_FUNCTION __STATIC_INLINE  void Pinmux_DLPS_Exit(void)
;;;124    {
;;;125        uint8_t i;
;;;126    
;;;127        for (i = 0; i < 10; i++)
;;;128        {
;;;129            PINMUX->CFG[i] = Pinmux_StoreReg[i];
;;;130        }
;;;131    
;;;132        return;
;;;133    }
;;;134    #endif
;;;135    
;;;136    /********************************************** ********************************************************/
;;;137    /**************************************** [GPIO DLPS] **************************************************/
;;;138    /*******************************************************************************************************/
;;;139    /*******************************************************************************************************/
;;;140    #if USE_GPIO_DLPS
;;;141    
;;;142    __STATIC_INLINE void GPIO_DLPS_Enter(void);
;;;143    __STATIC_INLINE void GPIO_DLPS_Exit(void);
;;;144    
;;;145    uint32_t GPIO_StoreReg[9];         /*  This array should be placed in RAM ON/Buffer ON.    */
;;;146    
;;;147    /**
;;;148      * @brief  GPIO enter dlps callback function(Save GPIO register values when system enter DLPS)
;;;149      * @param  None
;;;150      * @retval None
;;;151      */
;;;152    __STATIC_INLINE void GPIO_DLPS_Enter(void)
;;;153    {
;;;154        PERIPH->PERI_FUNC1_EN |= BIT_PERI_GPIO_EN;
;;;155        PERIPH->PERI_CLK_CTRL |= (BIT_SOC_ACTCK_GPIO_EN | SYSBLK_SLPCK_GPIO_EN_Msk);
;;;156    
;;;157        GPIO_StoreReg[0] = GPIO->DATAOUT;
;;;158        GPIO_StoreReg[1] = GPIO->DATADIR;
;;;159        GPIO_StoreReg[2] = GPIO->DATASRC;
;;;160        GPIO_StoreReg[3] = GPIO->INTEN;
;;;161        GPIO_StoreReg[4] = GPIO->INTMASK;
;;;162        GPIO_StoreReg[5] = GPIO->INTTYPE;
;;;163        GPIO_StoreReg[6] = GPIO->INTPOLARITY;
;;;164        GPIO_StoreReg[7] = GPIO->DEBOUNCE;
;;;165        GPIO_StoreReg[8] = *(__IO uint32_t *)(0x40000344UL);
;;;166    
;;;167        return;
;;;168    }
;;;169    
;;;170    /**
;;;171      * @brief  GPIO exit dlps callback function(Resume GPIO register values when system exit DLPS)
;;;172      * @param  None
;;;173      * @retval None
;;;174      */
;;;175    DATA_RAM_FUNCTION __STATIC_INLINE void GPIO_DLPS_Exit(void)
;;;176    {
;;;177        PERIPH->PERI_FUNC1_EN |= BIT_PERI_GPIO_EN;
;;;178        PERIPH->PERI_CLK_CTRL |= (BIT_SOC_ACTCK_GPIO_EN | SYSBLK_SLPCK_GPIO_EN_Msk);
;;;179    
;;;180        GPIO->DATADIR       = GPIO_StoreReg[1];
;;;181        GPIO->DATASRC       = GPIO_StoreReg[2];
;;;182        GPIO->INTMASK       = GPIO_StoreReg[4];
;;;183        GPIO->INTTYPE       = GPIO_StoreReg[5];
;;;184        GPIO->INTPOLARITY   = GPIO_StoreReg[6];
;;;185        GPIO->DEBOUNCE      = GPIO_StoreReg[7];
;;;186        GPIO->DATAOUT       = GPIO_StoreReg[0];
;;;187        GPIO->INTCLR        = ~(GPIO_StoreReg[1]);
;;;188        GPIO->INTEN         = GPIO_StoreReg[3];
;;;189        *(__IO uint32_t *)(0x40000344UL) = GPIO_StoreReg[8];
;;;190    
;;;191        return;
;;;192    }
;;;193    #endif  /* USE_GPIO_DLPS */
;;;194    
;;;195    
;;;196    /********************************************** ********************************************************/
;;;197    /**************************************** [KEYSCAN DLPS] ***********************************************/
;;;198    /*******************************************************************************************************/
;;;199    /*******************************************************************************************************/
;;;200    #if USE_KEYSCAN_DLPS
;;;201    __STATIC_INLINE void KeyScan_DLPS_Enter(void);
;;;202    __STATIC_INLINE void KeyScan_DLPS_Exit(void);
;;;203    
;;;204    uint32_t KeyScan_StoreReg[7];      /*  This array should be placed in RAM ON/Buffer ON.    */
;;;205    
;;;206    /**
;;;207      * @brief  KEYSCAN enter dlps callback function(Save KEYSCAN register values when system enter DLPS)
;;;208      * @param  None
;;;209      * @retval None
;;;210      */
;;;211    __STATIC_INLINE void KeyScan_DLPS_Enter(void)
;;;212    {
;;;213        /*Open 5M clock source*/
;;;214        SYSBLKCTRL->u_20C.RSVD_20C |= BIT26;
;;;215        SYSBLKCTRL->u_20C.RSVD_20C |= BIT29;
;;;216    
;;;217        PERIPH->PERI_FUNC0_EN |= BIT_PERI_KEYSCAN_EN;
;;;218        PERIPH->PERI_CLK_CTRL1 |= (BIT_SOC_ACTCK_KEYSCAN_EN | SYSBLK_SLPCK_KEYSCAN_EN_Msk);
;;;219    
;;;220        KeyScan_StoreReg[0] = KEYSCAN->CLKDIV;               /* 0x00 */
;;;221        KeyScan_StoreReg[1] = KEYSCAN->TIMERCR;              /* 0x04 */
;;;222        KeyScan_StoreReg[2] = KEYSCAN->CR;                   /* 0x08 */
;;;223        KeyScan_StoreReg[3] = KEYSCAN->COLCR;                /* 0x0C */
;;;224        KeyScan_StoreReg[4] = KEYSCAN->ROWCR;                /* 0x10 */
;;;225        KeyScan_StoreReg[6] = KEYSCAN->INTMASK;              /* 0x18 */
;;;226    
;;;227        return;
;;;228    }
;;;229    
;;;230    /**
;;;231      * @brief  KEYSCAN exit dlps callback function(Resume KEYSCAN register values when system exit DLPS)
;;;232      * @param  None
;;;233      * @retval None
;;;234      */
;;;235    DATA_RAM_FUNCTION __STATIC_INLINE void KeyScan_DLPS_Exit(void)
;;;236    {
;;;237        /*Open 5M clock source*/
;;;238        SYSBLKCTRL->u_20C.RSVD_20C |= BIT26;
;;;239        SYSBLKCTRL->u_20C.RSVD_20C |= BIT29;
;;;240    
;;;241        PERIPH->PERI_FUNC0_EN |= BIT_PERI_KEYSCAN_EN;
;;;242        PERIPH->PERI_CLK_CTRL1 |= (BIT_SOC_ACTCK_KEYSCAN_EN | SYSBLK_SLPCK_KEYSCAN_EN_Msk);
;;;243    
;;;244        /* Set FSM to idle state */
;;;245        KEYSCAN->CR &= ~BIT31;
;;;246        KEYSCAN->CLKDIV = KeyScan_StoreReg[0];
;;;247        KEYSCAN->CR = (KeyScan_StoreReg[2] & (~(BIT31)));
;;;248        KEYSCAN->TIMERCR = KeyScan_StoreReg[1];
;;;249        KEYSCAN->COLCR = KeyScan_StoreReg[3];
;;;250        KEYSCAN->ROWCR = KeyScan_StoreReg[4];
;;;251        KEYSCAN->INTMASK = KeyScan_StoreReg[6];
;;;252        KEYSCAN->CR |= (KeyScan_StoreReg[2] & ((BIT31)));
;;;253    
;;;254        return;
;;;255    }
;;;256    #endif /* USE_KEYSCAN_DLPS */
;;;257    
;;;258    
;;;259    /********************************************** ********************************************************/
;;;260    /**************************************** [QDEC DLPS] **************************************************/
;;;261    /*******************************************************************************************************/
;;;262    /*******************************************************************************************************/
;;;263    #if USE_QDECODER_DLPS
;;;264    __STATIC_INLINE void QuadDecoder_DLPS_Enter(void);
;;;265    __STATIC_INLINE void QuadDecoder_DLPS_Exit(void);
;;;266    
;;;267    uint32_t QuadDecoder_StoreReg[5];  /*  This array should be placed in RAM ON/Buffer ON.    */
;;;268    
;;;269    /**
;;;270      * @brief  QDEC enter dlps callback function(Save QDEC register values when system enter DLPS)
;;;271      * @param  None
;;;272      * @retval None
;;;273      */
;;;274    __STATIC_INLINE void QuadDecoder_DLPS_Enter(void)
;;;275    {
;;;276        /*Open 20M clock source*/
;;;277        SYSBLKCTRL->u_20C.RSVD_20C |= BIT26;
;;;278        SYSBLKCTRL->u_20C.RSVD_20C |= BIT27;
;;;279        SYSBLKCTRL->u_218.PERI_FUNC0_EN |= SYSBLK_QDECODE_EN_Msk;
;;;280        SYSBLKCTRL->u_238.PERI_CLK_CTRL1 |= (SYSBLK_ACTCK_QDECODE_EN_Msk | SYSBLK_SLPCK_QDECODE_EN_Msk);
;;;281    
;;;282        QuadDecoder_StoreReg[0] = QDEC->REG_DIV;
;;;283        QuadDecoder_StoreReg[1] = QDEC->REG_CR_X;
;;;284        QuadDecoder_StoreReg[2] = QDEC->REG_CR_Y;
;;;285        QuadDecoder_StoreReg[3] = QDEC->REG_CR_Z;
;;;286        QuadDecoder_StoreReg[4] = QDEC->INT_MASK;
;;;287    
;;;288        return;
;;;289    }
;;;290    
;;;291    /**
;;;292      * @brief  QDEC exit dlps callback function(Resume QDEC register values when system exit DLPS)
;;;293      * @param  None
;;;294      * @retval None
;;;295      */
;;;296    DATA_RAM_FUNCTION __STATIC_INLINE void QuadDecoder_DLPS_Exit(void)
;;;297    {
;;;298        /*Open 20M clock source*/
;;;299        SYSBLKCTRL->u_20C.RSVD_20C |= BIT26;
;;;300        SYSBLKCTRL->u_20C.RSVD_20C |= BIT27;
;;;301        SYSBLKCTRL->u_218.PERI_FUNC0_EN |= SYSBLK_QDECODE_EN_Msk;
;;;302        SYSBLKCTRL->u_238.PERI_CLK_CTRL1 |= (SYSBLK_ACTCK_QDECODE_EN_Msk | SYSBLK_SLPCK_QDECODE_EN_Msk);
;;;303    
;;;304        //clear flags
;;;305        QDEC->REG_DIV  = QuadDecoder_StoreReg[0];
;;;306        QDEC->REG_CR_X = QuadDecoder_StoreReg[1];
;;;307        QDEC->REG_CR_Y = QuadDecoder_StoreReg[2];
;;;308        QDEC->REG_CR_Z = QuadDecoder_StoreReg[3];
;;;309        QDEC->INT_MASK = QuadDecoder_StoreReg[4];
;;;310    
;;;311        return;
;;;312    }
;;;313    #endif
;;;314    
;;;315    /********************************************** ********************************************************/
;;;316    /**************************************** [SPI0 DLPS] **************************************************/
;;;317    /*******************************************************************************************************/
;;;318    /*******************************************************************************************************/
;;;319    #if USE_SPI0_DLPS
;;;320    __STATIC_INLINE void SPI0_DLPS_Enter(void);
;;;321    __STATIC_INLINE void SPI0_DLPS_Exit(void);
;;;322    
;;;323    uint32_t SPI0_StoreReg[13];        /*  This array should be placed in RAM ON/Buffer ON.    */
;;;324    
;;;325    /**
;;;326      * @brief  SPI0 enter dlps callback function(Save SPI0 register values when system enter DLPS)
;;;327      * @param  None
;;;328      * @retval None
;;;329      */
;;;330    __STATIC_INLINE void SPI0_DLPS_Enter(void)
;;;331    {
;;;332        SYSBLKCTRL->u_218.PERI_FUNC0_EN |=  SYSBLK_SPI0_EN_Msk;
;;;333        SYSBLKCTRL->u_234.PERI_CLK_CTRL0 |= (SYSBLK_ACTCK_SPI0_EN_Msk | SYSBLK_SLPCK_SPI0_EN_Msk);
;;;334    
;;;335        SPI0_StoreReg[0] = SPI0->CTRLR0;
;;;336        SPI0_StoreReg[1] = SPI0->CTRLR1;
;;;337        SPI0_StoreReg[2] = SPI0->SSIENR;
;;;338        SPI0_StoreReg[3] = SPI0->SER;
;;;339        SPI0_StoreReg[4] = SPI0->BAUDR;
;;;340        SPI0_StoreReg[5] = SPI0->TXFTLR;
;;;341        SPI0_StoreReg[6] = SPI0->RXFTLR;
;;;342        SPI0_StoreReg[7] = SPI0->IMR;
;;;343        SPI0_StoreReg[8] = SPI0->DMACR;
;;;344        SPI0_StoreReg[9] = SPI0->DMATDLR;
;;;345        SPI0_StoreReg[10] = SPI0->DMARDLR;
;;;346        SPI0_StoreReg[11] = SPI0->RX_SAMPLE_DLY;
;;;347        SPI0_StoreReg[12] = *(volatile uint32_t *)0x40000308;
;;;348    }
;;;349    
;;;350    /**
;;;351      * @brief  SPI0 exit dlps callback function(Resume SPI0 register values when system exit DLPS)
;;;352      * @param  None
;;;353      * @retval None
;;;354      */
;;;355    DATA_RAM_FUNCTION __STATIC_INLINE void SPI0_DLPS_Exit(void)
;;;356    {
;;;357        *(volatile uint32_t *)0x40000308 = SPI0_StoreReg[12];
;;;358        SYSBLKCTRL->u_218.PERI_FUNC0_EN |=  SYSBLK_SPI0_EN_Msk;
;;;359        SYSBLKCTRL->u_234.PERI_CLK_CTRL0 |= (SYSBLK_ACTCK_SPI0_EN_Msk | SYSBLK_SLPCK_SPI0_EN_Msk);
;;;360    
;;;361        SPI0->CTRLR0 = SPI0_StoreReg[0];
;;;362        SPI0->CTRLR1 = SPI0_StoreReg[1];
;;;363        SPI0->SER = SPI0_StoreReg[3];
;;;364        SPI0->BAUDR = SPI0_StoreReg[4];
;;;365        SPI0->TXFTLR = SPI0_StoreReg[5];
;;;366        SPI0->RXFTLR = SPI0_StoreReg[6];
;;;367        SPI0->IMR = SPI0_StoreReg[7];
;;;368        SPI0->DMACR = SPI0_StoreReg[8];
;;;369        SPI0->DMATDLR = SPI0_StoreReg[9];
;;;370        SPI0->DMARDLR = SPI0_StoreReg[10];
;;;371        SPI0->RX_SAMPLE_DLY = SPI0_StoreReg[11];
;;;372    
;;;373        /* Enable the selected SPI peripheral */
;;;374        SPI0->SSIENR = SPI0_StoreReg[2];
;;;375    }
;;;376    #endif
;;;377    
;;;378    
;;;379    /********************************************** ********************************************************/
;;;380    /**************************************** [SPI1 DLPS] **************************************************/
;;;381    /*******************************************************************************************************/
;;;382    /*******************************************************************************************************/
;;;383    #if USE_SPI1_DLPS
;;;384    __STATIC_INLINE void SPI1_DLPS_Enter(void);
;;;385    __STATIC_INLINE void SPI1_DLPS_Exit(void);
;;;386    
;;;387    uint32_t SPI1_StoreReg[13];        /*  This array should be placed in RAM ON/Buffer ON.    */
;;;388    
;;;389    /**
;;;390      * @brief  SPI1 enter dlps callback function(Save SPI1 register values when system enter DLPS)
;;;391      * @param  None
;;;392      * @retval None
;;;393      */
;;;394    __STATIC_INLINE void SPI1_DLPS_Enter(void)
;;;395    {
;;;396        SYSBLKCTRL->u_218.PERI_FUNC0_EN |=  SYSBLK_SPI1_EN_Msk;
;;;397        SYSBLKCTRL->u_234.PERI_CLK_CTRL0 |= (SYSBLK_ACTCK_SPI1_EN_Msk | SYSBLK_SLPCK_SPI1_EN_Msk);
;;;398    
;;;399        SPI1_StoreReg[0] = SPI1->CTRLR0;
;;;400        SPI1_StoreReg[1] = SPI1->CTRLR1;
;;;401        SPI1_StoreReg[2] = SPI1->SSIENR;
;;;402        SPI1_StoreReg[3] = SPI1->SER;
;;;403        SPI1_StoreReg[4] = SPI1->BAUDR;
;;;404        SPI1_StoreReg[5] = SPI1->TXFTLR;
;;;405        SPI1_StoreReg[6] = SPI1->RXFTLR;
;;;406        SPI1_StoreReg[7] = SPI1->IMR;
;;;407        SPI1_StoreReg[8] = SPI1->DMACR;
;;;408        SPI1_StoreReg[9] = SPI1->DMATDLR;
;;;409        SPI1_StoreReg[10] = SPI1->DMARDLR;
;;;410        SPI1_StoreReg[11] = SPI1->RX_SAMPLE_DLY;
;;;411        SPI1_StoreReg[12] = *(volatile uint32_t *)0x40000308;
;;;412    }
;;;413    
;;;414    /**
;;;415      * @brief  SPI1 exit dlps callback function(Resume SPI1 register values when system exit DLPS)
;;;416      * @param  None
;;;417      * @retval None
;;;418      */
;;;419    DATA_RAM_FUNCTION __STATIC_INLINE void SPI1_DLPS_Exit(void)
;;;420    {
;;;421        *(volatile uint32_t *)0x40000308 = SPI1_StoreReg[12];
;;;422        SYSBLKCTRL->u_218.PERI_FUNC0_EN |=  SYSBLK_SPI1_EN_Msk;
;;;423        SYSBLKCTRL->u_234.PERI_CLK_CTRL0 |= (SYSBLK_ACTCK_SPI1_EN_Msk | SYSBLK_SLPCK_SPI1_EN_Msk);
;;;424    
;;;425        SPI1->CTRLR0 = SPI1_StoreReg[0];
;;;426        SPI1->CTRLR1 = SPI1_StoreReg[1];
;;;427        SPI1->SER = SPI1_StoreReg[3];
;;;428        SPI1->BAUDR = SPI1_StoreReg[4];
;;;429        SPI1->TXFTLR = SPI1_StoreReg[5];
;;;430        SPI1->RXFTLR = SPI1_StoreReg[6];
;;;431        SPI1->IMR = SPI1_StoreReg[7];
;;;432        SPI1->DMACR = SPI1_StoreReg[8];
;;;433        SPI1->DMATDLR = SPI1_StoreReg[9];
;;;434        SPI1->DMARDLR = SPI1_StoreReg[10];
;;;435        SPI1->RX_SAMPLE_DLY = SPI1_StoreReg[11];
;;;436    
;;;437        /* Enable the selected SPI peripheral */
;;;438        SPI1->SSIENR = SPI1_StoreReg[2];
;;;439    }
;;;440    #endif
;;;441    
;;;442    /********************************************** ********************************************************/
;;;443    /**************************************** [SPI2W DLPS] **************************************************/
;;;444    /*******************************************************************************************************/
;;;445    /*******************************************************************************************************/
;;;446    #if USE_SPI2W_DLPS
;;;447    __STATIC_INLINE void SPI2W_DLPS_Enter(void);
;;;448    __STATIC_INLINE void SPI2W_DLPS_Exit(void);
;;;449    
;;;450    uint32_t SPI2W_StoreReg[1];        /*  This array should be placed in RAM ON/Buffer ON.    */
;;;451    
;;;452    /**
;;;453      * @brief  SPI2W enter dlps callback function(Save SPI2W register values when system enter DLPS)
;;;454      * @param  None
;;;455      * @retval None
;;;456      */
;;;457    __STATIC_INLINE void SPI2W_DLPS_Enter(void)
;;;458    {
;;;459        /*Open 20M clock source*/
;;;460        SYSBLKCTRL->u_20C.RSVD_20C |= BIT26;
;;;461        SYSBLKCTRL->u_20C.RSVD_20C |= BIT27;
;;;462    
;;;463        SYSBLKCTRL->u_218.PERI_FUNC0_EN |=  SYSBLK_SPI2W_EN_Msk;
;;;464        SYSBLKCTRL->u_238.PERI_CLK_CTRL1 |= (SYSBLK_ACTCK_SPI2WIRE_EN_Msk | SYSBLK_SLPCK_SPI2WIRE_EN_Msk);
;;;465    
;;;466        SPI2W_StoreReg[0] = SPI3WIRE->CFGR;
;;;467    }
;;;468    
;;;469    /**
;;;470      * @brief  SPI2W exit dlps callback function(Resume SPI2W register values when system exit DLPS)
;;;471      * @param  None
;;;472      * @retval None
;;;473      */
;;;474    DATA_RAM_FUNCTION __STATIC_INLINE void SPI2W_DLPS_Exit(void)
;;;475    {
;;;476        /*Open 20M clock source*/
;;;477        SYSBLKCTRL->u_20C.RSVD_20C |= BIT26;
;;;478        SYSBLKCTRL->u_20C.RSVD_20C |= BIT27;
;;;479    
;;;480        SYSBLKCTRL->u_218.PERI_FUNC0_EN |=  SYSBLK_SPI2W_EN_Msk;
;;;481        SYSBLKCTRL->u_238.PERI_CLK_CTRL1 |= (SYSBLK_ACTCK_SPI2WIRE_EN_Msk | SYSBLK_SLPCK_SPI2WIRE_EN_Msk);
;;;482    
;;;483        SPI3WIRE->CFGR = SPI2W_StoreReg[0];
;;;484    }
;;;485    #endif
;;;486    
;;;487    /********************************************** ********************************************************/
;;;488    /**************************************** [I2C0 DLPS] **************************************************/
;;;489    /*******************************************************************************************************/
;;;490    /*******************************************************************************************************/
;;;491    #if USE_I2C0_DLPS
;;;492    __STATIC_INLINE void I2C0_DLPS_Enter(void);
;;;493    __STATIC_INLINE void I2C0_DLPS_Exit(void);
;;;494    
;;;495    uint32_t I2C0_StoreReg[20];        /*  This array should be placed in RAM ON/Buffer ON.    */
;;;496    
;;;497    /**
;;;498      * @brief  I2C0 enter dlps callback function(Save I2C0 register values when system enter DLPS)
;;;499      * @param  None
;;;500      * @retval None
;;;501      */
;;;502    __STATIC_INLINE void I2C0_DLPS_Enter(void)
;;;503    {
;;;504        PERIPH->PERI_CLK_CTRL1 |= (SYSBLK_ACTCK_I2C0_EN_Msk | SYSBLK_SLPCK_I2C0_EN_Msk);
;;;505        PERIPH->PERI_FUNC0_EN |= SYSBLK_I2C0_EN_Msk;
;;;506    
;;;507        I2C0_StoreReg[0] = I2C0->IC_CON;
;;;508        I2C0_StoreReg[1] = I2C0->IC_TAR;
;;;509        I2C0_StoreReg[2] = I2C0->IC_SAR;
;;;510        I2C0_StoreReg[3] = I2C0->IC_HS_MADDR;
;;;511    
;;;512        I2C0_StoreReg[4] = I2C0->IC_SS_SCL_HCNT;
;;;513        I2C0_StoreReg[5] = I2C0->IC_SS_SCL_LCNT;
;;;514        I2C0_StoreReg[6] = I2C0->IC_FS_SCL_HCNT;
;;;515        I2C0_StoreReg[7] = I2C0->IC_FS_SCL_LCNT;
;;;516        I2C0_StoreReg[8] = I2C0->IC_HS_SCL_HCNT;
;;;517        I2C0_StoreReg[9] = I2C0->IC_HS_SCL_LCNT;
;;;518    
;;;519        I2C0_StoreReg[10] = I2C0->IC_INTR_MASK;
;;;520        I2C0_StoreReg[11] = I2C0->IC_RX_TL;
;;;521        I2C0_StoreReg[12] = I2C0->IC_TX_TL;
;;;522        I2C0_StoreReg[13] = I2C0->IC_ENABLE;
;;;523        I2C0_StoreReg[14] = I2C0->IC_SDA_HOLD;
;;;524        I2C0_StoreReg[15] = I2C0->IC_SLV_DATA_NACK_ONLY;
;;;525        I2C0_StoreReg[16] = I2C0->IC_DMA_CR;
;;;526        I2C0_StoreReg[17] = I2C0->IC_DMA_TDLR;
;;;527        I2C0_StoreReg[18] = I2C0->IC_DMA_RDLR;
;;;528    
;;;529        I2C0_StoreReg[19] = I2C0->IC_SDA_SETUP;
;;;530    }
;;;531    
;;;532    /**
;;;533      * @brief  I2C0 exit dlps callback function(Resume I2C0 register values when system exit DLPS)
;;;534      * @param  None
;;;535      * @retval None
;;;536      */
;;;537    DATA_RAM_FUNCTION __STATIC_INLINE void I2C0_DLPS_Exit(void)
;;;538    {
;;;539        PERIPH->PERI_CLK_CTRL1 |= (SYSBLK_ACTCK_I2C0_EN_Msk | SYSBLK_SLPCK_I2C0_EN_Msk);
;;;540        PERIPH->PERI_FUNC0_EN |= SYSBLK_I2C0_EN_Msk;
;;;541    
;;;542        I2C0->IC_CON = I2C0_StoreReg[0];
;;;543        I2C0->IC_TAR = I2C0_StoreReg[1];
;;;544        I2C0->IC_SAR = I2C0_StoreReg[2];
;;;545        I2C0->IC_HS_MADDR = I2C0_StoreReg[3];
;;;546    
;;;547        I2C0->IC_SS_SCL_HCNT = I2C0_StoreReg[4];
;;;548        I2C0->IC_SS_SCL_LCNT = I2C0_StoreReg[5];
;;;549        I2C0->IC_FS_SCL_HCNT = I2C0_StoreReg[6];
;;;550        I2C0->IC_FS_SCL_LCNT = I2C0_StoreReg[7];
;;;551        I2C0->IC_HS_SCL_HCNT = I2C0_StoreReg[8];
;;;552        I2C0->IC_HS_SCL_LCNT = I2C0_StoreReg[9];
;;;553    
;;;554        I2C0->IC_INTR_MASK = I2C0_StoreReg[10];
;;;555        I2C0->IC_RX_TL = I2C0_StoreReg[11];
;;;556        I2C0->IC_TX_TL = I2C0_StoreReg[12];
;;;557        I2C0->IC_SDA_HOLD = I2C0_StoreReg[14];
;;;558        I2C0->IC_SLV_DATA_NACK_ONLY = I2C0_StoreReg[15];
;;;559        I2C0->IC_DMA_CR = I2C0_StoreReg[16];
;;;560        I2C0->IC_DMA_TDLR = I2C0_StoreReg[17];
;;;561        I2C0->IC_DMA_RDLR = I2C0_StoreReg[18];
;;;562        I2C0->IC_SDA_SETUP = I2C0_StoreReg[19];
;;;563    
;;;564        I2C0->IC_ENABLE = I2C0_StoreReg[13];
;;;565    }
;;;566    #endif
;;;567    
;;;568    /********************************************** ********************************************************/
;;;569    /**************************************** [I2C1 DLPS] **************************************************/
;;;570    /*******************************************************************************************************/
;;;571    /*******************************************************************************************************/
;;;572    #if USE_I2C1_DLPS
;;;573    __STATIC_INLINE void I2C1_DLPS_Enter(void);
;;;574    __STATIC_INLINE void I2C1_DLPS_Exit(void);
;;;575    
;;;576    uint32_t I2C1_StoreReg[20];        /*  This array should be placed in RAM ON/Buffer ON.    */
;;;577    
;;;578    /**
;;;579      * @brief  I2C1 enter dlps callback function(Save I2C1 register values when system enter DLPS)
;;;580      * @param  None
;;;581      * @retval None
;;;582      */
;;;583    __STATIC_INLINE void I2C1_DLPS_Enter(void)
;;;584    {
;;;585        PERIPH->PERI_CLK_CTRL1 |= (SYSBLK_ACTCK_I2C1_EN_Msk | SYSBLK_SLPCK_I2C1_EN_Msk);
;;;586        PERIPH->PERI_FUNC0_EN |= SYSBLK_I2C1_EN_Msk;
;;;587    
;;;588        I2C1_StoreReg[0] = I2C1->IC_CON;
;;;589        I2C1_StoreReg[1] = I2C1->IC_TAR;
;;;590        I2C1_StoreReg[2] = I2C1->IC_SAR;
;;;591        I2C1_StoreReg[3] = I2C1->IC_HS_MADDR;
;;;592    
;;;593        I2C1_StoreReg[4] = I2C1->IC_SS_SCL_HCNT;
;;;594        I2C1_StoreReg[5] = I2C1->IC_SS_SCL_LCNT;
;;;595        I2C1_StoreReg[6] = I2C1->IC_FS_SCL_HCNT;
;;;596        I2C1_StoreReg[7] = I2C1->IC_FS_SCL_LCNT;
;;;597        I2C1_StoreReg[8] = I2C1->IC_HS_SCL_HCNT;
;;;598        I2C1_StoreReg[9] = I2C1->IC_HS_SCL_LCNT;
;;;599    
;;;600        I2C1_StoreReg[10] = I2C1->IC_INTR_MASK;
;;;601        I2C1_StoreReg[11] = I2C1->IC_RX_TL;
;;;602        I2C1_StoreReg[12] = I2C1->IC_TX_TL;
;;;603        I2C1_StoreReg[13] = I2C1->IC_ENABLE;
;;;604        I2C1_StoreReg[14] = I2C1->IC_SDA_HOLD;
;;;605        I2C1_StoreReg[15] = I2C1->IC_SLV_DATA_NACK_ONLY;
;;;606        I2C1_StoreReg[16] = I2C1->IC_DMA_CR;
;;;607        I2C1_StoreReg[17] = I2C1->IC_DMA_TDLR;
;;;608        I2C1_StoreReg[18] = I2C1->IC_DMA_RDLR;
;;;609    
;;;610        I2C1_StoreReg[19] = I2C1->IC_SDA_SETUP;
;;;611    }
;;;612    
;;;613    /**
;;;614      * @brief  I2C1 exit dlps callback function(Resume I2C1 register values when system exit DLPS)
;;;615      * @param  None
;;;616      * @retval None
;;;617      */
;;;618    DATA_RAM_FUNCTION __STATIC_INLINE void I2C1_DLPS_Exit(void)
;;;619    {
;;;620        PERIPH->PERI_CLK_CTRL1 |= (SYSBLK_ACTCK_I2C1_EN_Msk | SYSBLK_SLPCK_I2C1_EN_Msk);
;;;621        PERIPH->PERI_FUNC0_EN |= SYSBLK_I2C1_EN_Msk;
;;;622    
;;;623        I2C1->IC_CON = I2C1_StoreReg[0];
;;;624        I2C1->IC_TAR = I2C1_StoreReg[1];
;;;625        I2C1->IC_SAR = I2C1_StoreReg[2];
;;;626        I2C0->IC_HS_MADDR = I2C1_StoreReg[3];
;;;627    
;;;628        I2C1->IC_SS_SCL_HCNT = I2C1_StoreReg[4];
;;;629        I2C1->IC_SS_SCL_LCNT = I2C1_StoreReg[5];
;;;630        I2C1->IC_FS_SCL_HCNT = I2C1_StoreReg[6];
;;;631        I2C1->IC_FS_SCL_LCNT = I2C1_StoreReg[7];
;;;632        I2C1->IC_HS_SCL_HCNT = I2C1_StoreReg[8];
;;;633        I2C1->IC_HS_SCL_LCNT = I2C1_StoreReg[9];
;;;634    
;;;635        I2C1->IC_INTR_MASK = I2C1_StoreReg[10];
;;;636        I2C1->IC_RX_TL = I2C1_StoreReg[11];
;;;637        I2C1->IC_TX_TL = I2C1_StoreReg[12];
;;;638        I2C1->IC_SDA_HOLD = I2C1_StoreReg[14];
;;;639        I2C1->IC_SLV_DATA_NACK_ONLY = I2C1_StoreReg[15];
;;;640        I2C1->IC_DMA_CR = I2C1_StoreReg[16];
;;;641        I2C1->IC_DMA_TDLR = I2C1_StoreReg[17];
;;;642        I2C1->IC_DMA_RDLR = I2C1_StoreReg[18];
;;;643        I2C1->IC_SDA_SETUP = I2C1_StoreReg[19];
;;;644    
;;;645        I2C1->IC_ENABLE = I2C1_StoreReg[13];
;;;646    }
;;;647    #endif
;;;648    
;;;649    /********************************************** ********************************************************/
;;;650    /**************************************** [Timer & PWM DLPS] *******************************************/
;;;651    /*******************************************************************************************************/
;;;652    /*******************************************************************************************************/
;;;653    #if USE_TIM_DLPS
;;;654    #include "rtl876x_tim.h"
;;;655    __STATIC_INLINE void TIM_DLPS_Enter(void);
;;;656    __STATIC_INLINE void TIM_DLPS_Exit(void);
;;;657    
;;;658    uint32_t TIM_StoreReg[26];      /*  This array should be placed in RAM ON/Buffer ON.    */
;;;659    
;;;660    /* PWM, use with timer */
;;;661    uint32_t PWM0_StoreReg;         /*  This array should be placed in RAM ON/Buffer ON.    */
;;;662    
;;;663    uint32_t PWM1_StoreReg;         /*  This array should be placed in RAM ON/Buffer ON.    */
;;;664    
;;;665    /**
;;;666      * @brief  TIMER enter dlps callback function(Save TIMER register values when system enter DLPS)
;;;667      * @param  None
;;;668      * @retval None
;;;669      */
;;;670    __STATIC_INLINE void TIM_DLPS_Enter(void)
;;;671    {
;;;672        SYSBLKCTRL->u_210.SOC_FUNC_EN |= BIT(16);
;;;673        SYSBLKCTRL->u_230.CLK_CTRL |= (SYSBLK_ACTCK_TIMER_EN_Msk | SYSBLK_SLPCK_TIMER_EN_Msk);
;;;674    
;;;675        TIM_StoreReg[0] = TIM0->LoadCount;
;;;676        TIM_StoreReg[1] = TIM0->ControlReg;
;;;677        TIM_StoreReg[2] = TIMER0_LOAD_COUNT2;
;;;678    
;;;679        TIM_StoreReg[3] = TIM1->LoadCount;
;;;680        TIM_StoreReg[4] = TIM1->ControlReg;
;;;681        TIM_StoreReg[5] = TIMER1_LOAD_COUNT2;
;;;682    
;;;683        TIM_StoreReg[6] = TIM2->LoadCount;
;;;684        TIM_StoreReg[7] = TIM2->ControlReg;
;;;685        TIM_StoreReg[8] = TIMER2_LOAD_COUNT2;
;;;686    
;;;687        TIM_StoreReg[9] = TIM3->LoadCount;
;;;688        TIM_StoreReg[10] = TIM3->ControlReg;
;;;689        TIM_StoreReg[11] = TIMER3_LOAD_COUNT2;
;;;690    
;;;691        TIM_StoreReg[12] = TIM4->LoadCount;
;;;692        TIM_StoreReg[13] = TIM4->ControlReg;
;;;693        TIM_StoreReg[14] = TIMER4_LOAD_COUNT2;
;;;694    
;;;695        TIM_StoreReg[15] = TIM5->LoadCount;
;;;696        TIM_StoreReg[16] = TIM5->ControlReg;
;;;697        TIM_StoreReg[17] = TIMER5_LOAD_COUNT2;
;;;698    
;;;699        TIM_StoreReg[18] = TIM6->LoadCount;
;;;700        TIM_StoreReg[19] = TIM6->ControlReg;
;;;701        TIM_StoreReg[20] = TIMER6_LOAD_COUNT2;
;;;702    
;;;703        TIM_StoreReg[21] = TIM7->LoadCount;
;;;704        TIM_StoreReg[22] = TIM7->ControlReg;
;;;705        TIM_StoreReg[23] = TIMER7_LOAD_COUNT2;
;;;706    
;;;707        TIM_StoreReg[24] = *((volatile uint32_t *)0x4000035CUL);
;;;708        TIM_StoreReg[25] = *((volatile uint32_t *)0x40000360UL);
;;;709    
;;;710        PWM0_StoreReg = TIMER_PWM0_CR;
;;;711    
;;;712        PWM1_StoreReg = TIMER_PWM1_CR;
;;;713    }
;;;714    
;;;715    /**
;;;716      * @brief  TIMER exit dlps callback function(Resume TIMER register values when system exit DLPS)
;;;717      * @param  None
;;;718      * @retval None
;;;719      */
;;;720    DATA_RAM_FUNCTION __STATIC_INLINE void TIM_DLPS_Exit(void)
;;;721    {
;;;722        /* Enable timer IP clock and function */
;;;723        SYSBLKCTRL->u_210.SOC_FUNC_EN |= BIT(16);
;;;724        SYSBLKCTRL->u_230.CLK_CTRL |= (SYSBLK_ACTCK_TIMER_EN_Msk | SYSBLK_SLPCK_TIMER_EN_Msk);
;;;725    
;;;726        *((volatile uint32_t *)0x4000035CUL) = TIM_StoreReg[24];
;;;727        *((volatile uint32_t *)0x40000360UL) = TIM_StoreReg[25];
;;;728    
;;;729        TIM0->LoadCount = TIM_StoreReg[0];
;;;730        TIM0->ControlReg = TIM_StoreReg[1];
;;;731        TIMER0_LOAD_COUNT2 = TIM_StoreReg[2];
;;;732    
;;;733        TIM1->LoadCount = TIM_StoreReg[3];
;;;734        TIM1->ControlReg = TIM_StoreReg[4];
;;;735        TIMER1_LOAD_COUNT2 = TIM_StoreReg[5];
;;;736    
;;;737        TIM2->LoadCount = TIM_StoreReg[6];
;;;738        TIM2->ControlReg = TIM_StoreReg[7];
;;;739        TIMER2_LOAD_COUNT2 = TIM_StoreReg[8];
;;;740    
;;;741        TIM3->LoadCount = TIM_StoreReg[9];
;;;742        TIM3->ControlReg = TIM_StoreReg[10];
;;;743        TIMER3_LOAD_COUNT2 = TIM_StoreReg[11];
;;;744    
;;;745        TIM4->LoadCount = TIM_StoreReg[12];
;;;746        TIM4->ControlReg = TIM_StoreReg[13];
;;;747        TIMER4_LOAD_COUNT2 = TIM_StoreReg[14];
;;;748    
;;;749        TIM5->LoadCount = TIM_StoreReg[15];
;;;750        TIM5->ControlReg = TIM_StoreReg[16];
;;;751        TIMER5_LOAD_COUNT2 = TIM_StoreReg[17];
;;;752    
;;;753        TIM6->LoadCount = TIM_StoreReg[18];
;;;754        TIM6->ControlReg = TIM_StoreReg[19];
;;;755        TIMER6_LOAD_COUNT2 = TIM_StoreReg[20];
;;;756    
;;;757        TIM7->LoadCount = TIM_StoreReg[21];
;;;758        TIM7->ControlReg = TIM_StoreReg[22];
;;;759        TIMER7_LOAD_COUNT2 = TIM_StoreReg[23];
;;;760    
;;;761        TIMER_PWM0_CR = PWM0_StoreReg;
;;;762    
;;;763        TIMER_PWM1_CR = PWM1_StoreReg;
;;;764    }
;;;765    #endif  /* USE_TIM_DLPS */
;;;766    
;;;767    
;;;768    /********************************************** ********************************************************/
;;;769    /**************************************** [UART DLPS] **************************************************/
;;;770    /*******************************************************************************************************/
;;;771    /*******************************************************************************************************/
;;;772    #if USE_UART_DLPS
;;;773    #include "rtl876x_uart.h"
;;;774    
;;;775    __STATIC_INLINE void UART_DLPS_Enter(void);
;;;776    __STATIC_INLINE void UART_DLPS_Exit(void);
;;;777    
;;;778    uint32_t UART_StoreReg[11];        /*  This array should be placed in RAM ON/Buffer ON.    */
;;;779    
;;;780    /**
;;;781      * @brief  UART enter dlps callback function(Save UART register values when system enter DLPS)
;;;782      * @param  None
;;;783      * @retval None
;;;784      */
;;;785    __STATIC_INLINE void UART_DLPS_Enter(void)
;;;786    {
;;;787        PERIPH->PERI_FUNC0_EN |= (1 << 0);
;;;788        PERIPH->PERI_CLK_CTRL0 |= (SYSBLK_ACTCK_UART0DATA_EN_Msk | SYSBLK_SLPCK_UART0DATA_EN_Msk);
;;;789    
;;;790        //access DLH and DLL
;;;791        UART->LCR |= (1 << 7);
;;;792        UART_StoreReg[0] = UART->DLL;
;;;793        UART_StoreReg[1] = UART->DLH_INTCR;
;;;794        UART->LCR &= (~(1 << 7));
;;;795    
;;;796        //save other registers
;;;797        UART_StoreReg[2] = UART->DLH_INTCR;
;;;798        UART_StoreReg[4] = UART->LCR;
;;;799        UART_StoreReg[5] = UART->MCR;
;;;800        UART_StoreReg[6] = UART->SPR;
;;;801        UART_StoreReg[7] = UART->STSR;
;;;802        UART_StoreReg[8] = UART->RX_IDLE_INTTCR;
;;;803        UART_StoreReg[9] = UART->RXIDLE_INTCR;
;;;804        UART_StoreReg[10] = UART->MISCR;
;;;805    
;;;806        return;
;;;807    }
;;;808    
;;;809    /**
;;;810      * @brief  UART exit dlps callback function(Resume UART register values when system exit DLPS)
;;;811      * @param  None
;;;812      * @retval None
;;;813      */
;;;814    DATA_RAM_FUNCTION __STATIC_INLINE void UART_DLPS_Exit(void)
;;;815    {
;;;816        PERIPH->PERI_FUNC0_EN |= (1 << 0);
;;;817        PERIPH->PERI_CLK_CTRL0 |= (SYSBLK_ACTCK_UART0DATA_EN_Msk | SYSBLK_SLPCK_UART0DATA_EN_Msk);
;;;818    
;;;819        //access DLH and DLL
;;;820        UART->LCR |= (1 << 7);
;;;821        UART->DLL = UART_StoreReg[0];
;;;822        UART->DLH_INTCR =  UART_StoreReg[1];
;;;823        UART->LCR &= (~(1 << 7));
;;;824    
;;;825        //access other registers
;;;826        UART->INTID_FCR = (((UART_StoreReg[7] & BIT24) >> 21) | ((UART_StoreReg[7] & 0x7C000000) >> 18) |
;;;827                           (1));
;;;828        UART->LCR = UART_StoreReg[4];
;;;829        UART->MCR = UART_StoreReg[5];
;;;830        UART->SPR = UART_StoreReg[6];
;;;831        UART->STSR = UART_StoreReg[7];
;;;832        UART->DLH_INTCR = UART_StoreReg[2];
;;;833        UART->RX_IDLE_INTTCR = UART_StoreReg[8];
;;;834        UART->RXIDLE_INTCR = UART_StoreReg[9];
;;;835        UART->MISCR = UART_StoreReg[10];
;;;836    
;;;837        return;
;;;838    }
;;;839    #endif
;;;840    
;;;841    
;;;842    #if USE_UART1_DLPS
;;;843    
;;;844    __STATIC_INLINE void UART1_DLPS_Enter(void);
;;;845    __STATIC_INLINE void UART1_DLPS_Exit(void);
;;;846    
;;;847    uint32_t UART1_StoreReg[11];        /*  This array should be placed in RAM ON/Buffer ON.    */
;;;848    
;;;849    /**
;;;850      * @brief  UART1 enter dlps callback function(Save UART1 register values when system enter DLPS)
;;;851      * @param  None
;;;852      * @retval None
;;;853      */
;;;854    __STATIC_INLINE void UART1_DLPS_Enter(void)
;;;855    {
;;;856        //enable log uart peripheral & clock
;;;857        SYSBLKCTRL->u_210.SOC_FUNC_EN |= (1 << 12);
;;;858        SYSBLKCTRL->u_230.CLK_CTRL |= ((1 << 12) | (1 << 13));
;;;859    
;;;860        //access DLH and DLL
;;;861        UART1->LCR |= (1 << 7);
;;;862        UART1_StoreReg[0] = UART1->DLL;
;;;863        UART1_StoreReg[1] = UART1->DLH_INTCR;
;;;864        UART1->LCR &= (~(1 << 7));
;;;865    
;;;866        //save other registers
;;;867        UART1_StoreReg[2] = UART1->DLH_INTCR;
;;;868        UART1_StoreReg[4] = UART1->LCR;
;;;869        UART1_StoreReg[5] = UART1->MCR;
;;;870        UART1_StoreReg[6] = UART1->SPR;
;;;871        UART1_StoreReg[7] = UART1->STSR;
;;;872        UART1_StoreReg[8] = UART1->RX_IDLE_INTTCR;
;;;873        UART1_StoreReg[9] = UART1->RXIDLE_INTCR;
;;;874        UART1_StoreReg[10] = UART1->MISCR;
;;;875    
;;;876        return;
;;;877    }
;;;878    
;;;879    /**
;;;880      * @brief  UART1 exit dlps callback function(Resume UART1 register values when system exit DLPS)
;;;881      * @param  None
;;;882      * @retval None
;;;883      */
;;;884    DATA_RAM_FUNCTION __STATIC_INLINE void UART1_DLPS_Exit(void)
;;;885    {
;;;886        //enable log uart peripheral & clock
;;;887        SYSBLKCTRL->u_210.SOC_FUNC_EN |= (1 << 12);
;;;888        SYSBLKCTRL->u_230.CLK_CTRL |= ((1 << 12) | (1 << 13));
;;;889    
;;;890        //access DLH and DLL
;;;891        UART1->LCR |= (1 << 7);
;;;892        UART1->DLL = UART1_StoreReg[0];
;;;893        UART1->DLH_INTCR =  UART1_StoreReg[1];
;;;894        UART1->LCR &= (~(1 << 7));
;;;895    
;;;896        //access other registers
;;;897        UART1->INTID_FCR = (((UART1_StoreReg[7] & BIT24) >> 21) | ((UART1_StoreReg[7] & 0x7C000000)
;;;898                                                                   >> 18) | (1));
;;;899        UART1->LCR = UART1_StoreReg[4];
;;;900        UART1->MCR = UART1_StoreReg[5];
;;;901        UART1->SPR = UART1_StoreReg[6];
;;;902        UART1->STSR = UART1_StoreReg[7];
;;;903        UART1->DLH_INTCR = UART1_StoreReg[2];
;;;904        UART1->RX_IDLE_INTTCR = UART1_StoreReg[8];
;;;905        UART1->RXIDLE_INTCR = UART1_StoreReg[9];
;;;906        UART1->MISCR = UART1_StoreReg[10];
;;;907    
;;;908        return;
;;;909    }
;;;910    #endif
;;;911    
;;;912    #if USE_UART2_DLPS
;;;913    
;;;914    __STATIC_INLINE void UART2_DLPS_Enter(void);
;;;915    __STATIC_INLINE void UART2_DLPS_Exit(void);
;;;916    
;;;917    uint32_t UART2_StoreReg[11];        /*  This array should be placed in RAM ON/Buffer ON.    */
;;;918    
;;;919    /**
;;;920      * @brief  UART2 enter dlps callback function(Save UART2 register values when system enter DLPS)
;;;921      * @param  None
;;;922      * @retval None
;;;923      */
;;;924    __STATIC_INLINE void UART2_DLPS_Enter(void)
;;;925    {
;;;926        //enable log uart peripheral & clock
;;;927        SYSBLKCTRL->u_210.SOC_FUNC_EN |= (1 << 12);
;;;928        SYSBLKCTRL->u_230.CLK_CTRL |= ((1 << 12) | (1 << 13));
;;;929    
;;;930        //access DLH and DLL
;;;931        UART2->LCR |= (1 << 7);
;;;932        UART2_StoreReg[0] = UART2->DLL;
;;;933        UART2_StoreReg[1] = UART2->DLH_INTCR;
;;;934        UART2->LCR &= (~(1 << 7));
;;;935    
;;;936        //save other registers
;;;937        UART2_StoreReg[2] = UART2->DLH_INTCR;
;;;938        UART2_StoreReg[4] = UART2->LCR;
;;;939        UART2_StoreReg[5] = UART2->MCR;
;;;940        UART2_StoreReg[6] = UART2->SPR;
;;;941        UART2_StoreReg[7] = UART2->STSR;
;;;942        UART2_StoreReg[8] = UART2->RX_IDLE_INTTCR;
;;;943        UART2_StoreReg[9] = UART2->RXIDLE_INTCR;
;;;944        UART2_StoreReg[10] = UART2->MISCR;
;;;945    
;;;946        return;
;;;947    }
;;;948    
;;;949    /**
;;;950      * @brief  UART2 exit dlps callback function(Resume UART2 register values when system exit DLPS)
;;;951      * @param  None
;;;952      * @retval None
;;;953      */
;;;954    DATA_RAM_FUNCTION __STATIC_INLINE void UART2_DLPS_Exit(void)
;;;955    {
;;;956        //enable log uart peripheral & clock
;;;957        SYSBLKCTRL->u_210.SOC_FUNC_EN |= (1 << 12);
;;;958        SYSBLKCTRL->u_230.CLK_CTRL |= ((1 << 12) | (1 << 13));
;;;959    
;;;960        //access DLH and DLL
;;;961        UART2->LCR |= (1 << 7);
;;;962        UART2->DLL = UART2_StoreReg[0];
;;;963        UART2->DLH_INTCR =  UART2_StoreReg[1];
;;;964        UART2->LCR &= (~(1 << 7));
;;;965    
;;;966        //access other registers
;;;967        UART2->INTID_FCR = (((UART2_StoreReg[7] & BIT24) >> 21) | ((UART2_StoreReg[7] & 0x7C000000)
;;;968                                                                   >> 18) | (1));
;;;969        UART2->LCR = UART2_StoreReg[4];
;;;970        UART2->MCR = UART2_StoreReg[5];
;;;971        UART2->SPR = UART2_StoreReg[6];
;;;972        UART2->STSR = UART2_StoreReg[7];
;;;973        UART2->DLH_INTCR = UART2_StoreReg[2];
;;;974        UART2->RX_IDLE_INTTCR = UART2_StoreReg[8];
;;;975        UART2->RXIDLE_INTCR = UART2_StoreReg[9];
;;;976        UART2->MISCR = UART2_StoreReg[10];
;;;977    
;;;978        return;
;;;979    }
;;;980    #endif
;;;981    
;;;982    
;;;983    /********************************************** ********************************************************/
;;;984    /**************************************** [ADC DLPS] **************************************************/
;;;985    /*******************************************************************************************************/
;;;986    /*******************************************************************************************************/
;;;987    
;;;988    #if USE_ADC_DLPS
;;;989    __STATIC_INLINE void ADC_DLPS_Enter(void);
;;;990    __STATIC_INLINE void ADC_DLPS_Exit(void);
;;;991    
;;;992    uint32_t ADC_StoreReg[14];        /*  This array should be placed in RAM ON/Buffer ON.    */
;;;993    
;;;994    /**
;;;995      * @brief  ADC enter dlps callback function(Save ADC register values when system enter DLPS)
;;;996      * @param  None
;;;997      * @retval None
;;;998      */
;;;999    __STATIC_INLINE void ADC_DLPS_Enter(void)
;;;1000   {
;;;1001       /*Open 10M clock source*/
;;;1002       SYSBLKCTRL->u_20C.RSVD_20C |= BIT26;
;;;1003       SYSBLKCTRL->u_20C.RSVD_20C |= BIT28;
;;;1004   
;;;1005       PERIPH->PERI_FUNC1_EN |= (1 << 0);
;;;1006       PERIPH->PERI_CLK_CTRL1 |= (SYSBLK_ACTCK_ADC_EN_Msk | SYSBLK_SLPCK_ADC_EN_Msk);
;;;1007   
;;;1008       ADC_StoreReg[0] =  ADC->CR;          //0x04
;;;1009       ADC_StoreReg[1] =  ADC->SCHCR;       //0x08
;;;1010       ADC_StoreReg[2] =  ADC->INTCR;       //0x0C
;;;1011       ADC_StoreReg[3] =  ADC->SCHTAB0;     //0x10
;;;1012       ADC_StoreReg[4] =  ADC->SCHTAB1;     //0x14
;;;1013       ADC_StoreReg[5] =  ADC->SCHTAB2;     //0x18
;;;1014       ADC_StoreReg[6] =  ADC->SCHTAB3;     //0x1C
;;;1015       ADC_StoreReg[7] =  ADC->SCHTAB4;     //0x20
;;;1016       ADC_StoreReg[8] =  ADC->SCHTAB5;     //0x24
;;;1017       ADC_StoreReg[9] =  ADC->SCHTAB6;     //0x28
;;;1018       ADC_StoreReg[10] =  ADC->SCHTAB6;    //0x2C
;;;1019       ADC_StoreReg[11] =  ADC->PWRDLY;
;;;1020       ADC_StoreReg[12] =  ADC->DATCLK;
;;;1021       ADC_StoreReg[13] =  ADC->ANACTL;
;;;1022   
;;;1023       uint8_t reg_value = 0;
;;;1024       reg_value = btaon_fast_read_safe(0x110);
;;;1025       btaon_fast_write(0x110, reg_value & (~0x04));
;;;1026   
;;;1027       return;
;;;1028   }
;;;1029   
;;;1030   /**
;;;1031     * @brief  ADC exit dlps callback function(Resume ADC register values when system exit DLPS)
;;;1032     * @param  None
;;;1033     * @retval None
;;;1034     */
;;;1035   DATA_RAM_FUNCTION __STATIC_INLINE void ADC_DLPS_Exit(void)
;;;1036   {
;;;1037       /*Open 10M clock source*/
;;;1038       SYSBLKCTRL->u_20C.RSVD_20C |= BIT26;
;;;1039       SYSBLKCTRL->u_20C.RSVD_20C |= BIT28;
;;;1040   
;;;1041       PERIPH->PERI_FUNC1_EN |= (1 << 0);
;;;1042       PERIPH->PERI_CLK_CTRL1 |= (SYSBLK_ACTCK_ADC_EN_Msk | SYSBLK_SLPCK_ADC_EN_Msk);
;;;1043   
;;;1044   #if 0
;;;1045       //Todo
;;;1046       ADC->PWRDLY = ADC_StoreReg[10];
;;;1047       ADC->CR = (ADC_StoreReg[0] & (~((uint32_t)0x03)));
;;;1048       ADC->SCHTAB0 = ADC_StoreReg[3];
;;;1049       ADC->SCHTAB1 = ADC_StoreReg[4];
;;;1050       ADC->SCHTAB2 = ADC_StoreReg[5];
;;;1051       ADC->SCHTAB3 = ADC_StoreReg[6];
;;;1052       ADC->SCHTAB4 = ADC_StoreReg[7];
;;;1053       ADC->SCHTAB5 = ADC_StoreReg[8];
;;;1054       ADC->SCHTAB6 = ADC_StoreReg[9];
;;;1055       ADC->SCHCR = ADC_StoreReg[1];
;;;1056       ADC->INTCR = (ADC_StoreReg[2] & 0x1F);
;;;1057   #else
;;;1058       /*Disable all interrupt.*/
;;;1059       ADC->INTCR &= (~0x1f);
;;;1060   
;;;1061       /* Set power mode first */
;;;1062       ADC->PWRDLY = ADC_StoreReg[11];
;;;1063   
;;;1064       /* Disable schedule table */
;;;1065       ADC->SCHCR &= (~0xffff);
;;;1066   
;;;1067       ADC->SCHTAB0 = ADC_StoreReg[3];
;;;1068       ADC->SCHTAB1 = ADC_StoreReg[4];
;;;1069       ADC->SCHTAB2 = ADC_StoreReg[5];
;;;1070       ADC->SCHTAB3 = ADC_StoreReg[6];
;;;1071       ADC->SCHTAB4 = ADC_StoreReg[7];
;;;1072       ADC->SCHTAB5 = ADC_StoreReg[8];
;;;1073       ADC->SCHTAB6 = ADC_StoreReg[9];
;;;1074       ADC->SCHTAB7 = ADC_StoreReg[10];
;;;1075       ADC->SCHCR   = ADC_StoreReg[1];
;;;1076       ADC->CR = (ADC_StoreReg[0] & (~((uint32_t)0x03)));
;;;1077       ADC->DATCLK = ADC_StoreReg[12];
;;;1078       ADC->ANACTL = ADC_StoreReg[13];
;;;1079   
;;;1080       /*Clear ADC FIFO */
;;;1081       ADC->CR |= BIT26;
;;;1082       /* Clear all interrupt */
;;;1083       ADC->INTCR |= (0x1f << 8);
;;;1084   
;;;1085       /* Restore specify interrupt */
;;;1086       ADC->INTCR = ADC_StoreReg[2];
;;;1087   
;;;1088   #endif
;;;1089   
;;;1090       uint8_t reg_value = 0;
;;;1091       reg_value = btaon_fast_read_safe(0x110);
;;;1092       btaon_fast_write(0x110, reg_value | 0x04);
;;;1093   
;;;1094       return;
;;;1095   }
;;;1096   
;;;1097   #endif
;;;1098   
;;;1099   /********************************************** ********************************************************/
;;;1100   /**************************************** [IR DLPS] **************************************************/
;;;1101   /*******************************************************************************************************/
;;;1102   /*******************************************************************************************************/
;;;1103   
;;;1104   #if USE_IR_DLPS
;;;1105   __STATIC_INLINE void IR_DLPS_Enter(void);
;;;1106   __STATIC_INLINE void IR_DLPS_Exit(void);
;;;1107   
;;;1108   uint32_t IR_StoreReg[6];        /*  This array should be placed in RAM ON/Buffer ON.    */
;;;1109   
;;;1110   /**
;;;1111     * @brief  IR enter dlps callback function(Save IR register values when system enter DLPS)
;;;1112     * @param  None
;;;1113     * @retval None
;;;1114     */
;;;1115   __STATIC_INLINE void IR_DLPS_Enter(void)
;;;1116   {
;;;1117       PERIPH->PERI_FUNC0_EN |= (1 << 10);
;;;1118       PERIPH->PERI_CLK_CTRL0 |= (SYSBLK_ACTCK_IR_EN_Msk | SYSBLK_SLPCK_IR_EN_Msk);
;;;1119   
;;;1120       IR_StoreReg[0] = IR->CLK_DIV;
;;;1121       IR_StoreReg[1] = IR->TX_CONFIG;
;;;1122       IR_StoreReg[2] = IR->RX_CONFIG;
;;;1123       IR_StoreReg[3] = IR->RX_CNT_INT_SEL;
;;;1124   
;;;1125   
;;;1126       return;
;;;1127   }
;;;1128   
;;;1129   /**
;;;1130     * @brief  IR exit dlps callback function(Resume IR register values when system exit DLPS)
;;;1131     * @param  None
;;;1132     * @retval None
;;;1133     */
;;;1134   DATA_RAM_FUNCTION __STATIC_INLINE void IR_DLPS_Exit(void)
;;;1135   {
;;;1136       PERIPH->PERI_FUNC0_EN |= (1 << 10);
;;;1137       PERIPH->PERI_CLK_CTRL0 |= (SYSBLK_ACTCK_IR_EN_Msk | SYSBLK_SLPCK_IR_EN_Msk);
;;;1138   
;;;1139       IR->CLK_DIV = IR_StoreReg[0];
;;;1140       if (IR_StoreReg[1] & BIT31)
;;;1141       {
;;;1142           /* RX MODE */
;;;1143           IR->TX_CONFIG  = IR_StoreReg[1];
;;;1144           IR->RX_CONFIG  = IR_StoreReg[2];
;;;1145           IR->RX_CNT_INT_SEL  = IR_StoreReg[3];
;;;1146       }
;;;1147       else
;;;1148       {
;;;1149           /* TX MODE */
;;;1150           IR->TX_CONFIG  = IR_StoreReg[1];
;;;1151           /* If IR TX mode is idle, must write one data firstly */
;;;1152           IR->TX_FIFO = 0;
;;;1153       }
;;;1154   
;;;1155       return;
;;;1156   }
;;;1157   
;;;1158   #endif
;;;1159   
;;;1160   /********************************************** ********************************************************/
;;;1161   /**************************************** [GDMA DLPS] **************************************************/
;;;1162   /*******************************************************************************************************/
;;;1163   /*******************************************************************************************************/
;;;1164   
;;;1165   #if USE_GDMA_DLPS
;;;1166   
;;;1167   __STATIC_INLINE void GDMA_DLPS_Enter(void);
;;;1168   __STATIC_INLINE void GDMA_DLPS_Exit(void);
;;;1169   uint32_t GDMA_StoreReg[7];         /*  This array should be placed in RAM ON/Buffer ON.    */
;;;1170   
;;;1171   #endif
;;;1172   
;;;1173   #if USE_GDMACHANNEL0_DLPS
;;;1174   uint32_t GDMAChannel0_StoreReg[6];        /*  This array should be placed in RAM ON/Buffer ON.    */
;;;1175   #endif
;;;1176   
;;;1177   #if USE_GDMACHANNEL1_DLPS
;;;1178   uint32_t GDMAChannel1_StoreReg[6];        /*  This array should be placed in RAM ON/Buffer ON.    */
;;;1179   #endif
;;;1180   
;;;1181   #if USE_GDMACHANNEL2_DLPS
;;;1182   uint32_t GDMAChannel2_StoreReg[6];        /*  This array should be placed in RAM ON/Buffer ON.    */
;;;1183   #endif
;;;1184   
;;;1185   #if USE_GDMACHANNEL3_DLPS
;;;1186   uint32_t GDMAChannel3_StoreReg[6];        /*  This array should be placed in RAM ON/Buffer ON.    */
;;;1187   #endif
;;;1188   
;;;1189   #if USE_GDMACHANNEL4_DLPS
;;;1190   uint32_t GDMAChannel4_StoreReg[6];        /*  This array should be placed in RAM ON/Buffer ON.    */
;;;1191   #endif
;;;1192   
;;;1193   #if USE_GDMACHANNEL5_DLPS
;;;1194   uint32_t GDMAChannel5_StoreReg[6];        /*  This array should be placed in RAM ON/Buffer ON.    */
;;;1195   #endif
;;;1196   
;;;1197   #if USE_GDMA_DLPS
;;;1198   /**
;;;1199     * @brief  GDMA enter dlps callback function(Save GDMA register values when system enter DLPS)
;;;1200     * @param  None
;;;1201     * @retval None
;;;1202     */
;;;1203   __STATIC_INLINE void GDMA_DLPS_Enter(void)
;;;1204   {
;;;1205       SYSBLKCTRL->u_210.SOC_FUNC_EN |= SYSBLK_GDMA0_EN_Msk;
;;;1206       PERIPH->PERI_CLK_CTRL |= (SYSBLK_ACTCK_GDMA0_EN_Msk | SYSBLK_SLPCK_GDMA0_EN_Msk);
;;;1207   
;;;1208       GDMA_StoreReg[0] = GDMA_BASE->DmaCfgReg;
;;;1209       GDMA_StoreReg[1] = GDMA_BASE->ChEnReg;
;;;1210       GDMA_StoreReg[2] = GDMA_BASE->MASK_TFR;
;;;1211       GDMA_StoreReg[3] = GDMA_BASE->MASK_BLOCK;
;;;1212       GDMA_StoreReg[4] = GDMA_BASE->MASK_SRC_TRAN;
;;;1213       GDMA_StoreReg[5] = GDMA_BASE->MASK_DST_TRAN;
;;;1214       GDMA_StoreReg[6] = GDMA_BASE->MASK_ERR;
;;;1215   
;;;1216   #if USE_GDMACHANNEL0_DLPS
;;;1217       GDMAChannel0_StoreReg[0] = GDMA_Channel0->SAR;
;;;1218       GDMAChannel0_StoreReg[1] = GDMA_Channel0->DAR;
;;;1219       GDMAChannel0_StoreReg[2] = GDMA_Channel0->CTL_LOW;
;;;1220       GDMAChannel0_StoreReg[3] = GDMA_Channel0->CTL_HIGH;
;;;1221       GDMAChannel0_StoreReg[4] = GDMA_Channel0->CFG_LOW;
;;;1222       GDMAChannel0_StoreReg[5] = GDMA_Channel0->CFG_HIGH;
;;;1223   #endif
;;;1224   #if USE_GDMACHANNEL1_DLPS
;;;1225       GDMAChannel1_StoreReg[0] = GDMA_Channel1->SAR;
;;;1226       GDMAChannel1_StoreReg[1] = GDMA_Channel1->DAR;
;;;1227       GDMAChannel1_StoreReg[2] = GDMA_Channel1->CTL_LOW;
;;;1228       GDMAChannel1_StoreReg[3] = GDMA_Channel1->CTL_HIGH;
;;;1229       GDMAChannel1_StoreReg[4] = GDMA_Channel1->CFG_LOW;
;;;1230       GDMAChannel1_StoreReg[5] = GDMA_Channel1->CFG_HIGH;
;;;1231   #endif
;;;1232   #if USE_GDMACHANNEL2_DLPS
;;;1233       GDMAChannel2_StoreReg[0] = GDMA_Channel2->SAR;
;;;1234       GDMAChannel2_StoreReg[1] = GDMA_Channel2->DAR;
;;;1235       GDMAChannel2_StoreReg[2] = GDMA_Channel2->CTL_LOW;
;;;1236       GDMAChannel2_StoreReg[3] = GDMA_Channel2->CTL_HIGH;
;;;1237       GDMAChannel2_StoreReg[4] = GDMA_Channel2->CFG_LOW;
;;;1238       GDMAChannel2_StoreReg[5] = GDMA_Channel2->CFG_HIGH;
;;;1239   #endif
;;;1240   #if USE_GDMACHANNEL3_DLPS
;;;1241       GDMAChannel3_StoreReg[0] = GDMA_Channel3->SAR;
;;;1242       GDMAChannel3_StoreReg[1] = GDMA_Channel3->DAR;
;;;1243       GDMAChannel3_StoreReg[2] = GDMA_Channel3->CTL_LOW;
;;;1244       GDMAChannel3_StoreReg[3] = GDMA_Channel3->CTL_HIGH;
;;;1245       GDMAChannel3_StoreReg[4] = GDMA_Channel3->CFG_LOW;
;;;1246       GDMAChannel3_StoreReg[5] = GDMA_Channel3->CFG_HIGH;
;;;1247   #endif
;;;1248   #if USE_GDMACHANNEL4_DLPS
;;;1249       GDMAChannel4_StoreReg[0] = GDMA_Channel4->SAR;
;;;1250       GDMAChannel4_StoreReg[1] = GDMA_Channel4->DAR;
;;;1251       GDMAChannel4_StoreReg[2] = GDMA_Channel4->CTL_LOW;
;;;1252       GDMAChannel4_StoreReg[3] = GDMA_Channel4->CTL_HIGH;
;;;1253       GDMAChannel4_StoreReg[4] = GDMA_Channel4->CFG_LOW;
;;;1254       GDMAChannel4_StoreReg[5] = GDMA_Channel4->CFG_HIGH;
;;;1255   #endif
;;;1256   #if USE_GDMACHANNEL5_DLPS
;;;1257       GDMAChannel5_StoreReg[0] = GDMA_Channel5->SAR;
;;;1258       GDMAChannel5_StoreReg[1] = GDMA_Channel5->DAR;
;;;1259       GDMAChannel5_StoreReg[2] = GDMA_Channel5->CTL_LOW;
;;;1260       GDMAChannel5_StoreReg[3] = GDMA_Channel5->CTL_HIGH;
;;;1261       GDMAChannel5_StoreReg[4] = GDMA_Channel5->CFG_LOW;
;;;1262       GDMAChannel5_StoreReg[5] = GDMA_Channel5->CFG_HIGH;
;;;1263   #endif
;;;1264   }
;;;1265   
;;;1266   /**
;;;1267     * @brief  GDMA exit dlps callback function(Resume GDMA register values when system exit DLPS)
;;;1268     * @param  None
;;;1269     * @retval None
;;;1270     */
;;;1271   DATA_RAM_FUNCTION __STATIC_INLINE void GDMA_DLPS_Exit(void)
;;;1272   {
;;;1273       SYSBLKCTRL->u_210.SOC_FUNC_EN |= SYSBLK_GDMA0_EN_Msk;
;;;1274       PERIPH->PERI_CLK_CTRL |= (SYSBLK_ACTCK_GDMA0_EN_Msk | SYSBLK_SLPCK_GDMA0_EN_Msk);
;;;1275   
;;;1276       /* Enable GDMA in DmaCfgReg*/
;;;1277       GDMA_BASE->DmaCfgReg = GDMA_StoreReg[0];
;;;1278   
;;;1279       /*----------clear pending all interrupts of GDMA channel-----------*/
;;;1280       GDMA_BASE->CLEAR_TFR = 0xff;
;;;1281       GDMA_BASE->CLEAR_BLOCK = 0xff;
;;;1282       GDMA_BASE->CLEAR_DST_TRAN = 0xff;
;;;1283       GDMA_BASE->CLEAR_SRC_TRAN = 0xff;
;;;1284       GDMA_BASE->CLEAR_ERR = 0xff;
;;;1285   
;;;1286       /*--------------------mask interrupt-------- -----------------*/
;;;1287       GDMA_BASE->MASK_TFR = (GDMA_StoreReg[2] | ((GDMA_StoreReg[2] & 0xff) << 8));
;;;1288       GDMA_BASE->MASK_BLOCK = (GDMA_StoreReg[3] | ((GDMA_StoreReg[3] & 0xff) << 8));
;;;1289       GDMA_BASE->MASK_SRC_TRAN = (GDMA_StoreReg[4] | ((GDMA_StoreReg[4] & 0xff) << 8));
;;;1290       GDMA_BASE->MASK_DST_TRAN = (GDMA_StoreReg[5] | ((GDMA_StoreReg[5] & 0xff) << 8));
;;;1291       GDMA_BASE->MASK_ERR = (GDMA_StoreReg[6] | ((GDMA_StoreReg[6] & 0xff) << 8));
;;;1292   
;;;1293   #if USE_GDMACHANNEL0_DLPS
;;;1294       GDMA_Channel0->SAR      = GDMAChannel0_StoreReg[0];
;;;1295       GDMA_Channel0->DAR      = GDMAChannel0_StoreReg[1];
;;;1296       GDMA_Channel0->CTL_LOW  = GDMAChannel0_StoreReg[2];
;;;1297       GDMA_Channel0->CTL_HIGH = GDMAChannel0_StoreReg[3];
;;;1298       GDMA_Channel0->CFG_LOW  = GDMAChannel0_StoreReg[4];
;;;1299       GDMA_Channel0->CFG_HIGH = GDMAChannel0_StoreReg[5];
;;;1300   #endif
;;;1301   #if USE_GDMACHANNEL1_DLPS
;;;1302       GDMA_Channel1->SAR      = GDMAChannel1_StoreReg[0];
;;;1303       GDMA_Channel1->DAR      = GDMAChannel1_StoreReg[1];
;;;1304       GDMA_Channel1->CTL_LOW  = GDMAChannel1_StoreReg[2];
;;;1305       GDMA_Channel1->CTL_HIGH = GDMAChannel1_StoreReg[3];
;;;1306       GDMA_Channel1->CFG_LOW  = GDMAChannel1_StoreReg[4];
;;;1307       GDMA_Channel1->CFG_HIGH = GDMAChannel1_StoreReg[5];
;;;1308   #endif
;;;1309   #if USE_GDMACHANNEL2_DLPS
;;;1310       GDMA_Channel2->SAR      = GDMAChannel2_StoreReg[0];
;;;1311       GDMA_Channel2->DAR      = GDMAChannel2_StoreReg[1];
;;;1312       GDMA_Channel2->CTL_LOW  = GDMAChannel2_StoreReg[2];
;;;1313       GDMA_Channel2->CTL_HIGH = GDMAChannel2_StoreReg[3];
;;;1314       GDMA_Channel2->CFG_LOW  = GDMAChannel2_StoreReg[4];
;;;1315       GDMA_Channel2->CFG_HIGH = GDMAChannel2_StoreReg[5];
;;;1316   #endif
;;;1317   #if USE_GDMACHANNEL3_DLPS
;;;1318       GDMA_Channel3->SAR      = GDMAChannel3_StoreReg[0];
;;;1319       GDMA_Channel3->DAR      = GDMAChannel3_StoreReg[1];
;;;1320       GDMA_Channel3->CTL_LOW  = GDMAChannel3_StoreReg[2];
;;;1321       GDMA_Channel3->CTL_HIGH = GDMAChannel3_StoreReg[3];
;;;1322       GDMA_Channel3->CFG_LOW  = GDMAChannel3_StoreReg[4];
;;;1323       GDMA_Channel3->CFG_HIGH = GDMAChannel3_StoreReg[5];
;;;1324   #endif
;;;1325   #if USE_GDMACHANNEL4_DLPS
;;;1326       GDMA_Channel4->SAR      = GDMAChannel4_StoreReg[0];
;;;1327       GDMA_Channel4->DAR      = GDMAChannel4_StoreReg[1];
;;;1328       GDMA_Channel4->CTL_LOW  = GDMAChannel4_StoreReg[2];
;;;1329       GDMA_Channel4->CTL_HIGH = GDMAChannel4_StoreReg[3];
;;;1330       GDMA_Channel4->CFG_LOW  = GDMAChannel4_StoreReg[4];
;;;1331       GDMA_Channel4->CFG_HIGH = GDMAChannel4_StoreReg[5];
;;;1332   #endif
;;;1333   #if USE_GDMACHANNEL5_DLPS
;;;1334       GDMA_Channel5->SAR      = GDMAChannel5_StoreReg[0];
;;;1335       GDMA_Channel5->DAR      = GDMAChannel5_StoreReg[1];
;;;1336       GDMA_Channel5->CTL_LOW  = GDMAChannel5_StoreReg[2];
;;;1337       GDMA_Channel5->CTL_HIGH = GDMAChannel5_StoreReg[3];
;;;1338       GDMA_Channel5->CFG_LOW  = GDMAChannel5_StoreReg[4];
;;;1339       GDMA_Channel5->CFG_HIGH = GDMAChannel5_StoreReg[5];
;;;1340   #endif
;;;1341   
;;;1342       /*----------clear pending all interrupts of GDMA channel before enable channel-----------*/
;;;1343       GDMA_BASE->CLEAR_TFR = 0x3f;
;;;1344       GDMA_BASE->CLEAR_BLOCK = 0x3f;
;;;1345       GDMA_BASE->CLEAR_DST_TRAN = 0x3f;
;;;1346       GDMA_BASE->CLEAR_SRC_TRAN = 0x3f;
;;;1347       GDMA_BASE->CLEAR_ERR = 0x3f;
;;;1348   
;;;1349       /* Enable the selected DMA Channelx */
;;;1350   //    GDMA_BASE->ChEnReg = GDMA_StoreReg[1];
;;;1351   }
;;;1352   #endif
;;;1353   
;;;1354   /********************************************** ********************************************************/
;;;1355   /**************************************** [LCD DLPS] ************************************************/
;;;1356   /*******************************************************************************************************/
;;;1357   /*******************************************************************************************************/
;;;1358   #if USE_LCD_DLPS
;;;1359   
;;;1360   uint32_t LCD_StoreReg[5];
;;;1361   
;;;1362   /**
;;;1363     * @brief  LCD enter dlps callback function(Save LCD register values when system enter DLPS)
;;;1364     * @param  None
;;;1365     * @retval None
;;;1366     */
;;;1367   __STATIC_INLINE void LCD_DLPS_Enter(void)
;;;1368   {
;;;1369       /* Enable LCD 8080 interface controller function */
;;;1370       PERIPH->PERI_FUNC0_EN |= BIT(25);
;;;1371       /* Enable LCD 8080 interface controller clock */
;;;1372       PERIPH->PERI_CLK_CTRL1 |= BIT(28) | BIT(29);
;;;1373   
;;;1374       LCD_StoreReg[0] = *((volatile uint32_t *)0x400002A8UL) & (0x03 << 28);
;;;1375       LCD_StoreReg[1] = LCD->IMR;
;;;1376       LCD_StoreReg[2] = LCD->CTRL0;
;;;1377       LCD_StoreReg[3] = LCD->CTRL1;
;;;1378       LCD_StoreReg[4] = LCD->CFG;
;;;1379   
;;;1380   }
;;;1381   
;;;1382   /**
;;;1383     * @brief  LCD exit dlps callback function(Resume LCD register values when system exit DLPS)
;;;1384     * @param  None
;;;1385     * @retval None
;;;1386     */
;;;1387   DATA_RAM_FUNCTION __STATIC_INLINE void LCD_DLPS_Exit(void)
;;;1388   {
;;;1389       /* Enable LCD 8080 interface controller function */
;;;1390       PERIPH->PERI_FUNC0_EN |= BIT(25);
;;;1391       /* Enable LCD 8080 interface controller clock */
;;;1392       PERIPH->PERI_CLK_CTRL1 |= BIT(28) | BIT(29);
;;;1393   
;;;1394       /* Restore Dedicated SDIO pin option */
;;;1395       *((volatile uint32_t *)0x400002A8UL) &= ~(0x03 << 28);
;;;1396       *((volatile uint32_t *)0x400002A8UL) |= LCD_StoreReg[0];
;;;1397   
;;;1398       /* Initialize LCD */
;;;1399   
;;;1400       LCD->IMR    = LCD_StoreReg[1];
;;;1401       LCD->CTRL1  = LCD_StoreReg[3];
;;;1402       LCD->CFG    = LCD_StoreReg[4];
;;;1403       LCD->CTRL0  = LCD_StoreReg[2];
;;;1404   }
;;;1405   #endif
;;;1406   
;;;1407   /********************************************** ********************************************************/
;;;1408   /**************************************** [I2S0 DLPS] **************************************************/
;;;1409   /*******************************************************************************************************/
;;;1410   /*******************************************************************************************************/
;;;1411   #if USE_I2S0_DLPS
;;;1412   
;;;1413   uint32_t I2S0_StoreReg[4];
;;;1414   
;;;1415   /**
;;;1416     * @brief  I2S0 enter dlps callback function(Save I2S0 register values when system enter DLPS)
;;;1417     * @param  None
;;;1418     * @retval None
;;;1419     */
;;;1420   __STATIC_INLINE void I2S0_DLPS_Enter(void)
;;;1421   {
;;;1422       PERIPH->PERI_BD_FUNC0_EN |= BIT(1) | BIT(5) | BIT(8);
;;;1423   
;;;1424       I2S0_StoreReg[0] = I2S0->BCLK_DIV;
;;;1425       I2S0_StoreReg[1] = I2S0->CTRL0;
;;;1426       I2S0_StoreReg[2] = I2S0->CTRL1;
;;;1427       I2S0_StoreReg[3] = I2S0->DMA_TRDLR;
;;;1428   }
;;;1429   
;;;1430   /**
;;;1431     * @brief  I2S0 exit dlps callback function(Resume I2S0 register values when system exit DLPS)
;;;1432     * @param  None
;;;1433     * @retval None
;;;1434     */
;;;1435   DATA_RAM_FUNCTION __STATIC_INLINE void I2S0_DLPS_Exit(void)
;;;1436   {
;;;1437       PERIPH->PERI_BD_FUNC0_EN |= BIT(1) | BIT(5) | BIT(8);
;;;1438   
;;;1439       /* Reset I2S0 module */
;;;1440       I2S0->CTRL0 |= 1 << 0;
;;;1441       I2S0->CTRL0 &= ~(1 << 0);
;;;1442   
;;;1443       /* Initialize I2S0 */
;;;1444       I2S0->BCLK_DIV  = I2S0_StoreReg[0];
;;;1445       I2S0->CTRL1     = I2S0_StoreReg[2];
;;;1446       I2S0->DMA_TRDLR = I2S0_StoreReg[3];
;;;1447       I2S0->CTRL0     = I2S0_StoreReg[1];
;;;1448   }
;;;1449   #endif
;;;1450   
;;;1451   /********************************************** ********************************************************/
;;;1452   /**************************************** [I2S1 DLPS] **************************************************/
;;;1453   /*******************************************************************************************************/
;;;1454   /*******************************************************************************************************/
;;;1455   #if USE_I2S1_DLPS
;;;1456   
;;;1457   uint32_t I2S1_StoreReg[4];
;;;1458   
;;;1459   /**
;;;1460     * @brief  I2S1 enter dlps callback function(Save I2S1 register values when system enter DLPS)
;;;1461     * @param  None
;;;1462     * @retval None
;;;1463     */
;;;1464   __STATIC_INLINE void I2S1_DLPS_Enter(void)
;;;1465   {
;;;1466       PERIPH->PERI_BD_FUNC0_EN |= BIT(2) | BIT(6) | BIT(8);
;;;1467   
;;;1468       I2S1_StoreReg[0] = I2S1->BCLK_DIV;
;;;1469       I2S1_StoreReg[1] = I2S1->CTRL0;
;;;1470       I2S1_StoreReg[2] = I2S1->CTRL1;
;;;1471       I2S1_StoreReg[3] = I2S1->DMA_TRDLR;
;;;1472   }
;;;1473   
;;;1474   /**
;;;1475     * @brief  I2S1 exit dlps callback function(Resume I2S1 register values when system exit DLPS)
;;;1476     * @param  None
;;;1477     * @retval None
;;;1478     */
;;;1479   DATA_RAM_FUNCTION __STATIC_INLINE void I2S1_DLPS_Exit(void)
;;;1480   {
;;;1481       PERIPH->PERI_BD_FUNC0_EN |= BIT(2) | BIT(6) | BIT(8);
;;;1482   
;;;1483       /* Reset I2S1 module */
;;;1484       I2S1->CTRL0 |= 1 << 0;
;;;1485       I2S1->CTRL0 &= ~(1 << 0);
;;;1486   
;;;1487       /* Initialize I2S1 */
;;;1488       I2S1->BCLK_DIV  = I2S1_StoreReg[0];
;;;1489       I2S1->CTRL1     = I2S1_StoreReg[2];
;;;1490       I2S1->DMA_TRDLR = I2S1_StoreReg[3];
;;;1491       I2S1->CTRL0     = I2S1_StoreReg[1];
;;;1492   }
;;;1493   #endif
;;;1494   
;;;1495   /********************************************** ********************************************************/
;;;1496   /**************************************** [CODEC DLPS] ************************************************/
;;;1497   /*******************************************************************************************************/
;;;1498   /*******************************************************************************************************/
;;;1499   #if USE_CODEC_DLPS
;;;1500   
;;;1501   uint32_t CODEC_StoreReg[7];
;;;1502   
;;;1503   /**
;;;1504     * @brief  CODEC enter dlps callback function(Save CODEC register values when system enter DLPS)
;;;1505     * @param  None
;;;1506     * @retval None
;;;1507     */
;;;1508   __STATIC_INLINE void CODEC_DLPS_Enter(void)
;;;1509   {
;;;1510       /* Enable codec function and clock */
;;;1511       PERIPH->PERI_BD_FUNC0_EN |= (1 << 0) | (1 << 4);
;;;1512   
;;;1513       CODEC_StoreReg[0] = CODEC->CR0;
;;;1514       CODEC_StoreReg[1] = CODEC->CR1;
;;;1515       CODEC_StoreReg[2] = CODEC->CR2;
;;;1516       CODEC_StoreReg[3] = CODEC->CLK_CTRL;
;;;1517       CODEC_StoreReg[4] = CODEC->I2S_CTRL;
;;;1518       CODEC_StoreReg[5] = CODEC->ADC_CTRL;
;;;1519       CODEC_StoreReg[6] = CODEC->DAC_CTRL;
;;;1520   }
;;;1521   
;;;1522   /**
;;;1523     * @brief  CODEC exit dlps callback function(Resume CODEC register values when system exit DLPS)
;;;1524     * @param  None
;;;1525     * @retval None
;;;1526     */
;;;1527   DATA_RAM_FUNCTION __STATIC_INLINE void CODEC_DLPS_Exit(void)
;;;1528   {
;;;1529       /* Enable codec function and clock */
;;;1530       PERIPH->PERI_BD_FUNC0_EN |= (1 << 0) | (1 << 4);
;;;1531   
;;;1532       /* Initialize CODEC */
;;;1533       if ((CODEC_StoreReg[3] & 0x900) == 0x900)
;;;1534       {
;;;1535           /* Configure AMIC parameters */
;;;1536           CODEC->CR0 = CODEC_StoreReg[0];
;;;1537           CODEC->CR1 = CODEC_StoreReg[1];
;;;1538           CODEC->CR2 = CODEC_StoreReg[2];
;;;1539       }
;;;1540   
;;;1541       /*  Reset audio digital IP */
;;;1542       CODEC->AUDIO_CTRL = 0;
;;;1543       CODEC->AUDIO_CTRL = 1;
;;;1544   
;;;1545       CODEC->CLK_CTRL = CODEC_StoreReg[3];
;;;1546       CODEC->I2S_CTRL = CODEC_StoreReg[4];
;;;1547       CODEC->ADC_CTRL = CODEC_StoreReg[5];
;;;1548       CODEC->DAC_CTRL = CODEC_StoreReg[6];
;;;1549   }
;;;1550   #endif
;;;1551   
;;;1552   /********************************************** ********************************************************/
;;;1553   /**************************************** [CODEC_EQ1 DLPS] ************************************************/
;;;1554   /*******************************************************************************************************/
;;;1555   /*******************************************************************************************************/
;;;1556   #if USE_CODEC_EQ1_DLPS
;;;1557   
;;;1558   uint32_t CODEC_EQ1_StoreReg[5];
;;;1559   
;;;1560   /**
;;;1561     * @brief  CODEC_EQ1 enter dlps callback function(Save CODEC_EQ1 register values when system enter DLPS)
;;;1562     * @param  None
;;;1563     * @retval None
;;;1564     */
;;;1565   __STATIC_INLINE void CODEC_EQ1_DLPS_Enter(void)
;;;1566   {
;;;1567       /* Enable codec function and clock */
;;;1568       PERIPH->PERI_BD_FUNC0_EN |= (1 << 0) | (1 << 4);
;;;1569   
;;;1570       CODEC_EQ1_StoreReg[0] = CODEC_EQ1->EQ_H0;
;;;1571       CODEC_EQ1_StoreReg[1] = CODEC_EQ1->EQ_B1;
;;;1572       CODEC_EQ1_StoreReg[2] = CODEC_EQ1->EQ_B2;
;;;1573       CODEC_EQ1_StoreReg[3] = CODEC_EQ1->EQ_A1;
;;;1574       CODEC_EQ1_StoreReg[4] = CODEC_EQ1->EQ_A2;
;;;1575   }
;;;1576   
;;;1577   /**
;;;1578     * @brief  CODEC_EQ1 exit dlps callback function(Resume CODEC_EQ1 register values when system exit DLPS)
;;;1579     * @param  None
;;;1580     * @retval None
;;;1581     */
;;;1582   DATA_RAM_FUNCTION __STATIC_INLINE void CODEC_EQ1_DLPS_Exit(void)
;;;1583   {
;;;1584       /* Enable codec function and clock */
;;;1585       PERIPH->PERI_BD_FUNC0_EN |= (1 << 0) | (1 << 4);
;;;1586   
;;;1587       CODEC_EQ1->EQ_H0 = CODEC_EQ1_StoreReg[0];
;;;1588       CODEC_EQ1->EQ_B1 = CODEC_EQ1_StoreReg[1];
;;;1589       CODEC_EQ1->EQ_B2 = CODEC_EQ1_StoreReg[2];
;;;1590       CODEC_EQ1->EQ_A1 = CODEC_EQ1_StoreReg[3];
;;;1591       CODEC_EQ1->EQ_A2 = CODEC_EQ1_StoreReg[4];
;;;1592   }
;;;1593   #endif
;;;1594   
;;;1595   /********************************************** ********************************************************/
;;;1596   /**************************************** [CODEC_EQ2 DLPS] ************************************************/
;;;1597   /*******************************************************************************************************/
;;;1598   /*******************************************************************************************************/
;;;1599   #if USE_CODEC_EQ2_DLPS
;;;1600   
;;;1601   uint32_t CODEC_EQ2_StoreReg[5];
;;;1602   
;;;1603   /**
;;;1604     * @brief  CODEC_EQ2 enter dlps callback function(Save CODEC_EQ2 register values when system enter DLPS)
;;;1605     * @param  None
;;;1606     * @retval None
;;;1607     */
;;;1608   __STATIC_INLINE void CODEC_EQ2_DLPS_Enter(void)
;;;1609   {
;;;1610       /* Enable codec function and clock */
;;;1611       PERIPH->PERI_BD_FUNC0_EN |= (1 << 0) | (1 << 4);
;;;1612   
;;;1613       CODEC_EQ2_StoreReg[0] = CODEC_EQ2->EQ_H0;
;;;1614       CODEC_EQ2_StoreReg[1] = CODEC_EQ2->EQ_B1;
;;;1615       CODEC_EQ2_StoreReg[2] = CODEC_EQ2->EQ_B2;
;;;1616       CODEC_EQ2_StoreReg[3] = CODEC_EQ2->EQ_A1;
;;;1617       CODEC_EQ2_StoreReg[4] = CODEC_EQ2->EQ_A2;
;;;1618   }
;;;1619   
;;;1620   /**
;;;1621     * @brief  CODEC_EQ2 exit dlps callback function(Resume CODEC_EQ2 register values when system exit DLPS)
;;;1622     * @param  None
;;;1623     * @retval None
;;;1624     */
;;;1625   DATA_RAM_FUNCTION __STATIC_INLINE void CODEC_EQ2_DLPS_Exit(void)
;;;1626   {
;;;1627       /* Enable codec function and clock */
;;;1628       PERIPH->PERI_BD_FUNC0_EN |= (1 << 0) | (1 << 4);
;;;1629   
;;;1630       CODEC_EQ2->EQ_H0 = CODEC_EQ2_StoreReg[0];
;;;1631       CODEC_EQ2->EQ_B1 = CODEC_EQ2_StoreReg[1];
;;;1632       CODEC_EQ2->EQ_B2 = CODEC_EQ2_StoreReg[2];
;;;1633       CODEC_EQ2->EQ_A1 = CODEC_EQ2_StoreReg[3];
;;;1634       CODEC_EQ2->EQ_A2 = CODEC_EQ2_StoreReg[4];
;;;1635   }
;;;1636   #endif
;;;1637   
;;;1638   /********************************************** ********************************************************/
;;;1639   /**************************************** [CODEC_EQ3 DLPS] ************************************************/
;;;1640   /*******************************************************************************************************/
;;;1641   /*******************************************************************************************************/
;;;1642   #if USE_CODEC_EQ3_DLPS
;;;1643   
;;;1644   uint32_t CODEC_EQ3_StoreReg[5];
;;;1645   
;;;1646   /**
;;;1647     * @brief  CODEC_EQ3 enter dlps callback function(Save CODEC_EQ3 register values when system enter DLPS)
;;;1648     * @param  None
;;;1649     * @retval None
;;;1650     */
;;;1651   __STATIC_INLINE void CODEC_EQ3_DLPS_Enter(void)
;;;1652   {
;;;1653       /* Enable codec function and clock */
;;;1654       PERIPH->PERI_BD_FUNC0_EN |= (1 << 0) | (1 << 4);
;;;1655   
;;;1656       CODEC_EQ3_StoreReg[0] = CODEC_EQ3->EQ_H0;
;;;1657       CODEC_EQ3_StoreReg[1] = CODEC_EQ3->EQ_B1;
;;;1658       CODEC_EQ3_StoreReg[2] = CODEC_EQ3->EQ_B2;
;;;1659       CODEC_EQ3_StoreReg[3] = CODEC_EQ3->EQ_A1;
;;;1660       CODEC_EQ3_StoreReg[4] = CODEC_EQ3->EQ_A2;
;;;1661   }
;;;1662   
;;;1663   /**
;;;1664     * @brief  CODEC_EQ3 exit dlps callback function(Resume CODEC_EQ3 register values when system exit DLPS)
;;;1665     * @param  None
;;;1666     * @retval None
;;;1667     */
;;;1668   DATA_RAM_FUNCTION __STATIC_INLINE void CODEC_EQ3_DLPS_Exit(void)
;;;1669   {
;;;1670       /* Enable codec function and clock */
;;;1671       PERIPH->PERI_BD_FUNC0_EN |= (1 << 0) | (1 << 4);
;;;1672   
;;;1673       CODEC_EQ3->EQ_H0 = CODEC_EQ3_StoreReg[0];
;;;1674       CODEC_EQ3->EQ_B1 = CODEC_EQ3_StoreReg[1];
;;;1675       CODEC_EQ3->EQ_B2 = CODEC_EQ3_StoreReg[2];
;;;1676       CODEC_EQ3->EQ_A1 = CODEC_EQ3_StoreReg[3];
;;;1677       CODEC_EQ3->EQ_A2 = CODEC_EQ3_StoreReg[4];
;;;1678   }
;;;1679   #endif
;;;1680   
;;;1681   /********************************************** ********************************************************/
;;;1682   /**************************************** [CODEC_EQ4 DLPS] ************************************************/
;;;1683   /*******************************************************************************************************/
;;;1684   /*******************************************************************************************************/
;;;1685   #if USE_CODEC_EQ4_DLPS
;;;1686   
;;;1687   uint32_t CODEC_EQ4_StoreReg[5];
;;;1688   
;;;1689   /**
;;;1690     * @brief  CODEC_EQ4 enter dlps callback function(Save CODEC_EQ4 register values when system enter DLPS)
;;;1691     * @param  None
;;;1692     * @retval None
;;;1693     */
;;;1694   __STATIC_INLINE void CODEC_EQ4_DLPS_Enter(void)
;;;1695   {
;;;1696       /* Enable codec function and clock */
;;;1697       PERIPH->PERI_BD_FUNC0_EN |= (1 << 0) | (1 << 4);
;;;1698   
;;;1699       CODEC_EQ4_StoreReg[0] = CODEC_EQ4->EQ_H0;
;;;1700       CODEC_EQ4_StoreReg[1] = CODEC_EQ4->EQ_B1;
;;;1701       CODEC_EQ4_StoreReg[2] = CODEC_EQ4->EQ_B2;
;;;1702       CODEC_EQ4_StoreReg[3] = CODEC_EQ4->EQ_A1;
;;;1703       CODEC_EQ4_StoreReg[4] = CODEC_EQ4->EQ_A2;
;;;1704   }
;;;1705   
;;;1706   /**
;;;1707     * @brief  CODEC_EQ4 exit dlps callback function(Resume CODEC_EQ4 register values when system exit DLPS)
;;;1708     * @param  None
;;;1709     * @retval None
;;;1710     */
;;;1711   DATA_RAM_FUNCTION __STATIC_INLINE void CODEC_EQ4_DLPS_Exit(void)
;;;1712   {
;;;1713       /* Enable codec function and clock */
;;;1714       PERIPH->PERI_BD_FUNC0_EN |= (1 << 0) | (1 << 4);
;;;1715   
;;;1716       CODEC_EQ4->EQ_H0 = CODEC_EQ4_StoreReg[0];
;;;1717       CODEC_EQ4->EQ_B1 = CODEC_EQ4_StoreReg[1];
;;;1718       CODEC_EQ4->EQ_B2 = CODEC_EQ4_StoreReg[2];
;;;1719       CODEC_EQ4->EQ_A1 = CODEC_EQ4_StoreReg[3];
;;;1720       CODEC_EQ4->EQ_A2 = CODEC_EQ4_StoreReg[4];
;;;1721   }
;;;1722   #endif
;;;1723   
;;;1724   /********************************************** ********************************************************/
;;;1725   /**************************************** [CODEC_EQ5 DLPS] ************************************************/
;;;1726   /*******************************************************************************************************/
;;;1727   /*******************************************************************************************************/
;;;1728   #if USE_CODEC_EQ5_DLPS
;;;1729   
;;;1730   uint32_t CODEC_EQ5_StoreReg[5];
;;;1731   
;;;1732   /**
;;;1733     * @brief  CODEC_EQ5 enter dlps callback function(Save CODEC_EQ5 register values when system enter DLPS)
;;;1734     * @param  None
;;;1735     * @retval None
;;;1736     */
;;;1737   __STATIC_INLINE void CODEC_EQ5_DLPS_Enter(void)
;;;1738   {
;;;1739       /* Enable codec function and clock */
;;;1740       PERIPH->PERI_BD_FUNC0_EN |= (1 << 0) | (1 << 4);
;;;1741   
;;;1742       CODEC_EQ5_StoreReg[0] = CODEC_EQ5->EQ_H0;
;;;1743       CODEC_EQ5_StoreReg[1] = CODEC_EQ5->EQ_B1;
;;;1744       CODEC_EQ5_StoreReg[2] = CODEC_EQ5->EQ_B2;
;;;1745       CODEC_EQ5_StoreReg[3] = CODEC_EQ5->EQ_A1;
;;;1746       CODEC_EQ5_StoreReg[4] = CODEC_EQ5->EQ_A2;
;;;1747   }
;;;1748   
;;;1749   /**
;;;1750     * @brief  CODEC_EQ5 exit dlps callback function(Resume CODEC_EQ5 register values when system exit DLPS)
;;;1751     * @param  None
;;;1752     * @retval None
;;;1753     */
;;;1754   DATA_RAM_FUNCTION __STATIC_INLINE void CODEC_EQ5_DLPS_Exit(void)
;;;1755   {
;;;1756       /* Enable codec function and clock */
;;;1757       PERIPH->PERI_BD_FUNC0_EN |= (1 << 0) | (1 << 4);
;;;1758   
;;;1759       CODEC_EQ5->EQ_H0 = CODEC_EQ5_StoreReg[0];
;;;1760       CODEC_EQ5->EQ_B1 = CODEC_EQ5_StoreReg[1];
;;;1761       CODEC_EQ5->EQ_B2 = CODEC_EQ5_StoreReg[2];
;;;1762       CODEC_EQ5->EQ_A1 = CODEC_EQ5_StoreReg[3];
;;;1763       CODEC_EQ5->EQ_A2 = CODEC_EQ5_StoreReg[4];
;;;1764   }
;;;1765   #endif
;;;1766   
;;;1767   /**
;;;1768     * @brief  Set Log and SWD pins to SW mode.
;;;1769     * @param  void.
;;;1770     * @retval void.
;;;1771     */
;;;1772   __STATIC_INLINE void Log_SWD_DLPS_Enter(void)
;;;1773   {
;;;1774       if (OTP->SWD_ENABLE)
;;;1775       {
;;;1776           Pad_Config(P1_0, PAD_SW_MODE, PAD_IS_PWRON, PAD_PULL_DOWN, PAD_OUT_DISABLE, PAD_OUT_LOW);
;;;1777           Pad_Config(P1_1, PAD_SW_MODE, PAD_IS_PWRON, PAD_PULL_DOWN, PAD_OUT_DISABLE, PAD_OUT_LOW);
;;;1778       }
;;;1779   
;;;1780       Pad_Config(OTP->logPin, PAD_SW_MODE, PAD_IS_PWRON, PAD_PULL_UP, PAD_OUT_DISABLE, PAD_OUT_LOW);
;;;1781   
;;;1782   }
;;;1783   
;;;1784   /**
;;;1785     * @brief  Set Log and SWD pins to PINMUX mode.
;;;1786     * @param  void.
;;;1787     * @retval void.
;;;1788     */
;;;1789   DATA_RAM_FUNCTION __STATIC_INLINE void Log_SWD_DLPS_Exit(void)
;;;1790   {
;;;1791       Pad_Config(OTP->logPin, PAD_PINMUX_MODE, PAD_IS_PWRON, PAD_PULL_NONE, PAD_OUT_DISABLE, PAD_OUT_LOW);
;;;1792   
;;;1793       if (OTP->SWD_ENABLE)
;;;1794       {
;;;1795           Pad_Config(P1_0, PAD_PINMUX_MODE, PAD_IS_PWRON, PAD_PULL_UP, PAD_OUT_DISABLE, PAD_OUT_LOW);
;;;1796           Pad_Config(P1_1, PAD_PINMUX_MODE, PAD_IS_PWRON, PAD_PULL_UP, PAD_OUT_DISABLE, PAD_OUT_LOW);
;;;1797       }
;;;1798   }
;;;1799   
;;;1800   /********************************************** ********************************************************/
;;;1801   /*********************************** [USER Exit DLPS CALLBACK FUCN] *****************************************/
;;;1802   /*******************************************************************************************************/
;;;1803   /*******************************************************************************************************/
;;;1804   #if USE_USER_DEFINE_DLPS_EXIT_CB
;;;1805   
;;;1806   DLPS_IO_ExitDlpsCB User_IO_ExitDlpsCB = NULL;
;;;1807   
;;;1808   #endif /* USE_USER_DEFINE_DLPS_EXIT_CB */
;;;1809   
;;;1810   /********************************************** ********************************************************/
;;;1811   /*********************************** [USER Enter DLPS CALLBACK FUCN] *****************************************/
;;;1812   /*******************************************************************************************************/
;;;1813   /*******************************************************************************************************/
;;;1814   #if USE_USER_DEFINE_DLPS_ENTER_CB
;;;1815   
;;;1816   DLPS_IO_EnterDlpsCB User_IO_EnterDlpsCB = NULL;
;;;1817   
;;;1818   #endif /* USE_USER_DEFINE_DLPS_EXIT_CB */
;;;1819   
;;;1820   /********************************************** ********************************************************/
;;;1821   /*********************************** [Enter & Exit DLPS CALLBACK FUNC] *********************************/
;;;1822   /*******************************************************************************************************/
;;;1823   /*******************************************************************************************************/
;;;1824   #if USE_IO_DRIVER_DLPS
;;;1825   
;;;1826   /**
;;;1827     * @brief  IO enter dlps callback function
;;;1828     * @param  None
;;;1829     * @retval None
;;;1830     */
;;;1831   void DLPS_IO_EnterDlpsCb(void)
;;;1832   {
;;;1833       /* low stack do it instead */
;;;1834   //    Pad_ClearAllWakeupINT();
;;;1835   
;;;1836   //    DBG_DIRECT("DLPS_IO_EnterDlpsCb");
;;;1837       NVIC_DisableIRQ(System_IRQn);
;;;1838       CPU_DLPS_Enter();
;;;1839   
;;;1840       Pinmux_DLPS_Enter();
;;;1841   
;;;1842   #if USE_USER_DEFINE_DLPS_ENTER_CB
;;;1843       if (User_IO_EnterDlpsCB)
        0x002088d8:    6898        .h      LDR      r0,[r3,#8]
        0x002088da:    b100        ..      CBZ      r0,0x2088de ; DLPS_IO_EnterDlpsCb + 106
;;;1844       {
;;;1845           User_IO_EnterDlpsCB();
        0x002088dc:    4780        .G      BLX      r0
;;; .\..\..\..\src\mcu\peripheral\rtl876x_io_dlps.c (154)
        0x002088de:    f04f4280    O..B    MOV      r2,#0x40000000
        0x002088e2:    f8d2021c    ....    LDR      r0,[r2,#0x21c]
        0x002088e6:    f4407080    @..p    ORR      r0,r0,#0x100
        0x002088ea:    f8c2021c    ....    STR      r0,[r2,#0x21c]
;;;155        PERIPH->PERI_CLK_CTRL |= (BIT_SOC_ACTCK_GPIO_EN | SYSBLK_SLPCK_GPIO_EN_Msk);
        0x002088ee:    f8d20230    ..0.    LDR      r0,[r2,#0x230]
        0x002088f2:    f0407040    @.@p    ORR      r0,r0,#0x3000000
        0x002088f6:    f8c20230    ..0.    STR      r0,[r2,#0x230]
;;;156    
;;;157        GPIO_StoreReg[0] = GPIO->DATAOUT;
        0x002088fa:    4924        $I      LDR      r1,[pc,#144] ; [0x20898c] = 0x40001000
        0x002088fc:    680b        .h      LDR      r3,[r1,#0]
        0x002088fe:    4820         H      LDR      r0,[pc,#128] ; [0x208980] = 0x20bba4
        0x00208900:    30ac        .0      ADDS     r0,r0,#0xac
;;;158        GPIO_StoreReg[1] = GPIO->DATADIR;
        0x00208902:    6003        .`      STR      r3,[r0,#0]
        0x00208904:    684b        Kh      LDR      r3,[r1,#4]
;;;159        GPIO_StoreReg[2] = GPIO->DATASRC;
        0x00208906:    6043        C`      STR      r3,[r0,#4]
        0x00208908:    688b        .h      LDR      r3,[r1,#8]
;;;160        GPIO_StoreReg[3] = GPIO->INTEN;
        0x0020890a:    6083        .`      STR      r3,[r0,#8]
        0x0020890c:    6b0b        .k      LDR      r3,[r1,#0x30]
;;;161        GPIO_StoreReg[4] = GPIO->INTMASK;
        0x0020890e:    60c3        .`      STR      r3,[r0,#0xc]
        0x00208910:    6b4b        Kk      LDR      r3,[r1,#0x34]
;;;162        GPIO_StoreReg[5] = GPIO->INTTYPE;
        0x00208912:    6103        .a      STR      r3,[r0,#0x10]
        0x00208914:    6b8b        .k      LDR      r3,[r1,#0x38]
;;;163        GPIO_StoreReg[6] = GPIO->INTPOLARITY;
        0x00208916:    6143        Ca      STR      r3,[r0,#0x14]
        0x00208918:    6bcb        .k      LDR      r3,[r1,#0x3c]
;;;164        GPIO_StoreReg[7] = GPIO->DEBOUNCE;
        0x0020891a:    6183        .a      STR      r3,[r0,#0x18]
        0x0020891c:    6c89        .l      LDR      r1,[r1,#0x48]
;;;165        GPIO_StoreReg[8] = *(__IO uint32_t *)(0x40000344UL);
        0x0020891e:    61c1        .a      STR      r1,[r0,#0x1c]
        0x00208920:    f8d21344    ..D.    LDR      r1,[r2,#0x344]
;;;166    
;;;167        return;
;;;168    }
;;;169    
;;;170    /**
;;;171      * @brief  GPIO exit dlps callback function(Resume GPIO register values when system exit DLPS)
;;;172      * @param  None
;;;173      * @retval None
;;;174      */
;;;175    DATA_RAM_FUNCTION __STATIC_INLINE void GPIO_DLPS_Exit(void)
;;;176    {
;;;177        PERIPH->PERI_FUNC1_EN |= BIT_PERI_GPIO_EN;
;;;178        PERIPH->PERI_CLK_CTRL |= (BIT_SOC_ACTCK_GPIO_EN | SYSBLK_SLPCK_GPIO_EN_Msk);
;;;179    
;;;180        GPIO->DATADIR       = GPIO_StoreReg[1];
;;;181        GPIO->DATASRC       = GPIO_StoreReg[2];
;;;182        GPIO->INTMASK       = GPIO_StoreReg[4];
;;;183        GPIO->INTTYPE       = GPIO_StoreReg[5];
;;;184        GPIO->INTPOLARITY   = GPIO_StoreReg[6];
;;;185        GPIO->DEBOUNCE      = GPIO_StoreReg[7];
;;;186        GPIO->DATAOUT       = GPIO_StoreReg[0];
;;;187        GPIO->INTCLR        = ~(GPIO_StoreReg[1]);
;;;188        GPIO->INTEN         = GPIO_StoreReg[3];
;;;189        *(__IO uint32_t *)(0x40000344UL) = GPIO_StoreReg[8];
;;;190    
;;;191        return;
;;;192    }
;;;193    #endif  /* USE_GPIO_DLPS */
;;;194    
;;;195    
;;;196    /********************************************** ********************************************************/
;;;197    /**************************************** [KEYSCAN DLPS] ***********************************************/
;;;198    /*******************************************************************************************************/
;;;199    /*******************************************************************************************************/
;;;200    #if USE_KEYSCAN_DLPS
;;;201    __STATIC_INLINE void KeyScan_DLPS_Enter(void);
;;;202    __STATIC_INLINE void KeyScan_DLPS_Exit(void);
;;;203    
;;;204    uint32_t KeyScan_StoreReg[7];      /*  This array should be placed in RAM ON/Buffer ON.    */
;;;205    
;;;206    /**
;;;207      * @brief  KEYSCAN enter dlps callback function(Save KEYSCAN register values when system enter DLPS)
;;;208      * @param  None
;;;209      * @retval None
;;;210      */
;;;211    __STATIC_INLINE void KeyScan_DLPS_Enter(void)
;;;212    {
;;;213        /*Open 5M clock source*/
;;;214        SYSBLKCTRL->u_20C.RSVD_20C |= BIT26;
;;;215        SYSBLKCTRL->u_20C.RSVD_20C |= BIT29;
;;;216    
;;;217        PERIPH->PERI_FUNC0_EN |= BIT_PERI_KEYSCAN_EN;
;;;218        PERIPH->PERI_CLK_CTRL1 |= (BIT_SOC_ACTCK_KEYSCAN_EN | SYSBLK_SLPCK_KEYSCAN_EN_Msk);
;;;219    
;;;220        KeyScan_StoreReg[0] = KEYSCAN->CLKDIV;               /* 0x00 */
;;;221        KeyScan_StoreReg[1] = KEYSCAN->TIMERCR;              /* 0x04 */
;;;222        KeyScan_StoreReg[2] = KEYSCAN->CR;                   /* 0x08 */
;;;223        KeyScan_StoreReg[3] = KEYSCAN->COLCR;                /* 0x0C */
;;;224        KeyScan_StoreReg[4] = KEYSCAN->ROWCR;                /* 0x10 */
;;;225        KeyScan_StoreReg[6] = KEYSCAN->INTMASK;              /* 0x18 */
;;;226    
;;;227        return;
;;;228    }
;;;229    
;;;230    /**
;;;231      * @brief  KEYSCAN exit dlps callback function(Resume KEYSCAN register values when system exit DLPS)
;;;232      * @param  None
;;;233      * @retval None
;;;234      */
;;;235    DATA_RAM_FUNCTION __STATIC_INLINE void KeyScan_DLPS_Exit(void)
;;;236    {
;;;237        /*Open 5M clock source*/
;;;238        SYSBLKCTRL->u_20C.RSVD_20C |= BIT26;
;;;239        SYSBLKCTRL->u_20C.RSVD_20C |= BIT29;
;;;240    
;;;241        PERIPH->PERI_FUNC0_EN |= BIT_PERI_KEYSCAN_EN;
;;;242        PERIPH->PERI_CLK_CTRL1 |= (BIT_SOC_ACTCK_KEYSCAN_EN | SYSBLK_SLPCK_KEYSCAN_EN_Msk);
;;;243    
;;;244        /* Set FSM to idle state */
;;;245        KEYSCAN->CR &= ~BIT31;
;;;246        KEYSCAN->CLKDIV = KeyScan_StoreReg[0];
;;;247        KEYSCAN->CR = (KeyScan_StoreReg[2] & (~(BIT31)));
;;;248        KEYSCAN->TIMERCR = KeyScan_StoreReg[1];
;;;249        KEYSCAN->COLCR = KeyScan_StoreReg[3];
;;;250        KEYSCAN->ROWCR = KeyScan_StoreReg[4];
;;;251        KEYSCAN->INTMASK = KeyScan_StoreReg[6];
;;;252        KEYSCAN->CR |= (KeyScan_StoreReg[2] & ((BIT31)));
;;;253    
;;;254        return;
;;;255    }
;;;256    #endif /* USE_KEYSCAN_DLPS */
;;;257    
;;;258    
;;;259    /********************************************** ********************************************************/
;;;260    /**************************************** [QDEC DLPS] **************************************************/
;;;261    /*******************************************************************************************************/
;;;262    /*******************************************************************************************************/
;;;263    #if USE_QDECODER_DLPS
;;;264    __STATIC_INLINE void QuadDecoder_DLPS_Enter(void);
;;;265    __STATIC_INLINE void QuadDecoder_DLPS_Exit(void);
;;;266    
;;;267    uint32_t QuadDecoder_StoreReg[5];  /*  This array should be placed in RAM ON/Buffer ON.    */
;;;268    
;;;269    /**
;;;270      * @brief  QDEC enter dlps callback function(Save QDEC register values when system enter DLPS)
;;;271      * @param  None
;;;272      * @retval None
;;;273      */
;;;274    __STATIC_INLINE void QuadDecoder_DLPS_Enter(void)
;;;275    {
;;;276        /*Open 20M clock source*/
;;;277        SYSBLKCTRL->u_20C.RSVD_20C |= BIT26;
;;;278        SYSBLKCTRL->u_20C.RSVD_20C |= BIT27;
;;;279        SYSBLKCTRL->u_218.PERI_FUNC0_EN |= SYSBLK_QDECODE_EN_Msk;
;;;280        SYSBLKCTRL->u_238.PERI_CLK_CTRL1 |= (SYSBLK_ACTCK_QDECODE_EN_Msk | SYSBLK_SLPCK_QDECODE_EN_Msk);
;;;281    
;;;282        QuadDecoder_StoreReg[0] = QDEC->REG_DIV;
;;;283        QuadDecoder_StoreReg[1] = QDEC->REG_CR_X;
;;;284        QuadDecoder_StoreReg[2] = QDEC->REG_CR_Y;
;;;285        QuadDecoder_StoreReg[3] = QDEC->REG_CR_Z;
;;;286        QuadDecoder_StoreReg[4] = QDEC->INT_MASK;
;;;287    
;;;288        return;
;;;289    }
;;;290    
;;;291    /**
;;;292      * @brief  QDEC exit dlps callback function(Resume QDEC register values when system exit DLPS)
;;;293      * @param  None
;;;294      * @retval None
;;;295      */
;;;296    DATA_RAM_FUNCTION __STATIC_INLINE void QuadDecoder_DLPS_Exit(void)
;;;297    {
;;;298        /*Open 20M clock source*/
;;;299        SYSBLKCTRL->u_20C.RSVD_20C |= BIT26;
;;;300        SYSBLKCTRL->u_20C.RSVD_20C |= BIT27;
;;;301        SYSBLKCTRL->u_218.PERI_FUNC0_EN |= SYSBLK_QDECODE_EN_Msk;
;;;302        SYSBLKCTRL->u_238.PERI_CLK_CTRL1 |= (SYSBLK_ACTCK_QDECODE_EN_Msk | SYSBLK_SLPCK_QDECODE_EN_Msk);
;;;303    
;;;304        //clear flags
;;;305        QDEC->REG_DIV  = QuadDecoder_StoreReg[0];
;;;306        QDEC->REG_CR_X = QuadDecoder_StoreReg[1];
;;;307        QDEC->REG_CR_Y = QuadDecoder_StoreReg[2];
;;;308        QDEC->REG_CR_Z = QuadDecoder_StoreReg[3];
;;;309        QDEC->INT_MASK = QuadDecoder_StoreReg[4];
;;;310    
;;;311        return;
;;;312    }
;;;313    #endif
;;;314    
;;;315    /********************************************** ********************************************************/
;;;316    /**************************************** [SPI0 DLPS] **************************************************/
;;;317    /*******************************************************************************************************/
;;;318    /*******************************************************************************************************/
;;;319    #if USE_SPI0_DLPS
;;;320    __STATIC_INLINE void SPI0_DLPS_Enter(void);
;;;321    __STATIC_INLINE void SPI0_DLPS_Exit(void);
;;;322    
;;;323    uint32_t SPI0_StoreReg[13];        /*  This array should be placed in RAM ON/Buffer ON.    */
;;;324    
;;;325    /**
;;;326      * @brief  SPI0 enter dlps callback function(Save SPI0 register values when system enter DLPS)
;;;327      * @param  None
;;;328      * @retval None
;;;329      */
;;;330    __STATIC_INLINE void SPI0_DLPS_Enter(void)
;;;331    {
;;;332        SYSBLKCTRL->u_218.PERI_FUNC0_EN |=  SYSBLK_SPI0_EN_Msk;
;;;333        SYSBLKCTRL->u_234.PERI_CLK_CTRL0 |= (SYSBLK_ACTCK_SPI0_EN_Msk | SYSBLK_SLPCK_SPI0_EN_Msk);
;;;334    
;;;335        SPI0_StoreReg[0] = SPI0->CTRLR0;
;;;336        SPI0_StoreReg[1] = SPI0->CTRLR1;
;;;337        SPI0_StoreReg[2] = SPI0->SSIENR;
;;;338        SPI0_StoreReg[3] = SPI0->SER;
;;;339        SPI0_StoreReg[4] = SPI0->BAUDR;
;;;340        SPI0_StoreReg[5] = SPI0->TXFTLR;
;;;341        SPI0_StoreReg[6] = SPI0->RXFTLR;
;;;342        SPI0_StoreReg[7] = SPI0->IMR;
;;;343        SPI0_StoreReg[8] = SPI0->DMACR;
;;;344        SPI0_StoreReg[9] = SPI0->DMATDLR;
;;;345        SPI0_StoreReg[10] = SPI0->DMARDLR;
;;;346        SPI0_StoreReg[11] = SPI0->RX_SAMPLE_DLY;
;;;347        SPI0_StoreReg[12] = *(volatile uint32_t *)0x40000308;
;;;348    }
;;;349    
;;;350    /**
;;;351      * @brief  SPI0 exit dlps callback function(Resume SPI0 register values when system exit DLPS)
;;;352      * @param  None
;;;353      * @retval None
;;;354      */
;;;355    DATA_RAM_FUNCTION __STATIC_INLINE void SPI0_DLPS_Exit(void)
;;;356    {
;;;357        *(volatile uint32_t *)0x40000308 = SPI0_StoreReg[12];
;;;358        SYSBLKCTRL->u_218.PERI_FUNC0_EN |=  SYSBLK_SPI0_EN_Msk;
;;;359        SYSBLKCTRL->u_234.PERI_CLK_CTRL0 |= (SYSBLK_ACTCK_SPI0_EN_Msk | SYSBLK_SLPCK_SPI0_EN_Msk);
;;;360    
;;;361        SPI0->CTRLR0 = SPI0_StoreReg[0];
;;;362        SPI0->CTRLR1 = SPI0_StoreReg[1];
;;;363        SPI0->SER = SPI0_StoreReg[3];
;;;364        SPI0->BAUDR = SPI0_StoreReg[4];
;;;365        SPI0->TXFTLR = SPI0_StoreReg[5];
;;;366        SPI0->RXFTLR = SPI0_StoreReg[6];
;;;367        SPI0->IMR = SPI0_StoreReg[7];
;;;368        SPI0->DMACR = SPI0_StoreReg[8];
;;;369        SPI0->DMATDLR = SPI0_StoreReg[9];
;;;370        SPI0->DMARDLR = SPI0_StoreReg[10];
;;;371        SPI0->RX_SAMPLE_DLY = SPI0_StoreReg[11];
;;;372    
;;;373        /* Enable the selected SPI peripheral */
;;;374        SPI0->SSIENR = SPI0_StoreReg[2];
;;;375    }
;;;376    #endif
;;;377    
;;;378    
;;;379    /********************************************** ********************************************************/
;;;380    /**************************************** [SPI1 DLPS] **************************************************/
;;;381    /*******************************************************************************************************/
;;;382    /*******************************************************************************************************/
;;;383    #if USE_SPI1_DLPS
;;;384    __STATIC_INLINE void SPI1_DLPS_Enter(void);
;;;385    __STATIC_INLINE void SPI1_DLPS_Exit(void);
;;;386    
;;;387    uint32_t SPI1_StoreReg[13];        /*  This array should be placed in RAM ON/Buffer ON.    */
;;;388    
;;;389    /**
;;;390      * @brief  SPI1 enter dlps callback function(Save SPI1 register values when system enter DLPS)
;;;391      * @param  None
;;;392      * @retval None
;;;393      */
;;;394    __STATIC_INLINE void SPI1_DLPS_Enter(void)
;;;395    {
;;;396        SYSBLKCTRL->u_218.PERI_FUNC0_EN |=  SYSBLK_SPI1_EN_Msk;
;;;397        SYSBLKCTRL->u_234.PERI_CLK_CTRL0 |= (SYSBLK_ACTCK_SPI1_EN_Msk | SYSBLK_SLPCK_SPI1_EN_Msk);
;;;398    
;;;399        SPI1_StoreReg[0] = SPI1->CTRLR0;
;;;400        SPI1_StoreReg[1] = SPI1->CTRLR1;
;;;401        SPI1_StoreReg[2] = SPI1->SSIENR;
;;;402        SPI1_StoreReg[3] = SPI1->SER;
;;;403        SPI1_StoreReg[4] = SPI1->BAUDR;
;;;404        SPI1_StoreReg[5] = SPI1->TXFTLR;
;;;405        SPI1_StoreReg[6] = SPI1->RXFTLR;
;;;406        SPI1_StoreReg[7] = SPI1->IMR;
;;;407        SPI1_StoreReg[8] = SPI1->DMACR;
;;;408        SPI1_StoreReg[9] = SPI1->DMATDLR;
;;;409        SPI1_StoreReg[10] = SPI1->DMARDLR;
;;;410        SPI1_StoreReg[11] = SPI1->RX_SAMPLE_DLY;
;;;411        SPI1_StoreReg[12] = *(volatile uint32_t *)0x40000308;
;;;412    }
;;;413    
;;;414    /**
;;;415      * @brief  SPI1 exit dlps callback function(Resume SPI1 register values when system exit DLPS)
;;;416      * @param  None
;;;417      * @retval None
;;;418      */
;;;419    DATA_RAM_FUNCTION __STATIC_INLINE void SPI1_DLPS_Exit(void)
;;;420    {
;;;421        *(volatile uint32_t *)0x40000308 = SPI1_StoreReg[12];
;;;422        SYSBLKCTRL->u_218.PERI_FUNC0_EN |=  SYSBLK_SPI1_EN_Msk;
;;;423        SYSBLKCTRL->u_234.PERI_CLK_CTRL0 |= (SYSBLK_ACTCK_SPI1_EN_Msk | SYSBLK_SLPCK_SPI1_EN_Msk);
;;;424    
;;;425        SPI1->CTRLR0 = SPI1_StoreReg[0];
;;;426        SPI1->CTRLR1 = SPI1_StoreReg[1];
;;;427        SPI1->SER = SPI1_StoreReg[3];
;;;428        SPI1->BAUDR = SPI1_StoreReg[4];
;;;429        SPI1->TXFTLR = SPI1_StoreReg[5];
;;;430        SPI1->RXFTLR = SPI1_StoreReg[6];
;;;431        SPI1->IMR = SPI1_StoreReg[7];
;;;432        SPI1->DMACR = SPI1_StoreReg[8];
;;;433        SPI1->DMATDLR = SPI1_StoreReg[9];
;;;434        SPI1->DMARDLR = SPI1_StoreReg[10];
;;;435        SPI1->RX_SAMPLE_DLY = SPI1_StoreReg[11];
;;;436    
;;;437        /* Enable the selected SPI peripheral */
;;;438        SPI1->SSIENR = SPI1_StoreReg[2];
;;;439    }
;;;440    #endif
;;;441    
;;;442    /********************************************** ********************************************************/
;;;443    /**************************************** [SPI2W DLPS] **************************************************/
;;;444    /*******************************************************************************************************/
;;;445    /*******************************************************************************************************/
;;;446    #if USE_SPI2W_DLPS
;;;447    __STATIC_INLINE void SPI2W_DLPS_Enter(void);
;;;448    __STATIC_INLINE void SPI2W_DLPS_Exit(void);
;;;449    
;;;450    uint32_t SPI2W_StoreReg[1];        /*  This array should be placed in RAM ON/Buffer ON.    */
;;;451    
;;;452    /**
;;;453      * @brief  SPI2W enter dlps callback function(Save SPI2W register values when system enter DLPS)
;;;454      * @param  None
;;;455      * @retval None
;;;456      */
;;;457    __STATIC_INLINE void SPI2W_DLPS_Enter(void)
;;;458    {
;;;459        /*Open 20M clock source*/
;;;460        SYSBLKCTRL->u_20C.RSVD_20C |= BIT26;
;;;461        SYSBLKCTRL->u_20C.RSVD_20C |= BIT27;
;;;462    
;;;463        SYSBLKCTRL->u_218.PERI_FUNC0_EN |=  SYSBLK_SPI2W_EN_Msk;
;;;464        SYSBLKCTRL->u_238.PERI_CLK_CTRL1 |= (SYSBLK_ACTCK_SPI2WIRE_EN_Msk | SYSBLK_SLPCK_SPI2WIRE_EN_Msk);
;;;465    
;;;466        SPI2W_StoreReg[0] = SPI3WIRE->CFGR;
;;;467    }
;;;468    
;;;469    /**
;;;470      * @brief  SPI2W exit dlps callback function(Resume SPI2W register values when system exit DLPS)
;;;471      * @param  None
;;;472      * @retval None
;;;473      */
;;;474    DATA_RAM_FUNCTION __STATIC_INLINE void SPI2W_DLPS_Exit(void)
;;;475    {
;;;476        /*Open 20M clock source*/
;;;477        SYSBLKCTRL->u_20C.RSVD_20C |= BIT26;
;;;478        SYSBLKCTRL->u_20C.RSVD_20C |= BIT27;
;;;479    
;;;480        SYSBLKCTRL->u_218.PERI_FUNC0_EN |=  SYSBLK_SPI2W_EN_Msk;
;;;481        SYSBLKCTRL->u_238.PERI_CLK_CTRL1 |= (SYSBLK_ACTCK_SPI2WIRE_EN_Msk | SYSBLK_SLPCK_SPI2WIRE_EN_Msk);
;;;482    
;;;483        SPI3WIRE->CFGR = SPI2W_StoreReg[0];
;;;484    }
;;;485    #endif
;;;486    
;;;487    /********************************************** ********************************************************/
;;;488    /**************************************** [I2C0 DLPS] **************************************************/
;;;489    /*******************************************************************************************************/
;;;490    /*******************************************************************************************************/
;;;491    #if USE_I2C0_DLPS
;;;492    __STATIC_INLINE void I2C0_DLPS_Enter(void);
;;;493    __STATIC_INLINE void I2C0_DLPS_Exit(void);
;;;494    
;;;495    uint32_t I2C0_StoreReg[20];        /*  This array should be placed in RAM ON/Buffer ON.    */
;;;496    
;;;497    /**
;;;498      * @brief  I2C0 enter dlps callback function(Save I2C0 register values when system enter DLPS)
;;;499      * @param  None
;;;500      * @retval None
;;;501      */
;;;502    __STATIC_INLINE void I2C0_DLPS_Enter(void)
;;;503    {
;;;504        PERIPH->PERI_CLK_CTRL1 |= (SYSBLK_ACTCK_I2C0_EN_Msk | SYSBLK_SLPCK_I2C0_EN_Msk);
;;;505        PERIPH->PERI_FUNC0_EN |= SYSBLK_I2C0_EN_Msk;
;;;506    
;;;507        I2C0_StoreReg[0] = I2C0->IC_CON;
;;;508        I2C0_StoreReg[1] = I2C0->IC_TAR;
;;;509        I2C0_StoreReg[2] = I2C0->IC_SAR;
;;;510        I2C0_StoreReg[3] = I2C0->IC_HS_MADDR;
;;;511    
;;;512        I2C0_StoreReg[4] = I2C0->IC_SS_SCL_HCNT;
;;;513        I2C0_StoreReg[5] = I2C0->IC_SS_SCL_LCNT;
;;;514        I2C0_StoreReg[6] = I2C0->IC_FS_SCL_HCNT;
;;;515        I2C0_StoreReg[7] = I2C0->IC_FS_SCL_LCNT;
;;;516        I2C0_StoreReg[8] = I2C0->IC_HS_SCL_HCNT;
;;;517        I2C0_StoreReg[9] = I2C0->IC_HS_SCL_LCNT;
;;;518    
;;;519        I2C0_StoreReg[10] = I2C0->IC_INTR_MASK;
;;;520        I2C0_StoreReg[11] = I2C0->IC_RX_TL;
;;;521        I2C0_StoreReg[12] = I2C0->IC_TX_TL;
;;;522        I2C0_StoreReg[13] = I2C0->IC_ENABLE;
;;;523        I2C0_StoreReg[14] = I2C0->IC_SDA_HOLD;
;;;524        I2C0_StoreReg[15] = I2C0->IC_SLV_DATA_NACK_ONLY;
;;;525        I2C0_StoreReg[16] = I2C0->IC_DMA_CR;
;;;526        I2C0_StoreReg[17] = I2C0->IC_DMA_TDLR;
;;;527        I2C0_StoreReg[18] = I2C0->IC_DMA_RDLR;
;;;528    
;;;529        I2C0_StoreReg[19] = I2C0->IC_SDA_SETUP;
;;;530    }
;;;531    
;;;532    /**
;;;533      * @brief  I2C0 exit dlps callback function(Resume I2C0 register values when system exit DLPS)
;;;534      * @param  None
;;;535      * @retval None
;;;536      */
;;;537    DATA_RAM_FUNCTION __STATIC_INLINE void I2C0_DLPS_Exit(void)
;;;538    {
;;;539        PERIPH->PERI_CLK_CTRL1 |= (SYSBLK_ACTCK_I2C0_EN_Msk | SYSBLK_SLPCK_I2C0_EN_Msk);
;;;540        PERIPH->PERI_FUNC0_EN |= SYSBLK_I2C0_EN_Msk;
;;;541    
;;;542        I2C0->IC_CON = I2C0_StoreReg[0];
;;;543        I2C0->IC_TAR = I2C0_StoreReg[1];
;;;544        I2C0->IC_SAR = I2C0_StoreReg[2];
;;;545        I2C0->IC_HS_MADDR = I2C0_StoreReg[3];
;;;546    
;;;547        I2C0->IC_SS_SCL_HCNT = I2C0_StoreReg[4];
;;;548        I2C0->IC_SS_SCL_LCNT = I2C0_StoreReg[5];
;;;549        I2C0->IC_FS_SCL_HCNT = I2C0_StoreReg[6];
;;;550        I2C0->IC_FS_SCL_LCNT = I2C0_StoreReg[7];
;;;551        I2C0->IC_HS_SCL_HCNT = I2C0_StoreReg[8];
;;;552        I2C0->IC_HS_SCL_LCNT = I2C0_StoreReg[9];
;;;553    
;;;554        I2C0->IC_INTR_MASK = I2C0_StoreReg[10];
;;;555        I2C0->IC_RX_TL = I2C0_StoreReg[11];
;;;556        I2C0->IC_TX_TL = I2C0_StoreReg[12];
;;;557        I2C0->IC_SDA_HOLD = I2C0_StoreReg[14];
;;;558        I2C0->IC_SLV_DATA_NACK_ONLY = I2C0_StoreReg[15];
;;;559        I2C0->IC_DMA_CR = I2C0_StoreReg[16];
;;;560        I2C0->IC_DMA_TDLR = I2C0_StoreReg[17];
;;;561        I2C0->IC_DMA_RDLR = I2C0_StoreReg[18];
;;;562        I2C0->IC_SDA_SETUP = I2C0_StoreReg[19];
;;;563    
;;;564        I2C0->IC_ENABLE = I2C0_StoreReg[13];
;;;565    }
;;;566    #endif
;;;567    
;;;568    /********************************************** ********************************************************/
;;;569    /**************************************** [I2C1 DLPS] **************************************************/
;;;570    /*******************************************************************************************************/
;;;571    /*******************************************************************************************************/
;;;572    #if USE_I2C1_DLPS
;;;573    __STATIC_INLINE void I2C1_DLPS_Enter(void);
;;;574    __STATIC_INLINE void I2C1_DLPS_Exit(void);
;;;575    
;;;576    uint32_t I2C1_StoreReg[20];        /*  This array should be placed in RAM ON/Buffer ON.    */
;;;577    
;;;578    /**
;;;579      * @brief  I2C1 enter dlps callback function(Save I2C1 register values when system enter DLPS)
;;;580      * @param  None
;;;581      * @retval None
;;;582      */
;;;583    __STATIC_INLINE void I2C1_DLPS_Enter(void)
;;;584    {
;;;585        PERIPH->PERI_CLK_CTRL1 |= (SYSBLK_ACTCK_I2C1_EN_Msk | SYSBLK_SLPCK_I2C1_EN_Msk);
;;;586        PERIPH->PERI_FUNC0_EN |= SYSBLK_I2C1_EN_Msk;
;;;587    
;;;588        I2C1_StoreReg[0] = I2C1->IC_CON;
;;;589        I2C1_StoreReg[1] = I2C1->IC_TAR;
;;;590        I2C1_StoreReg[2] = I2C1->IC_SAR;
;;;591        I2C1_StoreReg[3] = I2C1->IC_HS_MADDR;
;;;592    
;;;593        I2C1_StoreReg[4] = I2C1->IC_SS_SCL_HCNT;
;;;594        I2C1_StoreReg[5] = I2C1->IC_SS_SCL_LCNT;
;;;595        I2C1_StoreReg[6] = I2C1->IC_FS_SCL_HCNT;
;;;596        I2C1_StoreReg[7] = I2C1->IC_FS_SCL_LCNT;
;;;597        I2C1_StoreReg[8] = I2C1->IC_HS_SCL_HCNT;
;;;598        I2C1_StoreReg[9] = I2C1->IC_HS_SCL_LCNT;
;;;599    
;;;600        I2C1_StoreReg[10] = I2C1->IC_INTR_MASK;
;;;601        I2C1_StoreReg[11] = I2C1->IC_RX_TL;
;;;602        I2C1_StoreReg[12] = I2C1->IC_TX_TL;
;;;603        I2C1_StoreReg[13] = I2C1->IC_ENABLE;
;;;604        I2C1_StoreReg[14] = I2C1->IC_SDA_HOLD;
;;;605        I2C1_StoreReg[15] = I2C1->IC_SLV_DATA_NACK_ONLY;
;;;606        I2C1_StoreReg[16] = I2C1->IC_DMA_CR;
;;;607        I2C1_StoreReg[17] = I2C1->IC_DMA_TDLR;
;;;608        I2C1_StoreReg[18] = I2C1->IC_DMA_RDLR;
;;;609    
;;;610        I2C1_StoreReg[19] = I2C1->IC_SDA_SETUP;
;;;611    }
;;;612    
;;;613    /**
;;;614      * @brief  I2C1 exit dlps callback function(Resume I2C1 register values when system exit DLPS)
;;;615      * @param  None
;;;616      * @retval None
;;;617      */
;;;618    DATA_RAM_FUNCTION __STATIC_INLINE void I2C1_DLPS_Exit(void)
;;;619    {
;;;620        PERIPH->PERI_CLK_CTRL1 |= (SYSBLK_ACTCK_I2C1_EN_Msk | SYSBLK_SLPCK_I2C1_EN_Msk);
;;;621        PERIPH->PERI_FUNC0_EN |= SYSBLK_I2C1_EN_Msk;
;;;622    
;;;623        I2C1->IC_CON = I2C1_StoreReg[0];
;;;624        I2C1->IC_TAR = I2C1_StoreReg[1];
;;;625        I2C1->IC_SAR = I2C1_StoreReg[2];
;;;626        I2C0->IC_HS_MADDR = I2C1_StoreReg[3];
;;;627    
;;;628        I2C1->IC_SS_SCL_HCNT = I2C1_StoreReg[4];
;;;629        I2C1->IC_SS_SCL_LCNT = I2C1_StoreReg[5];
;;;630        I2C1->IC_FS_SCL_HCNT = I2C1_StoreReg[6];
;;;631        I2C1->IC_FS_SCL_LCNT = I2C1_StoreReg[7];
;;;632        I2C1->IC_HS_SCL_HCNT = I2C1_StoreReg[8];
;;;633        I2C1->IC_HS_SCL_LCNT = I2C1_StoreReg[9];
;;;634    
;;;635        I2C1->IC_INTR_MASK = I2C1_StoreReg[10];
;;;636        I2C1->IC_RX_TL = I2C1_StoreReg[11];
;;;637        I2C1->IC_TX_TL = I2C1_StoreReg[12];
;;;638        I2C1->IC_SDA_HOLD = I2C1_StoreReg[14];
;;;639        I2C1->IC_SLV_DATA_NACK_ONLY = I2C1_StoreReg[15];
;;;640        I2C1->IC_DMA_CR = I2C1_StoreReg[16];
;;;641        I2C1->IC_DMA_TDLR = I2C1_StoreReg[17];
;;;642        I2C1->IC_DMA_RDLR = I2C1_StoreReg[18];
;;;643        I2C1->IC_SDA_SETUP = I2C1_StoreReg[19];
;;;644    
;;;645        I2C1->IC_ENABLE = I2C1_StoreReg[13];
;;;646    }
;;;647    #endif
;;;648    
;;;649    /********************************************** ********************************************************/
;;;650    /**************************************** [Timer & PWM DLPS] *******************************************/
;;;651    /*******************************************************************************************************/
;;;652    /*******************************************************************************************************/
;;;653    #if USE_TIM_DLPS
;;;654    #include "rtl876x_tim.h"
;;;655    __STATIC_INLINE void TIM_DLPS_Enter(void);
;;;656    __STATIC_INLINE void TIM_DLPS_Exit(void);
;;;657    
;;;658    uint32_t TIM_StoreReg[26];      /*  This array should be placed in RAM ON/Buffer ON.    */
;;;659    
;;;660    /* PWM, use with timer */
;;;661    uint32_t PWM0_StoreReg;         /*  This array should be placed in RAM ON/Buffer ON.    */
;;;662    
;;;663    uint32_t PWM1_StoreReg;         /*  This array should be placed in RAM ON/Buffer ON.    */
;;;664    
;;;665    /**
;;;666      * @brief  TIMER enter dlps callback function(Save TIMER register values when system enter DLPS)
;;;667      * @param  None
;;;668      * @retval None
;;;669      */
;;;670    __STATIC_INLINE void TIM_DLPS_Enter(void)
;;;671    {
;;;672        SYSBLKCTRL->u_210.SOC_FUNC_EN |= BIT(16);
;;;673        SYSBLKCTRL->u_230.CLK_CTRL |= (SYSBLK_ACTCK_TIMER_EN_Msk | SYSBLK_SLPCK_TIMER_EN_Msk);
;;;674    
;;;675        TIM_StoreReg[0] = TIM0->LoadCount;
;;;676        TIM_StoreReg[1] = TIM0->ControlReg;
;;;677        TIM_StoreReg[2] = TIMER0_LOAD_COUNT2;
;;;678    
;;;679        TIM_StoreReg[3] = TIM1->LoadCount;
;;;680        TIM_StoreReg[4] = TIM1->ControlReg;
;;;681        TIM_StoreReg[5] = TIMER1_LOAD_COUNT2;
;;;682    
;;;683        TIM_StoreReg[6] = TIM2->LoadCount;
;;;684        TIM_StoreReg[7] = TIM2->ControlReg;
;;;685        TIM_StoreReg[8] = TIMER2_LOAD_COUNT2;
;;;686    
;;;687        TIM_StoreReg[9] = TIM3->LoadCount;
;;;688        TIM_StoreReg[10] = TIM3->ControlReg;
;;;689        TIM_StoreReg[11] = TIMER3_LOAD_COUNT2;
;;;690    
;;;691        TIM_StoreReg[12] = TIM4->LoadCount;
;;;692        TIM_StoreReg[13] = TIM4->ControlReg;
;;;693        TIM_StoreReg[14] = TIMER4_LOAD_COUNT2;
;;;694    
;;;695        TIM_StoreReg[15] = TIM5->LoadCount;
;;;696        TIM_StoreReg[16] = TIM5->ControlReg;
;;;697        TIM_StoreReg[17] = TIMER5_LOAD_COUNT2;
;;;698    
;;;699        TIM_StoreReg[18] = TIM6->LoadCount;
;;;700        TIM_StoreReg[19] = TIM6->ControlReg;
;;;701        TIM_StoreReg[20] = TIMER6_LOAD_COUNT2;
;;;702    
;;;703        TIM_StoreReg[21] = TIM7->LoadCount;
;;;704        TIM_StoreReg[22] = TIM7->ControlReg;
;;;705        TIM_StoreReg[23] = TIMER7_LOAD_COUNT2;
;;;706    
;;;707        TIM_StoreReg[24] = *((volatile uint32_t *)0x4000035CUL);
;;;708        TIM_StoreReg[25] = *((volatile uint32_t *)0x40000360UL);
;;;709    
;;;710        PWM0_StoreReg = TIMER_PWM0_CR;
;;;711    
;;;712        PWM1_StoreReg = TIMER_PWM1_CR;
;;;713    }
;;;714    
;;;715    /**
;;;716      * @brief  TIMER exit dlps callback function(Resume TIMER register values when system exit DLPS)
;;;717      * @param  None
;;;718      * @retval None
;;;719      */
;;;720    DATA_RAM_FUNCTION __STATIC_INLINE void TIM_DLPS_Exit(void)
;;;721    {
;;;722        /* Enable timer IP clock and function */
;;;723        SYSBLKCTRL->u_210.SOC_FUNC_EN |= BIT(16);
;;;724        SYSBLKCTRL->u_230.CLK_CTRL |= (SYSBLK_ACTCK_TIMER_EN_Msk | SYSBLK_SLPCK_TIMER_EN_Msk);
;;;725    
;;;726        *((volatile uint32_t *)0x4000035CUL) = TIM_StoreReg[24];
;;;727        *((volatile uint32_t *)0x40000360UL) = TIM_StoreReg[25];
;;;728    
;;;729        TIM0->LoadCount = TIM_StoreReg[0];
;;;730        TIM0->ControlReg = TIM_StoreReg[1];
;;;731        TIMER0_LOAD_COUNT2 = TIM_StoreReg[2];
;;;732    
;;;733        TIM1->LoadCount = TIM_StoreReg[3];
;;;734        TIM1->ControlReg = TIM_StoreReg[4];
;;;735        TIMER1_LOAD_COUNT2 = TIM_StoreReg[5];
;;;736    
;;;737        TIM2->LoadCount = TIM_StoreReg[6];
;;;738        TIM2->ControlReg = TIM_StoreReg[7];
;;;739        TIMER2_LOAD_COUNT2 = TIM_StoreReg[8];
;;;740    
;;;741        TIM3->LoadCount = TIM_StoreReg[9];
;;;742        TIM3->ControlReg = TIM_StoreReg[10];
;;;743        TIMER3_LOAD_COUNT2 = TIM_StoreReg[11];
;;;744    
;;;745        TIM4->LoadCount = TIM_StoreReg[12];
;;;746        TIM4->ControlReg = TIM_StoreReg[13];
;;;747        TIMER4_LOAD_COUNT2 = TIM_StoreReg[14];
;;;748    
;;;749        TIM5->LoadCount = TIM_StoreReg[15];
;;;750        TIM5->ControlReg = TIM_StoreReg[16];
;;;751        TIMER5_LOAD_COUNT2 = TIM_StoreReg[17];
;;;752    
;;;753        TIM6->LoadCount = TIM_StoreReg[18];
;;;754        TIM6->ControlReg = TIM_StoreReg[19];
;;;755        TIMER6_LOAD_COUNT2 = TIM_StoreReg[20];
;;;756    
;;;757        TIM7->LoadCount = TIM_StoreReg[21];
;;;758        TIM7->ControlReg = TIM_StoreReg[22];
;;;759        TIMER7_LOAD_COUNT2 = TIM_StoreReg[23];
;;;760    
;;;761        TIMER_PWM0_CR = PWM0_StoreReg;
;;;762    
;;;763        TIMER_PWM1_CR = PWM1_StoreReg;
;;;764    }
;;;765    #endif  /* USE_TIM_DLPS */
;;;766    
;;;767    
;;;768    /********************************************** ********************************************************/
;;;769    /**************************************** [UART DLPS] **************************************************/
;;;770    /*******************************************************************************************************/
;;;771    /*******************************************************************************************************/
;;;772    #if USE_UART_DLPS
;;;773    #include "rtl876x_uart.h"
;;;774    
;;;775    __STATIC_INLINE void UART_DLPS_Enter(void);
;;;776    __STATIC_INLINE void UART_DLPS_Exit(void);
;;;777    
;;;778    uint32_t UART_StoreReg[11];        /*  This array should be placed in RAM ON/Buffer ON.    */
;;;779    
;;;780    /**
;;;781      * @brief  UART enter dlps callback function(Save UART register values when system enter DLPS)
;;;782      * @param  None
;;;783      * @retval None
;;;784      */
;;;785    __STATIC_INLINE void UART_DLPS_Enter(void)
;;;786    {
;;;787        PERIPH->PERI_FUNC0_EN |= (1 << 0);
;;;788        PERIPH->PERI_CLK_CTRL0 |= (SYSBLK_ACTCK_UART0DATA_EN_Msk | SYSBLK_SLPCK_UART0DATA_EN_Msk);
;;;789    
;;;790        //access DLH and DLL
;;;791        UART->LCR |= (1 << 7);
;;;792        UART_StoreReg[0] = UART->DLL;
;;;793        UART_StoreReg[1] = UART->DLH_INTCR;
;;;794        UART->LCR &= (~(1 << 7));
;;;795    
;;;796        //save other registers
;;;797        UART_StoreReg[2] = UART->DLH_INTCR;
;;;798        UART_StoreReg[4] = UART->LCR;
;;;799        UART_StoreReg[5] = UART->MCR;
;;;800        UART_StoreReg[6] = UART->SPR;
;;;801        UART_StoreReg[7] = UART->STSR;
;;;802        UART_StoreReg[8] = UART->RX_IDLE_INTTCR;
;;;803        UART_StoreReg[9] = UART->RXIDLE_INTCR;
;;;804        UART_StoreReg[10] = UART->MISCR;
;;;805    
;;;806        return;
;;;807    }
;;;808    
;;;809    /**
;;;810      * @brief  UART exit dlps callback function(Resume UART register values when system exit DLPS)
;;;811      * @param  None
;;;812      * @retval None
;;;813      */
;;;814    DATA_RAM_FUNCTION __STATIC_INLINE void UART_DLPS_Exit(void)
;;;815    {
;;;816        PERIPH->PERI_FUNC0_EN |= (1 << 0);
;;;817        PERIPH->PERI_CLK_CTRL0 |= (SYSBLK_ACTCK_UART0DATA_EN_Msk | SYSBLK_SLPCK_UART0DATA_EN_Msk);
;;;818    
;;;819        //access DLH and DLL
;;;820        UART->LCR |= (1 << 7);
;;;821        UART->DLL = UART_StoreReg[0];
;;;822        UART->DLH_INTCR =  UART_StoreReg[1];
;;;823        UART->LCR &= (~(1 << 7));
;;;824    
;;;825        //access other registers
;;;826        UART->INTID_FCR = (((UART_StoreReg[7] & BIT24) >> 21) | ((UART_StoreReg[7] & 0x7C000000) >> 18) |
;;;827                           (1));
;;;828        UART->LCR = UART_StoreReg[4];
;;;829        UART->MCR = UART_StoreReg[5];
;;;830        UART->SPR = UART_StoreReg[6];
;;;831        UART->STSR = UART_StoreReg[7];
;;;832        UART->DLH_INTCR = UART_StoreReg[2];
;;;833        UART->RX_IDLE_INTTCR = UART_StoreReg[8];
;;;834        UART->RXIDLE_INTCR = UART_StoreReg[9];
;;;835        UART->MISCR = UART_StoreReg[10];
;;;836    
;;;837        return;
;;;838    }
;;;839    #endif
;;;840    
;;;841    
;;;842    #if USE_UART1_DLPS
;;;843    
;;;844    __STATIC_INLINE void UART1_DLPS_Enter(void);
;;;845    __STATIC_INLINE void UART1_DLPS_Exit(void);
;;;846    
;;;847    uint32_t UART1_StoreReg[11];        /*  This array should be placed in RAM ON/Buffer ON.    */
;;;848    
;;;849    /**
;;;850      * @brief  UART1 enter dlps callback function(Save UART1 register values when system enter DLPS)
;;;851      * @param  None
;;;852      * @retval None
;;;853      */
;;;854    __STATIC_INLINE void UART1_DLPS_Enter(void)
;;;855    {
;;;856        //enable log uart peripheral & clock
;;;857        SYSBLKCTRL->u_210.SOC_FUNC_EN |= (1 << 12);
;;;858        SYSBLKCTRL->u_230.CLK_CTRL |= ((1 << 12) | (1 << 13));
;;;859    
;;;860        //access DLH and DLL
;;;861        UART1->LCR |= (1 << 7);
;;;862        UART1_StoreReg[0] = UART1->DLL;
;;;863        UART1_StoreReg[1] = UART1->DLH_INTCR;
;;;864        UART1->LCR &= (~(1 << 7));
;;;865    
;;;866        //save other registers
;;;867        UART1_StoreReg[2] = UART1->DLH_INTCR;
;;;868        UART1_StoreReg[4] = UART1->LCR;
;;;869        UART1_StoreReg[5] = UART1->MCR;
;;;870        UART1_StoreReg[6] = UART1->SPR;
;;;871        UART1_StoreReg[7] = UART1->STSR;
;;;872        UART1_StoreReg[8] = UART1->RX_IDLE_INTTCR;
;;;873        UART1_StoreReg[9] = UART1->RXIDLE_INTCR;
;;;874        UART1_StoreReg[10] = UART1->MISCR;
;;;875    
;;;876        return;
;;;877    }
;;;878    
;;;879    /**
;;;880      * @brief  UART1 exit dlps callback function(Resume UART1 register values when system exit DLPS)
;;;881      * @param  None
;;;882      * @retval None
;;;883      */
;;;884    DATA_RAM_FUNCTION __STATIC_INLINE void UART1_DLPS_Exit(void)
;;;885    {
;;;886        //enable log uart peripheral & clock
;;;887        SYSBLKCTRL->u_210.SOC_FUNC_EN |= (1 << 12);
;;;888        SYSBLKCTRL->u_230.CLK_CTRL |= ((1 << 12) | (1 << 13));
;;;889    
;;;890        //access DLH and DLL
;;;891        UART1->LCR |= (1 << 7);
;;;892        UART1->DLL = UART1_StoreReg[0];
;;;893        UART1->DLH_INTCR =  UART1_StoreReg[1];
;;;894        UART1->LCR &= (~(1 << 7));
;;;895    
;;;896        //access other registers
;;;897        UART1->INTID_FCR = (((UART1_StoreReg[7] & BIT24) >> 21) | ((UART1_StoreReg[7] & 0x7C000000)
;;;898                                                                   >> 18) | (1));
;;;899        UART1->LCR = UART1_StoreReg[4];
;;;900        UART1->MCR = UART1_StoreReg[5];
;;;901        UART1->SPR = UART1_StoreReg[6];
;;;902        UART1->STSR = UART1_StoreReg[7];
;;;903        UART1->DLH_INTCR = UART1_StoreReg[2];
;;;904        UART1->RX_IDLE_INTTCR = UART1_StoreReg[8];
;;;905        UART1->RXIDLE_INTCR = UART1_StoreReg[9];
;;;906        UART1->MISCR = UART1_StoreReg[10];
;;;907    
;;;908        return;
;;;909    }
;;;910    #endif
;;;911    
;;;912    #if USE_UART2_DLPS
;;;913    
;;;914    __STATIC_INLINE void UART2_DLPS_Enter(void);
;;;915    __STATIC_INLINE void UART2_DLPS_Exit(void);
;;;916    
;;;917    uint32_t UART2_StoreReg[11];        /*  This array should be placed in RAM ON/Buffer ON.    */
;;;918    
;;;919    /**
;;;920      * @brief  UART2 enter dlps callback function(Save UART2 register values when system enter DLPS)
;;;921      * @param  None
;;;922      * @retval None
;;;923      */
;;;924    __STATIC_INLINE void UART2_DLPS_Enter(void)
;;;925    {
;;;926        //enable log uart peripheral & clock
;;;927        SYSBLKCTRL->u_210.SOC_FUNC_EN |= (1 << 12);
;;;928        SYSBLKCTRL->u_230.CLK_CTRL |= ((1 << 12) | (1 << 13));
;;;929    
;;;930        //access DLH and DLL
;;;931        UART2->LCR |= (1 << 7);
;;;932        UART2_StoreReg[0] = UART2->DLL;
;;;933        UART2_StoreReg[1] = UART2->DLH_INTCR;
;;;934        UART2->LCR &= (~(1 << 7));
;;;935    
;;;936        //save other registers
;;;937        UART2_StoreReg[2] = UART2->DLH_INTCR;
;;;938        UART2_StoreReg[4] = UART2->LCR;
;;;939        UART2_StoreReg[5] = UART2->MCR;
;;;940        UART2_StoreReg[6] = UART2->SPR;
;;;941        UART2_StoreReg[7] = UART2->STSR;
;;;942        UART2_StoreReg[8] = UART2->RX_IDLE_INTTCR;
;;;943        UART2_StoreReg[9] = UART2->RXIDLE_INTCR;
;;;944        UART2_StoreReg[10] = UART2->MISCR;
;;;945    
;;;946        return;
;;;947    }
;;;948    
;;;949    /**
;;;950      * @brief  UART2 exit dlps callback function(Resume UART2 register values when system exit DLPS)
;;;951      * @param  None
;;;952      * @retval None
;;;953      */
;;;954    DATA_RAM_FUNCTION __STATIC_INLINE void UART2_DLPS_Exit(void)
;;;955    {
;;;956        //enable log uart peripheral & clock
;;;957        SYSBLKCTRL->u_210.SOC_FUNC_EN |= (1 << 12);
;;;958        SYSBLKCTRL->u_230.CLK_CTRL |= ((1 << 12) | (1 << 13));
;;;959    
;;;960        //access DLH and DLL
;;;961        UART2->LCR |= (1 << 7);
;;;962        UART2->DLL = UART2_StoreReg[0];
;;;963        UART2->DLH_INTCR =  UART2_StoreReg[1];
;;;964        UART2->LCR &= (~(1 << 7));
;;;965    
;;;966        //access other registers
;;;967        UART2->INTID_FCR = (((UART2_StoreReg[7] & BIT24) >> 21) | ((UART2_StoreReg[7] & 0x7C000000)
;;;968                                                                   >> 18) | (1));
;;;969        UART2->LCR = UART2_StoreReg[4];
;;;970        UART2->MCR = UART2_StoreReg[5];
;;;971        UART2->SPR = UART2_StoreReg[6];
;;;972        UART2->STSR = UART2_StoreReg[7];
;;;973        UART2->DLH_INTCR = UART2_StoreReg[2];
;;;974        UART2->RX_IDLE_INTTCR = UART2_StoreReg[8];
;;;975        UART2->RXIDLE_INTCR = UART2_StoreReg[9];
;;;976        UART2->MISCR = UART2_StoreReg[10];
;;;977    
;;;978        return;
;;;979    }
;;;980    #endif
;;;981    
;;;982    
;;;983    /********************************************** ********************************************************/
;;;984    /**************************************** [ADC DLPS] **************************************************/
;;;985    /*******************************************************************************************************/
;;;986    /*******************************************************************************************************/
;;;987    
;;;988    #if USE_ADC_DLPS
;;;989    __STATIC_INLINE void ADC_DLPS_Enter(void);
;;;990    __STATIC_INLINE void ADC_DLPS_Exit(void);
;;;991    
;;;992    uint32_t ADC_StoreReg[14];        /*  This array should be placed in RAM ON/Buffer ON.    */
;;;993    
;;;994    /**
;;;995      * @brief  ADC enter dlps callback function(Save ADC register values when system enter DLPS)
;;;996      * @param  None
;;;997      * @retval None
;;;998      */
;;;999    __STATIC_INLINE void ADC_DLPS_Enter(void)
;;;1000   {
;;;1001       /*Open 10M clock source*/
;;;1002       SYSBLKCTRL->u_20C.RSVD_20C |= BIT26;
;;;1003       SYSBLKCTRL->u_20C.RSVD_20C |= BIT28;
;;;1004   
;;;1005       PERIPH->PERI_FUNC1_EN |= (1 << 0);
;;;1006       PERIPH->PERI_CLK_CTRL1 |= (SYSBLK_ACTCK_ADC_EN_Msk | SYSBLK_SLPCK_ADC_EN_Msk);
;;;1007   
;;;1008       ADC_StoreReg[0] =  ADC->CR;          //0x04
;;;1009       ADC_StoreReg[1] =  ADC->SCHCR;       //0x08
;;;1010       ADC_StoreReg[2] =  ADC->INTCR;       //0x0C
;;;1011       ADC_StoreReg[3] =  ADC->SCHTAB0;     //0x10
;;;1012       ADC_StoreReg[4] =  ADC->SCHTAB1;     //0x14
;;;1013       ADC_StoreReg[5] =  ADC->SCHTAB2;     //0x18
;;;1014       ADC_StoreReg[6] =  ADC->SCHTAB3;     //0x1C
;;;1015       ADC_StoreReg[7] =  ADC->SCHTAB4;     //0x20
;;;1016       ADC_StoreReg[8] =  ADC->SCHTAB5;     //0x24
;;;1017       ADC_StoreReg[9] =  ADC->SCHTAB6;     //0x28
;;;1018       ADC_StoreReg[10] =  ADC->SCHTAB6;    //0x2C
;;;1019       ADC_StoreReg[11] =  ADC->PWRDLY;
;;;1020       ADC_StoreReg[12] =  ADC->DATCLK;
;;;1021       ADC_StoreReg[13] =  ADC->ANACTL;
;;;1022   
;;;1023       uint8_t reg_value = 0;
;;;1024       reg_value = btaon_fast_read_safe(0x110);
;;;1025       btaon_fast_write(0x110, reg_value & (~0x04));
;;;1026   
;;;1027       return;
;;;1028   }
;;;1029   
;;;1030   /**
;;;1031     * @brief  ADC exit dlps callback function(Resume ADC register values when system exit DLPS)
;;;1032     * @param  None
;;;1033     * @retval None
;;;1034     */
;;;1035   DATA_RAM_FUNCTION __STATIC_INLINE void ADC_DLPS_Exit(void)
;;;1036   {
;;;1037       /*Open 10M clock source*/
;;;1038       SYSBLKCTRL->u_20C.RSVD_20C |= BIT26;
;;;1039       SYSBLKCTRL->u_20C.RSVD_20C |= BIT28;
;;;1040   
;;;1041       PERIPH->PERI_FUNC1_EN |= (1 << 0);
;;;1042       PERIPH->PERI_CLK_CTRL1 |= (SYSBLK_ACTCK_ADC_EN_Msk | SYSBLK_SLPCK_ADC_EN_Msk);
;;;1043   
;;;1044   #if 0
;;;1045       //Todo
;;;1046       ADC->PWRDLY = ADC_StoreReg[10];
;;;1047       ADC->CR = (ADC_StoreReg[0] & (~((uint32_t)0x03)));
;;;1048       ADC->SCHTAB0 = ADC_StoreReg[3];
;;;1049       ADC->SCHTAB1 = ADC_StoreReg[4];
;;;1050       ADC->SCHTAB2 = ADC_StoreReg[5];
;;;1051       ADC->SCHTAB3 = ADC_StoreReg[6];
;;;1052       ADC->SCHTAB4 = ADC_StoreReg[7];
;;;1053       ADC->SCHTAB5 = ADC_StoreReg[8];
;;;1054       ADC->SCHTAB6 = ADC_StoreReg[9];
;;;1055       ADC->SCHCR = ADC_StoreReg[1];
;;;1056       ADC->INTCR = (ADC_StoreReg[2] & 0x1F);
;;;1057   #else
;;;1058       /*Disable all interrupt.*/
;;;1059       ADC->INTCR &= (~0x1f);
;;;1060   
;;;1061       /* Set power mode first */
;;;1062       ADC->PWRDLY = ADC_StoreReg[11];
;;;1063   
;;;1064       /* Disable schedule table */
;;;1065       ADC->SCHCR &= (~0xffff);
;;;1066   
;;;1067       ADC->SCHTAB0 = ADC_StoreReg[3];
;;;1068       ADC->SCHTAB1 = ADC_StoreReg[4];
;;;1069       ADC->SCHTAB2 = ADC_StoreReg[5];
;;;1070       ADC->SCHTAB3 = ADC_StoreReg[6];
;;;1071       ADC->SCHTAB4 = ADC_StoreReg[7];
;;;1072       ADC->SCHTAB5 = ADC_StoreReg[8];
;;;1073       ADC->SCHTAB6 = ADC_StoreReg[9];
;;;1074       ADC->SCHTAB7 = ADC_StoreReg[10];
;;;1075       ADC->SCHCR   = ADC_StoreReg[1];
;;;1076       ADC->CR = (ADC_StoreReg[0] & (~((uint32_t)0x03)));
;;;1077       ADC->DATCLK = ADC_StoreReg[12];
;;;1078       ADC->ANACTL = ADC_StoreReg[13];
;;;1079   
;;;1080       /*Clear ADC FIFO */
;;;1081       ADC->CR |= BIT26;
;;;1082       /* Clear all interrupt */
;;;1083       ADC->INTCR |= (0x1f << 8);
;;;1084   
;;;1085       /* Restore specify interrupt */
;;;1086       ADC->INTCR = ADC_StoreReg[2];
;;;1087   
;;;1088   #endif
;;;1089   
;;;1090       uint8_t reg_value = 0;
;;;1091       reg_value = btaon_fast_read_safe(0x110);
;;;1092       btaon_fast_write(0x110, reg_value | 0x04);
;;;1093   
;;;1094       return;
;;;1095   }
;;;1096   
;;;1097   #endif
;;;1098   
;;;1099   /********************************************** ********************************************************/
;;;1100   /**************************************** [IR DLPS] **************************************************/
;;;1101   /*******************************************************************************************************/
;;;1102   /*******************************************************************************************************/
;;;1103   
;;;1104   #if USE_IR_DLPS
;;;1105   __STATIC_INLINE void IR_DLPS_Enter(void);
;;;1106   __STATIC_INLINE void IR_DLPS_Exit(void);
;;;1107   
;;;1108   uint32_t IR_StoreReg[6];        /*  This array should be placed in RAM ON/Buffer ON.    */
;;;1109   
;;;1110   /**
;;;1111     * @brief  IR enter dlps callback function(Save IR register values when system enter DLPS)
;;;1112     * @param  None
;;;1113     * @retval None
;;;1114     */
;;;1115   __STATIC_INLINE void IR_DLPS_Enter(void)
;;;1116   {
;;;1117       PERIPH->PERI_FUNC0_EN |= (1 << 10);
;;;1118       PERIPH->PERI_CLK_CTRL0 |= (SYSBLK_ACTCK_IR_EN_Msk | SYSBLK_SLPCK_IR_EN_Msk);
;;;1119   
;;;1120       IR_StoreReg[0] = IR->CLK_DIV;
;;;1121       IR_StoreReg[1] = IR->TX_CONFIG;
;;;1122       IR_StoreReg[2] = IR->RX_CONFIG;
;;;1123       IR_StoreReg[3] = IR->RX_CNT_INT_SEL;
;;;1124   
;;;1125   
;;;1126       return;
;;;1127   }
;;;1128   
;;;1129   /**
;;;1130     * @brief  IR exit dlps callback function(Resume IR register values when system exit DLPS)
;;;1131     * @param  None
;;;1132     * @retval None
;;;1133     */
;;;1134   DATA_RAM_FUNCTION __STATIC_INLINE void IR_DLPS_Exit(void)
;;;1135   {
;;;1136       PERIPH->PERI_FUNC0_EN |= (1 << 10);
;;;1137       PERIPH->PERI_CLK_CTRL0 |= (SYSBLK_ACTCK_IR_EN_Msk | SYSBLK_SLPCK_IR_EN_Msk);
;;;1138   
;;;1139       IR->CLK_DIV = IR_StoreReg[0];
;;;1140       if (IR_StoreReg[1] & BIT31)
;;;1141       {
;;;1142           /* RX MODE */
;;;1143           IR->TX_CONFIG  = IR_StoreReg[1];
;;;1144           IR->RX_CONFIG  = IR_StoreReg[2];
;;;1145           IR->RX_CNT_INT_SEL  = IR_StoreReg[3];
;;;1146       }
;;;1147       else
;;;1148       {
;;;1149           /* TX MODE */
;;;1150           IR->TX_CONFIG  = IR_StoreReg[1];
;;;1151           /* If IR TX mode is idle, must write one data firstly */
;;;1152           IR->TX_FIFO = 0;
;;;1153       }
;;;1154   
;;;1155       return;
;;;1156   }
;;;1157   
;;;1158   #endif
;;;1159   
;;;1160   /********************************************** ********************************************************/
;;;1161   /**************************************** [GDMA DLPS] **************************************************/
;;;1162   /*******************************************************************************************************/
;;;1163   /*******************************************************************************************************/
;;;1164   
;;;1165   #if USE_GDMA_DLPS
;;;1166   
;;;1167   __STATIC_INLINE void GDMA_DLPS_Enter(void);
;;;1168   __STATIC_INLINE void GDMA_DLPS_Exit(void);
;;;1169   uint32_t GDMA_StoreReg[7];         /*  This array should be placed in RAM ON/Buffer ON.    */
;;;1170   
;;;1171   #endif
;;;1172   
;;;1173   #if USE_GDMACHANNEL0_DLPS
;;;1174   uint32_t GDMAChannel0_StoreReg[6];        /*  This array should be placed in RAM ON/Buffer ON.    */
;;;1175   #endif
;;;1176   
;;;1177   #if USE_GDMACHANNEL1_DLPS
;;;1178   uint32_t GDMAChannel1_StoreReg[6];        /*  This array should be placed in RAM ON/Buffer ON.    */
;;;1179   #endif
;;;1180   
;;;1181   #if USE_GDMACHANNEL2_DLPS
;;;1182   uint32_t GDMAChannel2_StoreReg[6];        /*  This array should be placed in RAM ON/Buffer ON.    */
;;;1183   #endif
;;;1184   
;;;1185   #if USE_GDMACHANNEL3_DLPS
;;;1186   uint32_t GDMAChannel3_StoreReg[6];        /*  This array should be placed in RAM ON/Buffer ON.    */
;;;1187   #endif
;;;1188   
;;;1189   #if USE_GDMACHANNEL4_DLPS
;;;1190   uint32_t GDMAChannel4_StoreReg[6];        /*  This array should be placed in RAM ON/Buffer ON.    */
;;;1191   #endif
;;;1192   
;;;1193   #if USE_GDMACHANNEL5_DLPS
;;;1194   uint32_t GDMAChannel5_StoreReg[6];        /*  This array should be placed in RAM ON/Buffer ON.    */
;;;1195   #endif
;;;1196   
;;;1197   #if USE_GDMA_DLPS
;;;1198   /**
;;;1199     * @brief  GDMA enter dlps callback function(Save GDMA register values when system enter DLPS)
;;;1200     * @param  None
;;;1201     * @retval None
;;;1202     */
;;;1203   __STATIC_INLINE void GDMA_DLPS_Enter(void)
;;;1204   {
;;;1205       SYSBLKCTRL->u_210.SOC_FUNC_EN |= SYSBLK_GDMA0_EN_Msk;
;;;1206       PERIPH->PERI_CLK_CTRL |= (SYSBLK_ACTCK_GDMA0_EN_Msk | SYSBLK_SLPCK_GDMA0_EN_Msk);
;;;1207   
;;;1208       GDMA_StoreReg[0] = GDMA_BASE->DmaCfgReg;
;;;1209       GDMA_StoreReg[1] = GDMA_BASE->ChEnReg;
;;;1210       GDMA_StoreReg[2] = GDMA_BASE->MASK_TFR;
;;;1211       GDMA_StoreReg[3] = GDMA_BASE->MASK_BLOCK;
;;;1212       GDMA_StoreReg[4] = GDMA_BASE->MASK_SRC_TRAN;
;;;1213       GDMA_StoreReg[5] = GDMA_BASE->MASK_DST_TRAN;
;;;1214       GDMA_StoreReg[6] = GDMA_BASE->MASK_ERR;
;;;1215   
;;;1216   #if USE_GDMACHANNEL0_DLPS
;;;1217       GDMAChannel0_StoreReg[0] = GDMA_Channel0->SAR;
;;;1218       GDMAChannel0_StoreReg[1] = GDMA_Channel0->DAR;
;;;1219       GDMAChannel0_StoreReg[2] = GDMA_Channel0->CTL_LOW;
;;;1220       GDMAChannel0_StoreReg[3] = GDMA_Channel0->CTL_HIGH;
;;;1221       GDMAChannel0_StoreReg[4] = GDMA_Channel0->CFG_LOW;
;;;1222       GDMAChannel0_StoreReg[5] = GDMA_Channel0->CFG_HIGH;
;;;1223   #endif
;;;1224   #if USE_GDMACHANNEL1_DLPS
;;;1225       GDMAChannel1_StoreReg[0] = GDMA_Channel1->SAR;
;;;1226       GDMAChannel1_StoreReg[1] = GDMA_Channel1->DAR;
;;;1227       GDMAChannel1_StoreReg[2] = GDMA_Channel1->CTL_LOW;
;;;1228       GDMAChannel1_StoreReg[3] = GDMA_Channel1->CTL_HIGH;
;;;1229       GDMAChannel1_StoreReg[4] = GDMA_Channel1->CFG_LOW;
;;;1230       GDMAChannel1_StoreReg[5] = GDMA_Channel1->CFG_HIGH;
;;;1231   #endif
;;;1232   #if USE_GDMACHANNEL2_DLPS
;;;1233       GDMAChannel2_StoreReg[0] = GDMA_Channel2->SAR;
;;;1234       GDMAChannel2_StoreReg[1] = GDMA_Channel2->DAR;
;;;1235       GDMAChannel2_StoreReg[2] = GDMA_Channel2->CTL_LOW;
;;;1236       GDMAChannel2_StoreReg[3] = GDMA_Channel2->CTL_HIGH;
;;;1237       GDMAChannel2_StoreReg[4] = GDMA_Channel2->CFG_LOW;
;;;1238       GDMAChannel2_StoreReg[5] = GDMA_Channel2->CFG_HIGH;
;;;1239   #endif
;;;1240   #if USE_GDMACHANNEL3_DLPS
;;;1241       GDMAChannel3_StoreReg[0] = GDMA_Channel3->SAR;
;;;1242       GDMAChannel3_StoreReg[1] = GDMA_Channel3->DAR;
;;;1243       GDMAChannel3_StoreReg[2] = GDMA_Channel3->CTL_LOW;
;;;1244       GDMAChannel3_StoreReg[3] = GDMA_Channel3->CTL_HIGH;
;;;1245       GDMAChannel3_StoreReg[4] = GDMA_Channel3->CFG_LOW;
;;;1246       GDMAChannel3_StoreReg[5] = GDMA_Channel3->CFG_HIGH;
;;;1247   #endif
;;;1248   #if USE_GDMACHANNEL4_DLPS
;;;1249       GDMAChannel4_StoreReg[0] = GDMA_Channel4->SAR;
;;;1250       GDMAChannel4_StoreReg[1] = GDMA_Channel4->DAR;
;;;1251       GDMAChannel4_StoreReg[2] = GDMA_Channel4->CTL_LOW;
;;;1252       GDMAChannel4_StoreReg[3] = GDMA_Channel4->CTL_HIGH;
;;;1253       GDMAChannel4_StoreReg[4] = GDMA_Channel4->CFG_LOW;
;;;1254       GDMAChannel4_StoreReg[5] = GDMA_Channel4->CFG_HIGH;
;;;1255   #endif
;;;1256   #if USE_GDMACHANNEL5_DLPS
;;;1257       GDMAChannel5_StoreReg[0] = GDMA_Channel5->SAR;
;;;1258       GDMAChannel5_StoreReg[1] = GDMA_Channel5->DAR;
;;;1259       GDMAChannel5_StoreReg[2] = GDMA_Channel5->CTL_LOW;
;;;1260       GDMAChannel5_StoreReg[3] = GDMA_Channel5->CTL_HIGH;
;;;1261       GDMAChannel5_StoreReg[4] = GDMA_Channel5->CFG_LOW;
;;;1262       GDMAChannel5_StoreReg[5] = GDMA_Channel5->CFG_HIGH;
;;;1263   #endif
;;;1264   }
;;;1265   
;;;1266   /**
;;;1267     * @brief  GDMA exit dlps callback function(Resume GDMA register values when system exit DLPS)
;;;1268     * @param  None
;;;1269     * @retval None
;;;1270     */
;;;1271   DATA_RAM_FUNCTION __STATIC_INLINE void GDMA_DLPS_Exit(void)
;;;1272   {
;;;1273       SYSBLKCTRL->u_210.SOC_FUNC_EN |= SYSBLK_GDMA0_EN_Msk;
;;;1274       PERIPH->PERI_CLK_CTRL |= (SYSBLK_ACTCK_GDMA0_EN_Msk | SYSBLK_SLPCK_GDMA0_EN_Msk);
;;;1275   
;;;1276       /* Enable GDMA in DmaCfgReg*/
;;;1277       GDMA_BASE->DmaCfgReg = GDMA_StoreReg[0];
;;;1278   
;;;1279       /*----------clear pending all interrupts of GDMA channel-----------*/
;;;1280       GDMA_BASE->CLEAR_TFR = 0xff;
;;;1281       GDMA_BASE->CLEAR_BLOCK = 0xff;
;;;1282       GDMA_BASE->CLEAR_DST_TRAN = 0xff;
;;;1283       GDMA_BASE->CLEAR_SRC_TRAN = 0xff;
;;;1284       GDMA_BASE->CLEAR_ERR = 0xff;
;;;1285   
;;;1286       /*--------------------mask interrupt-------- -----------------*/
;;;1287       GDMA_BASE->MASK_TFR = (GDMA_StoreReg[2] | ((GDMA_StoreReg[2] & 0xff) << 8));
;;;1288       GDMA_BASE->MASK_BLOCK = (GDMA_StoreReg[3] | ((GDMA_StoreReg[3] & 0xff) << 8));
;;;1289       GDMA_BASE->MASK_SRC_TRAN = (GDMA_StoreReg[4] | ((GDMA_StoreReg[4] & 0xff) << 8));
;;;1290       GDMA_BASE->MASK_DST_TRAN = (GDMA_StoreReg[5] | ((GDMA_StoreReg[5] & 0xff) << 8));
;;;1291       GDMA_BASE->MASK_ERR = (GDMA_StoreReg[6] | ((GDMA_StoreReg[6] & 0xff) << 8));
;;;1292   
;;;1293   #if USE_GDMACHANNEL0_DLPS
;;;1294       GDMA_Channel0->SAR      = GDMAChannel0_StoreReg[0];
;;;1295       GDMA_Channel0->DAR      = GDMAChannel0_StoreReg[1];
;;;1296       GDMA_Channel0->CTL_LOW  = GDMAChannel0_StoreReg[2];
;;;1297       GDMA_Channel0->CTL_HIGH = GDMAChannel0_StoreReg[3];
;;;1298       GDMA_Channel0->CFG_LOW  = GDMAChannel0_StoreReg[4];
;;;1299       GDMA_Channel0->CFG_HIGH = GDMAChannel0_StoreReg[5];
;;;1300   #endif
;;;1301   #if USE_GDMACHANNEL1_DLPS
;;;1302       GDMA_Channel1->SAR      = GDMAChannel1_StoreReg[0];
;;;1303       GDMA_Channel1->DAR      = GDMAChannel1_StoreReg[1];
;;;1304       GDMA_Channel1->CTL_LOW  = GDMAChannel1_StoreReg[2];
;;;1305       GDMA_Channel1->CTL_HIGH = GDMAChannel1_StoreReg[3];
;;;1306       GDMA_Channel1->CFG_LOW  = GDMAChannel1_StoreReg[4];
;;;1307       GDMA_Channel1->CFG_HIGH = GDMAChannel1_StoreReg[5];
;;;1308   #endif
;;;1309   #if USE_GDMACHANNEL2_DLPS
;;;1310       GDMA_Channel2->SAR      = GDMAChannel2_StoreReg[0];
;;;1311       GDMA_Channel2->DAR      = GDMAChannel2_StoreReg[1];
;;;1312       GDMA_Channel2->CTL_LOW  = GDMAChannel2_StoreReg[2];
;;;1313       GDMA_Channel2->CTL_HIGH = GDMAChannel2_StoreReg[3];
;;;1314       GDMA_Channel2->CFG_LOW  = GDMAChannel2_StoreReg[4];
;;;1315       GDMA_Channel2->CFG_HIGH = GDMAChannel2_StoreReg[5];
;;;1316   #endif
;;;1317   #if USE_GDMACHANNEL3_DLPS
;;;1318       GDMA_Channel3->SAR      = GDMAChannel3_StoreReg[0];
;;;1319       GDMA_Channel3->DAR      = GDMAChannel3_StoreReg[1];
;;;1320       GDMA_Channel3->CTL_LOW  = GDMAChannel3_StoreReg[2];
;;;1321       GDMA_Channel3->CTL_HIGH = GDMAChannel3_StoreReg[3];
;;;1322       GDMA_Channel3->CFG_LOW  = GDMAChannel3_StoreReg[4];
;;;1323       GDMA_Channel3->CFG_HIGH = GDMAChannel3_StoreReg[5];
;;;1324   #endif
;;;1325   #if USE_GDMACHANNEL4_DLPS
;;;1326       GDMA_Channel4->SAR      = GDMAChannel4_StoreReg[0];
;;;1327       GDMA_Channel4->DAR      = GDMAChannel4_StoreReg[1];
;;;1328       GDMA_Channel4->CTL_LOW  = GDMAChannel4_StoreReg[2];
;;;1329       GDMA_Channel4->CTL_HIGH = GDMAChannel4_StoreReg[3];
;;;1330       GDMA_Channel4->CFG_LOW  = GDMAChannel4_StoreReg[4];
;;;1331       GDMA_Channel4->CFG_HIGH = GDMAChannel4_StoreReg[5];
;;;1332   #endif
;;;1333   #if USE_GDMACHANNEL5_DLPS
;;;1334       GDMA_Channel5->SAR      = GDMAChannel5_StoreReg[0];
;;;1335       GDMA_Channel5->DAR      = GDMAChannel5_StoreReg[1];
;;;1336       GDMA_Channel5->CTL_LOW  = GDMAChannel5_StoreReg[2];
;;;1337       GDMA_Channel5->CTL_HIGH = GDMAChannel5_StoreReg[3];
;;;1338       GDMA_Channel5->CFG_LOW  = GDMAChannel5_StoreReg[4];
;;;1339       GDMA_Channel5->CFG_HIGH = GDMAChannel5_StoreReg[5];
;;;1340   #endif
;;;1341   
;;;1342       /*----------clear pending all interrupts of GDMA channel before enable channel-----------*/
;;;1343       GDMA_BASE->CLEAR_TFR = 0x3f;
;;;1344       GDMA_BASE->CLEAR_BLOCK = 0x3f;
;;;1345       GDMA_BASE->CLEAR_DST_TRAN = 0x3f;
;;;1346       GDMA_BASE->CLEAR_SRC_TRAN = 0x3f;
;;;1347       GDMA_BASE->CLEAR_ERR = 0x3f;
;;;1348   
;;;1349       /* Enable the selected DMA Channelx */
;;;1350   //    GDMA_BASE->ChEnReg = GDMA_StoreReg[1];
;;;1351   }
;;;1352   #endif
;;;1353   
;;;1354   /********************************************** ********************************************************/
;;;1355   /**************************************** [LCD DLPS] ************************************************/
;;;1356   /*******************************************************************************************************/
;;;1357   /*******************************************************************************************************/
;;;1358   #if USE_LCD_DLPS
;;;1359   
;;;1360   uint32_t LCD_StoreReg[5];
;;;1361   
;;;1362   /**
;;;1363     * @brief  LCD enter dlps callback function(Save LCD register values when system enter DLPS)
;;;1364     * @param  None
;;;1365     * @retval None
;;;1366     */
;;;1367   __STATIC_INLINE void LCD_DLPS_Enter(void)
;;;1368   {
;;;1369       /* Enable LCD 8080 interface controller function */
;;;1370       PERIPH->PERI_FUNC0_EN |= BIT(25);
;;;1371       /* Enable LCD 8080 interface controller clock */
;;;1372       PERIPH->PERI_CLK_CTRL1 |= BIT(28) | BIT(29);
;;;1373   
;;;1374       LCD_StoreReg[0] = *((volatile uint32_t *)0x400002A8UL) & (0x03 << 28);
;;;1375       LCD_StoreReg[1] = LCD->IMR;
;;;1376       LCD_StoreReg[2] = LCD->CTRL0;
;;;1377       LCD_StoreReg[3] = LCD->CTRL1;
;;;1378       LCD_StoreReg[4] = LCD->CFG;
;;;1379   
;;;1380   }
;;;1381   
;;;1382   /**
;;;1383     * @brief  LCD exit dlps callback function(Resume LCD register values when system exit DLPS)
;;;1384     * @param  None
;;;1385     * @retval None
;;;1386     */
;;;1387   DATA_RAM_FUNCTION __STATIC_INLINE void LCD_DLPS_Exit(void)
;;;1388   {
;;;1389       /* Enable LCD 8080 interface controller function */
;;;1390       PERIPH->PERI_FUNC0_EN |= BIT(25);
;;;1391       /* Enable LCD 8080 interface controller clock */
;;;1392       PERIPH->PERI_CLK_CTRL1 |= BIT(28) | BIT(29);
;;;1393   
;;;1394       /* Restore Dedicated SDIO pin option */
;;;1395       *((volatile uint32_t *)0x400002A8UL) &= ~(0x03 << 28);
;;;1396       *((volatile uint32_t *)0x400002A8UL) |= LCD_StoreReg[0];
;;;1397   
;;;1398       /* Initialize LCD */
;;;1399   
;;;1400       LCD->IMR    = LCD_StoreReg[1];
;;;1401       LCD->CTRL1  = LCD_StoreReg[3];
;;;1402       LCD->CFG    = LCD_StoreReg[4];
;;;1403       LCD->CTRL0  = LCD_StoreReg[2];
;;;1404   }
;;;1405   #endif
;;;1406   
;;;1407   /********************************************** ********************************************************/
;;;1408   /**************************************** [I2S0 DLPS] **************************************************/
;;;1409   /*******************************************************************************************************/
;;;1410   /*******************************************************************************************************/
;;;1411   #if USE_I2S0_DLPS
;;;1412   
;;;1413   uint32_t I2S0_StoreReg[4];
;;;1414   
;;;1415   /**
;;;1416     * @brief  I2S0 enter dlps callback function(Save I2S0 register values when system enter DLPS)
;;;1417     * @param  None
;;;1418     * @retval None
;;;1419     */
;;;1420   __STATIC_INLINE void I2S0_DLPS_Enter(void)
;;;1421   {
;;;1422       PERIPH->PERI_BD_FUNC0_EN |= BIT(1) | BIT(5) | BIT(8);
;;;1423   
;;;1424       I2S0_StoreReg[0] = I2S0->BCLK_DIV;
;;;1425       I2S0_StoreReg[1] = I2S0->CTRL0;
;;;1426       I2S0_StoreReg[2] = I2S0->CTRL1;
;;;1427       I2S0_StoreReg[3] = I2S0->DMA_TRDLR;
;;;1428   }
;;;1429   
;;;1430   /**
;;;1431     * @brief  I2S0 exit dlps callback function(Resume I2S0 register values when system exit DLPS)
;;;1432     * @param  None
;;;1433     * @retval None
;;;1434     */
;;;1435   DATA_RAM_FUNCTION __STATIC_INLINE void I2S0_DLPS_Exit(void)
;;;1436   {
;;;1437       PERIPH->PERI_BD_FUNC0_EN |= BIT(1) | BIT(5) | BIT(8);
;;;1438   
;;;1439       /* Reset I2S0 module */
;;;1440       I2S0->CTRL0 |= 1 << 0;
;;;1441       I2S0->CTRL0 &= ~(1 << 0);
;;;1442   
;;;1443       /* Initialize I2S0 */
;;;1444       I2S0->BCLK_DIV  = I2S0_StoreReg[0];
;;;1445       I2S0->CTRL1     = I2S0_StoreReg[2];
;;;1446       I2S0->DMA_TRDLR = I2S0_StoreReg[3];
;;;1447       I2S0->CTRL0     = I2S0_StoreReg[1];
;;;1448   }
;;;1449   #endif
;;;1450   
;;;1451   /********************************************** ********************************************************/
;;;1452   /**************************************** [I2S1 DLPS] **************************************************/
;;;1453   /*******************************************************************************************************/
;;;1454   /*******************************************************************************************************/
;;;1455   #if USE_I2S1_DLPS
;;;1456   
;;;1457   uint32_t I2S1_StoreReg[4];
;;;1458   
;;;1459   /**
;;;1460     * @brief  I2S1 enter dlps callback function(Save I2S1 register values when system enter DLPS)
;;;1461     * @param  None
;;;1462     * @retval None
;;;1463     */
;;;1464   __STATIC_INLINE void I2S1_DLPS_Enter(void)
;;;1465   {
;;;1466       PERIPH->PERI_BD_FUNC0_EN |= BIT(2) | BIT(6) | BIT(8);
;;;1467   
;;;1468       I2S1_StoreReg[0] = I2S1->BCLK_DIV;
;;;1469       I2S1_StoreReg[1] = I2S1->CTRL0;
;;;1470       I2S1_StoreReg[2] = I2S1->CTRL1;
;;;1471       I2S1_StoreReg[3] = I2S1->DMA_TRDLR;
;;;1472   }
;;;1473   
;;;1474   /**
;;;1475     * @brief  I2S1 exit dlps callback function(Resume I2S1 register values when system exit DLPS)
;;;1476     * @param  None
;;;1477     * @retval None
;;;1478     */
;;;1479   DATA_RAM_FUNCTION __STATIC_INLINE void I2S1_DLPS_Exit(void)
;;;1480   {
;;;1481       PERIPH->PERI_BD_FUNC0_EN |= BIT(2) | BIT(6) | BIT(8);
;;;1482   
;;;1483       /* Reset I2S1 module */
;;;1484       I2S1->CTRL0 |= 1 << 0;
;;;1485       I2S1->CTRL0 &= ~(1 << 0);
;;;1486   
;;;1487       /* Initialize I2S1 */
;;;1488       I2S1->BCLK_DIV  = I2S1_StoreReg[0];
;;;1489       I2S1->CTRL1     = I2S1_StoreReg[2];
;;;1490       I2S1->DMA_TRDLR = I2S1_StoreReg[3];
;;;1491       I2S1->CTRL0     = I2S1_StoreReg[1];
;;;1492   }
;;;1493   #endif
;;;1494   
;;;1495   /********************************************** ********************************************************/
;;;1496   /**************************************** [CODEC DLPS] ************************************************/
;;;1497   /*******************************************************************************************************/
;;;1498   /*******************************************************************************************************/
;;;1499   #if USE_CODEC_DLPS
;;;1500   
;;;1501   uint32_t CODEC_StoreReg[7];
;;;1502   
;;;1503   /**
;;;1504     * @brief  CODEC enter dlps callback function(Save CODEC register values when system enter DLPS)
;;;1505     * @param  None
;;;1506     * @retval None
;;;1507     */
;;;1508   __STATIC_INLINE void CODEC_DLPS_Enter(void)
;;;1509   {
;;;1510       /* Enable codec function and clock */
;;;1511       PERIPH->PERI_BD_FUNC0_EN |= (1 << 0) | (1 << 4);
;;;1512   
;;;1513       CODEC_StoreReg[0] = CODEC->CR0;
;;;1514       CODEC_StoreReg[1] = CODEC->CR1;
;;;1515       CODEC_StoreReg[2] = CODEC->CR2;
;;;1516       CODEC_StoreReg[3] = CODEC->CLK_CTRL;
;;;1517       CODEC_StoreReg[4] = CODEC->I2S_CTRL;
;;;1518       CODEC_StoreReg[5] = CODEC->ADC_CTRL;
;;;1519       CODEC_StoreReg[6] = CODEC->DAC_CTRL;
;;;1520   }
;;;1521   
;;;1522   /**
;;;1523     * @brief  CODEC exit dlps callback function(Resume CODEC register values when system exit DLPS)
;;;1524     * @param  None
;;;1525     * @retval None
;;;1526     */
;;;1527   DATA_RAM_FUNCTION __STATIC_INLINE void CODEC_DLPS_Exit(void)
;;;1528   {
;;;1529       /* Enable codec function and clock */
;;;1530       PERIPH->PERI_BD_FUNC0_EN |= (1 << 0) | (1 << 4);
;;;1531   
;;;1532       /* Initialize CODEC */
;;;1533       if ((CODEC_StoreReg[3] & 0x900) == 0x900)
;;;1534       {
;;;1535           /* Configure AMIC parameters */
;;;1536           CODEC->CR0 = CODEC_StoreReg[0];
;;;1537           CODEC->CR1 = CODEC_StoreReg[1];
;;;1538           CODEC->CR2 = CODEC_StoreReg[2];
;;;1539       }
;;;1540   
;;;1541       /*  Reset audio digital IP */
;;;1542       CODEC->AUDIO_CTRL = 0;
;;;1543       CODEC->AUDIO_CTRL = 1;
;;;1544   
;;;1545       CODEC->CLK_CTRL = CODEC_StoreReg[3];
;;;1546       CODEC->I2S_CTRL = CODEC_StoreReg[4];
;;;1547       CODEC->ADC_CTRL = CODEC_StoreReg[5];
;;;1548       CODEC->DAC_CTRL = CODEC_StoreReg[6];
;;;1549   }
;;;1550   #endif
;;;1551   
;;;1552   /********************************************** ********************************************************/
;;;1553   /**************************************** [CODEC_EQ1 DLPS] ************************************************/
;;;1554   /*******************************************************************************************************/
;;;1555   /*******************************************************************************************************/
;;;1556   #if USE_CODEC_EQ1_DLPS
;;;1557   
;;;1558   uint32_t CODEC_EQ1_StoreReg[5];
;;;1559   
;;;1560   /**
;;;1561     * @brief  CODEC_EQ1 enter dlps callback function(Save CODEC_EQ1 register values when system enter DLPS)
;;;1562     * @param  None
;;;1563     * @retval None
;;;1564     */
;;;1565   __STATIC_INLINE void CODEC_EQ1_DLPS_Enter(void)
;;;1566   {
;;;1567       /* Enable codec function and clock */
;;;1568       PERIPH->PERI_BD_FUNC0_EN |= (1 << 0) | (1 << 4);
;;;1569   
;;;1570       CODEC_EQ1_StoreReg[0] = CODEC_EQ1->EQ_H0;
;;;1571       CODEC_EQ1_StoreReg[1] = CODEC_EQ1->EQ_B1;
;;;1572       CODEC_EQ1_StoreReg[2] = CODEC_EQ1->EQ_B2;
;;;1573       CODEC_EQ1_StoreReg[3] = CODEC_EQ1->EQ_A1;
;;;1574       CODEC_EQ1_StoreReg[4] = CODEC_EQ1->EQ_A2;
;;;1575   }
;;;1576   
;;;1577   /**
;;;1578     * @brief  CODEC_EQ1 exit dlps callback function(Resume CODEC_EQ1 register values when system exit DLPS)
;;;1579     * @param  None
;;;1580     * @retval None
;;;1581     */
;;;1582   DATA_RAM_FUNCTION __STATIC_INLINE void CODEC_EQ1_DLPS_Exit(void)
;;;1583   {
;;;1584       /* Enable codec function and clock */
;;;1585       PERIPH->PERI_BD_FUNC0_EN |= (1 << 0) | (1 << 4);
;;;1586   
;;;1587       CODEC_EQ1->EQ_H0 = CODEC_EQ1_StoreReg[0];
;;;1588       CODEC_EQ1->EQ_B1 = CODEC_EQ1_StoreReg[1];
;;;1589       CODEC_EQ1->EQ_B2 = CODEC_EQ1_StoreReg[2];
;;;1590       CODEC_EQ1->EQ_A1 = CODEC_EQ1_StoreReg[3];
;;;1591       CODEC_EQ1->EQ_A2 = CODEC_EQ1_StoreReg[4];
;;;1592   }
;;;1593   #endif
;;;1594   
;;;1595   /********************************************** ********************************************************/
;;;1596   /**************************************** [CODEC_EQ2 DLPS] ************************************************/
;;;1597   /*******************************************************************************************************/
;;;1598   /*******************************************************************************************************/
;;;1599   #if USE_CODEC_EQ2_DLPS
;;;1600   
;;;1601   uint32_t CODEC_EQ2_StoreReg[5];
;;;1602   
;;;1603   /**
;;;1604     * @brief  CODEC_EQ2 enter dlps callback function(Save CODEC_EQ2 register values when system enter DLPS)
;;;1605     * @param  None
;;;1606     * @retval None
;;;1607     */
;;;1608   __STATIC_INLINE void CODEC_EQ2_DLPS_Enter(void)
;;;1609   {
;;;1610       /* Enable codec function and clock */
;;;1611       PERIPH->PERI_BD_FUNC0_EN |= (1 << 0) | (1 << 4);
;;;1612   
;;;1613       CODEC_EQ2_StoreReg[0] = CODEC_EQ2->EQ_H0;
;;;1614       CODEC_EQ2_StoreReg[1] = CODEC_EQ2->EQ_B1;
;;;1615       CODEC_EQ2_StoreReg[2] = CODEC_EQ2->EQ_B2;
;;;1616       CODEC_EQ2_StoreReg[3] = CODEC_EQ2->EQ_A1;
;;;1617       CODEC_EQ2_StoreReg[4] = CODEC_EQ2->EQ_A2;
;;;1618   }
;;;1619   
;;;1620   /**
;;;1621     * @brief  CODEC_EQ2 exit dlps callback function(Resume CODEC_EQ2 register values when system exit DLPS)
;;;1622     * @param  None
;;;1623     * @retval None
;;;1624     */
;;;1625   DATA_RAM_FUNCTION __STATIC_INLINE void CODEC_EQ2_DLPS_Exit(void)
;;;1626   {
;;;1627       /* Enable codec function and clock */
;;;1628       PERIPH->PERI_BD_FUNC0_EN |= (1 << 0) | (1 << 4);
;;;1629   
;;;1630       CODEC_EQ2->EQ_H0 = CODEC_EQ2_StoreReg[0];
;;;1631       CODEC_EQ2->EQ_B1 = CODEC_EQ2_StoreReg[1];
;;;1632       CODEC_EQ2->EQ_B2 = CODEC_EQ2_StoreReg[2];
;;;1633       CODEC_EQ2->EQ_A1 = CODEC_EQ2_StoreReg[3];
;;;1634       CODEC_EQ2->EQ_A2 = CODEC_EQ2_StoreReg[4];
;;;1635   }
;;;1636   #endif
;;;1637   
;;;1638   /********************************************** ********************************************************/
;;;1639   /**************************************** [CODEC_EQ3 DLPS] ************************************************/
;;;1640   /*******************************************************************************************************/
;;;1641   /*******************************************************************************************************/
;;;1642   #if USE_CODEC_EQ3_DLPS
;;;1643   
;;;1644   uint32_t CODEC_EQ3_StoreReg[5];
;;;1645   
;;;1646   /**
;;;1647     * @brief  CODEC_EQ3 enter dlps callback function(Save CODEC_EQ3 register values when system enter DLPS)
;;;1648     * @param  None
;;;1649     * @retval None
;;;1650     */
;;;1651   __STATIC_INLINE void CODEC_EQ3_DLPS_Enter(void)
;;;1652   {
;;;1653       /* Enable codec function and clock */
;;;1654       PERIPH->PERI_BD_FUNC0_EN |= (1 << 0) | (1 << 4);
;;;1655   
;;;1656       CODEC_EQ3_StoreReg[0] = CODEC_EQ3->EQ_H0;
;;;1657       CODEC_EQ3_StoreReg[1] = CODEC_EQ3->EQ_B1;
;;;1658       CODEC_EQ3_StoreReg[2] = CODEC_EQ3->EQ_B2;
;;;1659       CODEC_EQ3_StoreReg[3] = CODEC_EQ3->EQ_A1;
;;;1660       CODEC_EQ3_StoreReg[4] = CODEC_EQ3->EQ_A2;
;;;1661   }
;;;1662   
;;;1663   /**
;;;1664     * @brief  CODEC_EQ3 exit dlps callback function(Resume CODEC_EQ3 register values when system exit DLPS)
;;;1665     * @param  None
;;;1666     * @retval None
;;;1667     */
;;;1668   DATA_RAM_FUNCTION __STATIC_INLINE void CODEC_EQ3_DLPS_Exit(void)
;;;1669   {
;;;1670       /* Enable codec function and clock */
;;;1671       PERIPH->PERI_BD_FUNC0_EN |= (1 << 0) | (1 << 4);
;;;1672   
;;;1673       CODEC_EQ3->EQ_H0 = CODEC_EQ3_StoreReg[0];
;;;1674       CODEC_EQ3->EQ_B1 = CODEC_EQ3_StoreReg[1];
;;;1675       CODEC_EQ3->EQ_B2 = CODEC_EQ3_StoreReg[2];
;;;1676       CODEC_EQ3->EQ_A1 = CODEC_EQ3_StoreReg[3];
;;;1677       CODEC_EQ3->EQ_A2 = CODEC_EQ3_StoreReg[4];
;;;1678   }
;;;1679   #endif
;;;1680   
;;;1681   /********************************************** ********************************************************/
;;;1682   /**************************************** [CODEC_EQ4 DLPS] ************************************************/
;;;1683   /*******************************************************************************************************/
;;;1684   /*******************************************************************************************************/
;;;1685   #if USE_CODEC_EQ4_DLPS
;;;1686   
;;;1687   uint32_t CODEC_EQ4_StoreReg[5];
;;;1688   
;;;1689   /**
;;;1690     * @brief  CODEC_EQ4 enter dlps callback function(Save CODEC_EQ4 register values when system enter DLPS)
;;;1691     * @param  None
;;;1692     * @retval None
;;;1693     */
;;;1694   __STATIC_INLINE void CODEC_EQ4_DLPS_Enter(void)
;;;1695   {
;;;1696       /* Enable codec function and clock */
;;;1697       PERIPH->PERI_BD_FUNC0_EN |= (1 << 0) | (1 << 4);
;;;1698   
;;;1699       CODEC_EQ4_StoreReg[0] = CODEC_EQ4->EQ_H0;
;;;1700       CODEC_EQ4_StoreReg[1] = CODEC_EQ4->EQ_B1;
;;;1701       CODEC_EQ4_StoreReg[2] = CODEC_EQ4->EQ_B2;
;;;1702       CODEC_EQ4_StoreReg[3] = CODEC_EQ4->EQ_A1;
;;;1703       CODEC_EQ4_StoreReg[4] = CODEC_EQ4->EQ_A2;
;;;1704   }
;;;1705   
;;;1706   /**
;;;1707     * @brief  CODEC_EQ4 exit dlps callback function(Resume CODEC_EQ4 register values when system exit DLPS)
;;;1708     * @param  None
;;;1709     * @retval None
;;;1710     */
;;;1711   DATA_RAM_FUNCTION __STATIC_INLINE void CODEC_EQ4_DLPS_Exit(void)
;;;1712   {
;;;1713       /* Enable codec function and clock */
;;;1714       PERIPH->PERI_BD_FUNC0_EN |= (1 << 0) | (1 << 4);
;;;1715   
;;;1716       CODEC_EQ4->EQ_H0 = CODEC_EQ4_StoreReg[0];
;;;1717       CODEC_EQ4->EQ_B1 = CODEC_EQ4_StoreReg[1];
;;;1718       CODEC_EQ4->EQ_B2 = CODEC_EQ4_StoreReg[2];
;;;1719       CODEC_EQ4->EQ_A1 = CODEC_EQ4_StoreReg[3];
;;;1720       CODEC_EQ4->EQ_A2 = CODEC_EQ4_StoreReg[4];
;;;1721   }
;;;1722   #endif
;;;1723   
;;;1724   /********************************************** ********************************************************/
;;;1725   /**************************************** [CODEC_EQ5 DLPS] ************************************************/
;;;1726   /*******************************************************************************************************/
;;;1727   /*******************************************************************************************************/
;;;1728   #if USE_CODEC_EQ5_DLPS
;;;1729   
;;;1730   uint32_t CODEC_EQ5_StoreReg[5];
;;;1731   
;;;1732   /**
;;;1733     * @brief  CODEC_EQ5 enter dlps callback function(Save CODEC_EQ5 register values when system enter DLPS)
;;;1734     * @param  None
;;;1735     * @retval None
;;;1736     */
;;;1737   __STATIC_INLINE void CODEC_EQ5_DLPS_Enter(void)
;;;1738   {
;;;1739       /* Enable codec function and clock */
;;;1740       PERIPH->PERI_BD_FUNC0_EN |= (1 << 0) | (1 << 4);
;;;1741   
;;;1742       CODEC_EQ5_StoreReg[0] = CODEC_EQ5->EQ_H0;
;;;1743       CODEC_EQ5_StoreReg[1] = CODEC_EQ5->EQ_B1;
;;;1744       CODEC_EQ5_StoreReg[2] = CODEC_EQ5->EQ_B2;
;;;1745       CODEC_EQ5_StoreReg[3] = CODEC_EQ5->EQ_A1;
;;;1746       CODEC_EQ5_StoreReg[4] = CODEC_EQ5->EQ_A2;
;;;1747   }
;;;1748   
;;;1749   /**
;;;1750     * @brief  CODEC_EQ5 exit dlps callback function(Resume CODEC_EQ5 register values when system exit DLPS)
;;;1751     * @param  None
;;;1752     * @retval None
;;;1753     */
;;;1754   DATA_RAM_FUNCTION __STATIC_INLINE void CODEC_EQ5_DLPS_Exit(void)
;;;1755   {
;;;1756       /* Enable codec function and clock */
;;;1757       PERIPH->PERI_BD_FUNC0_EN |= (1 << 0) | (1 << 4);
;;;1758   
;;;1759       CODEC_EQ5->EQ_H0 = CODEC_EQ5_StoreReg[0];
;;;1760       CODEC_EQ5->EQ_B1 = CODEC_EQ5_StoreReg[1];
;;;1761       CODEC_EQ5->EQ_B2 = CODEC_EQ5_StoreReg[2];
;;;1762       CODEC_EQ5->EQ_A1 = CODEC_EQ5_StoreReg[3];
;;;1763       CODEC_EQ5->EQ_A2 = CODEC_EQ5_StoreReg[4];
;;;1764   }
;;;1765   #endif
;;;1766   
;;;1767   /**
;;;1768     * @brief  Set Log and SWD pins to SW mode.
;;;1769     * @param  void.
;;;1770     * @retval void.
;;;1771     */
;;;1772   __STATIC_INLINE void Log_SWD_DLPS_Enter(void)
;;;1773   {
;;;1774       if (OTP->SWD_ENABLE)
        0x00208924:    1255        U.      ASRS     r5,r2,#9
        0x00208926:    6201        .b      STR      r1,[r0,#0x20]
        0x00208928:    f8950334    ..4.    LDRB     r0,[r5,#0x334]
        0x0020892c:    07c0        ..      LSLS     r0,r0,#31
        0x0020892e:    d00f        ..      BEQ      0x208950 ; DLPS_IO_EnterDlpsCb + 220
;;;1775       {
;;;1776           Pad_Config(P1_0, PAD_SW_MODE, PAD_IS_PWRON, PAD_PULL_DOWN, PAD_OUT_DISABLE, PAD_OUT_LOW);
        0x00208930:    9400        ..      STR      r4,[sp,#0]
        0x00208932:    2302        .#      MOVS     r3,#2
        0x00208934:    2201        ."      MOVS     r2,#1
        0x00208936:    2100        .!      MOVS     r1,#0
        0x00208938:    2008        .       MOVS     r0,#8
        0x0020893a:    9401        ..      STR      r4,[sp,#4]
        0x0020893c:    f608fd4e    ..N.    BL       Pad_Config ; 0x113dc
;;;1777           Pad_Config(P1_1, PAD_SW_MODE, PAD_IS_PWRON, PAD_PULL_DOWN, PAD_OUT_DISABLE, PAD_OUT_LOW);
        0x00208940:    9400        ..      STR      r4,[sp,#0]
        0x00208942:    2302        .#      MOVS     r3,#2
        0x00208944:    2201        ."      MOVS     r2,#1
        0x00208946:    2100        .!      MOVS     r1,#0
        0x00208948:    2009        .       MOVS     r0,#9
        0x0020894a:    9401        ..      STR      r4,[sp,#4]
        0x0020894c:    f608fd46    ..F.    BL       Pad_Config ; 0x113dc
;;;1778       }
;;;1779   
;;;1780       Pad_Config(OTP->logPin, PAD_SW_MODE, PAD_IS_PWRON, PAD_PULL_UP, PAD_OUT_DISABLE, PAD_OUT_LOW);
        0x00208950:    9400        ..      STR      r4,[sp,#0]
        0x00208952:    9401        ..      STR      r4,[sp,#4]
        0x00208954:    f8950398    ....    LDRB     r0,[r5,#0x398]
        0x00208958:    2301        .#      MOVS     r3,#1
        0x0020895a:    f000003f    ..?.    AND      r0,r0,#0x3f
        0x0020895e:    461a        .F      MOV      r2,r3
        0x00208960:    2100        .!      MOVS     r1,#0
        0x00208962:    f608fd3b    ..;.    BL       Pad_Config ; 0x113dc
;;;1781   
;;;1782   }
;;;1783   
;;;1784   /**
;;;1785     * @brief  Set Log and SWD pins to PINMUX mode.
;;;1786     * @param  void.
;;;1787     * @retval void.
;;;1788     */
;;;1789   DATA_RAM_FUNCTION __STATIC_INLINE void Log_SWD_DLPS_Exit(void)
;;;1790   {
;;;1791       Pad_Config(OTP->logPin, PAD_PINMUX_MODE, PAD_IS_PWRON, PAD_PULL_NONE, PAD_OUT_DISABLE, PAD_OUT_LOW);
;;;1792   
;;;1793       if (OTP->SWD_ENABLE)
;;;1794       {
;;;1795           Pad_Config(P1_0, PAD_PINMUX_MODE, PAD_IS_PWRON, PAD_PULL_UP, PAD_OUT_DISABLE, PAD_OUT_LOW);
;;;1796           Pad_Config(P1_1, PAD_PINMUX_MODE, PAD_IS_PWRON, PAD_PULL_UP, PAD_OUT_DISABLE, PAD_OUT_LOW);
;;;1797       }
;;;1798   }
;;;1799   
;;;1800   /********************************************** ********************************************************/
;;;1801   /*********************************** [USER Exit DLPS CALLBACK FUCN] *****************************************/
;;;1802   /*******************************************************************************************************/
;;;1803   /*******************************************************************************************************/
;;;1804   #if USE_USER_DEFINE_DLPS_EXIT_CB
;;;1805   
;;;1806   DLPS_IO_ExitDlpsCB User_IO_ExitDlpsCB = NULL;
;;;1807   
;;;1808   #endif /* USE_USER_DEFINE_DLPS_EXIT_CB */
;;;1809   
;;;1810   /********************************************** ********************************************************/
;;;1811   /*********************************** [USER Enter DLPS CALLBACK FUCN] *****************************************/
;;;1812   /*******************************************************************************************************/
;;;1813   /*******************************************************************************************************/
;;;1814   #if USE_USER_DEFINE_DLPS_ENTER_CB
;;;1815   
;;;1816   DLPS_IO_EnterDlpsCB User_IO_EnterDlpsCB = NULL;
;;;1817   
;;;1818   #endif /* USE_USER_DEFINE_DLPS_EXIT_CB */
;;;1819   
;;;1820   /********************************************** ********************************************************/
;;;1821   /*********************************** [Enter & Exit DLPS CALLBACK FUNC] *********************************/
;;;1822   /*******************************************************************************************************/
;;;1823   /*******************************************************************************************************/
;;;1824   #if USE_IO_DRIVER_DLPS
;;;1825   
;;;1826   /**
;;;1827     * @brief  IO enter dlps callback function
;;;1828     * @param  None
;;;1829     * @retval None
;;;1830     */
;;;1831   void DLPS_IO_EnterDlpsCb(void)
;;;1832   {
;;;1833       /* low stack do it instead */
;;;1834   //    Pad_ClearAllWakeupINT();
;;;1835   
;;;1836   //    DBG_DIRECT("DLPS_IO_EnterDlpsCb");
;;;1837       NVIC_DisableIRQ(System_IRQn);
;;;1838       CPU_DLPS_Enter();
;;;1839   
;;;1840       Pinmux_DLPS_Enter();
;;;1841   
;;;1842   #if USE_USER_DEFINE_DLPS_ENTER_CB
;;;1843       if (User_IO_EnterDlpsCB)
;;;1844       {
;;;1845           User_IO_EnterDlpsCB();
;;;1846       }
;;;1847   #endif
;;;1848   
;;;1849   #if USE_I2C0_DLPS
;;;1850       I2C0_DLPS_Enter();
;;;1851   #endif
;;;1852   
;;;1853   #if USE_I2C1_DLPS
;;;1854       I2C1_DLPS_Enter();
;;;1855   #endif
;;;1856   
;;;1857   #if USE_TIM_DLPS
;;;1858       TIM_DLPS_Enter();
;;;1859   #endif
;;;1860   
;;;1861   #if USE_QDECODER_DLPS
;;;1862       QuadDecoder_DLPS_Enter();
;;;1863   #endif
;;;1864   
;;;1865   #if USE_IR_DLPS
;;;1866       IR_DLPS_Enter();
;;;1867   #endif
;;;1868   
;;;1869   #if USE_UART_DLPS
;;;1870       UART_DLPS_Enter();
;;;1871   #endif
;;;1872   
;;;1873   #if USE_UART1_DLPS
;;;1874       UART1_DLPS_Enter();
;;;1875   #endif
;;;1876   
;;;1877   #if USE_UART2_DLPS
;;;1878       UART2_DLPS_Enter();
;;;1879   #endif
;;;1880   
;;;1881   #if USE_SPI0_DLPS
;;;1882       SPI0_DLPS_Enter();
;;;1883   #endif
;;;1884   
;;;1885   #if USE_SPI1_DLPS
;;;1886       SPI1_DLPS_Enter();
;;;1887   #endif
;;;1888   
;;;1889   #if USE_SPI2W_DLPS
;;;1890       SPI2W_DLPS_Enter();
;;;1891   #endif
;;;1892   
;;;1893   #if USE_KEYSCAN_DLPS
;;;1894       KeyScan_DLPS_Enter();
;;;1895   #endif
;;;1896   
;;;1897   #if USE_GPIO_DLPS
;;;1898       GPIO_DLPS_Enter();
;;;1899   #endif
;;;1900   
;;;1901   #if USE_ADC_DLPS
;;;1902       ADC_DLPS_Enter();
;;;1903   #endif
;;;1904   
;;;1905   #if USE_LCD_DLPS
;;;1906       LCD_DLPS_Enter();
;;;1907   #endif
;;;1908   
;;;1909   #if USE_I2S0_DLPS
;;;1910       I2S0_DLPS_Enter();
;;;1911   #endif
;;;1912   
;;;1913   #if USE_I2S1_DLPS
;;;1914       I2S1_DLPS_Enter();
;;;1915   #endif
;;;1916   
;;;1917   #if USE_CODEC_DLPS
;;;1918       CODEC_DLPS_Enter();
;;;1919   #endif
;;;1920   
;;;1921   #if USE_CODEC_EQ1_DLPS
;;;1922       CODEC_EQ1_DLPS_Enter();
;;;1923   #endif
;;;1924   
;;;1925   #if USE_CODEC_EQ2_DLPS
;;;1926       CODEC_EQ2_DLPS_Enter();
;;;1927   #endif
;;;1928   
;;;1929   #if USE_CODEC_EQ3_DLPS
;;;1930       CODEC_EQ3_DLPS_Enter();
;;;1931   #endif
;;;1932   
;;;1933   #if USE_CODEC_EQ4_DLPS
;;;1934       CODEC_EQ4_DLPS_Enter();
;;;1935   #endif
;;;1936   
;;;1937   #if USE_CODEC_EQ5_DLPS
;;;1938       CODEC_EQ5_DLPS_Enter();
;;;1939   #endif
;;;1940   
;;;1941   #if USE_GDMA_DLPS
;;;1942       GDMA_DLPS_Enter();
;;;1943   #endif
;;;1944   
;;;1945       Log_SWD_DLPS_Enter();
;;;1946   
;;;1947   }
        0x00208966:    bd7c        |.      POP      {r2-r6,pc}
    DLPS_IORegister
;;;1948   #endif  /* USE_IO_DRIVER_DLPS */
;;;1949   
;;;1950   #if USE_IO_DRIVER_DLPS
;;;1951   /**
;;;1952     * @brief  IO exit dlps callback function.
;;;1953     * @param  None
;;;1954     * @retval None
;;;1955     */
;;;1956   DATA_RAM_FUNCTION void DLPS_IO_ExitDlpsCb(void)
;;;1957   {
;;;1958   
;;;1959   //    DBG_BUFFER(TYPE_BUMBLEBEE3, SUBTYPE_FORMAT, MODULE_DLPS, LEVEL_INFO,
;;;1960   //               "DLPS_IO_ExitDlpsCb",0);
;;;1961   
;;;1962       Pinmux_DLPS_Exit();
;;;1963   
;;;1964       Log_SWD_DLPS_Exit();
;;;1965   
;;;1966   #if USE_I2C0_DLPS
;;;1967       I2C0_DLPS_Exit();
;;;1968   #endif
;;;1969   
;;;1970   #if USE_I2C1_DLPS
;;;1971       I2C1_DLPS_Exit();
;;;1972   #endif
;;;1973   
;;;1974   #if USE_TIM_DLPS
;;;1975       TIM_DLPS_Exit();
;;;1976   #endif
;;;1977   
;;;1978   #if USE_QDECODER_DLPS
;;;1979       QuadDecoder_DLPS_Exit();
;;;1980   #endif
;;;1981   
;;;1982   #if USE_IR_DLPS
;;;1983       IR_DLPS_Exit();
;;;1984   #endif
;;;1985   
;;;1986   #if USE_UART_DLPS
;;;1987       UART_DLPS_Exit();
;;;1988   #endif
;;;1989   
;;;1990   #if USE_UART1_DLPS
;;;1991       UART1_DLPS_Exit();
;;;1992   #endif
;;;1993   
;;;1994   #if USE_UART2_DLPS
;;;1995       UART2_DLPS_Exit();
;;;1996   #endif
;;;1997   
;;;1998   #if USE_SPI0_DLPS
;;;1999       SPI0_DLPS_Exit();
;;;2000   #endif
;;;2001   
;;;2002   #if USE_SPI1_DLPS
;;;2003       SPI1_DLPS_Exit();
;;;2004   #endif
;;;2005   
;;;2006   #if USE_SPI2W_DLPS
;;;2007       SPI2W_DLPS_Exit();
;;;2008   #endif
;;;2009   
;;;2010   #if USE_KEYSCAN_DLPS
;;;2011       KeyScan_DLPS_Exit();
;;;2012   #endif
;;;2013   
;;;2014   #if USE_GPIO_DLPS
;;;2015       GPIO_DLPS_Exit();
;;;2016   #endif
;;;2017   
;;;2018   #if USE_ADC_DLPS
;;;2019       ADC_DLPS_Exit();
;;;2020   #endif
;;;2021   
;;;2022   #if USE_LCD_DLPS
;;;2023       LCD_DLPS_Exit();
;;;2024   #endif
;;;2025   
;;;2026   #if USE_I2S0_DLPS
;;;2027       I2S0_DLPS_Exit();
;;;2028   #endif
;;;2029   
;;;2030   #if USE_I2S1_DLPS
;;;2031       I2S1_DLPS_Exit();
;;;2032   #endif
;;;2033   
;;;2034   #if USE_CODEC_DLPS
;;;2035       CODEC_DLPS_Exit();
;;;2036   #endif
;;;2037   
;;;2038   #if USE_CODEC_EQ1_DLPS
;;;2039       CODEC_EQ1_DLPS_Exit();
;;;2040   #endif
;;;2041   
;;;2042   #if USE_CODEC_EQ2_DLPS
;;;2043       CODEC_EQ2_DLPS_Exit();
;;;2044   #endif
;;;2045   
;;;2046   #if USE_CODEC_EQ3_DLPS
;;;2047       CODEC_EQ3_DLPS_Exit();
;;;2048   #endif
;;;2049   
;;;2050   #if USE_CODEC_EQ4_DLPS
;;;2051       CODEC_EQ4_DLPS_Exit();
;;;2052   #endif
;;;2053   
;;;2054   #if USE_CODEC_EQ5_DLPS
;;;2055       CODEC_EQ5_DLPS_Exit();
;;;2056   #endif
;;;2057   
;;;2058   #if USE_GDMA_DLPS
;;;2059       GDMA_DLPS_Exit();
;;;2060   #endif
;;;2061   
;;;2062   #if USE_USER_DEFINE_DLPS_EXIT_CB
;;;2063       if (User_IO_ExitDlpsCB)
;;;2064       {
;;;2065           User_IO_ExitDlpsCB();
;;;2066       }
;;;2067   #endif
;;;2068   
;;;2069       NVIC_InitTypeDef nvic_init_struct;
;;;2070       nvic_init_struct.NVIC_IRQChannel         = System_IRQn;
;;;2071       nvic_init_struct.NVIC_IRQChannelCmd      = (FunctionalState)ENABLE;
;;;2072       nvic_init_struct.NVIC_IRQChannelPriority = 3;
;;;2073       NVIC_Init(&nvic_init_struct); //Enable SYSTEM_ON Interrupt
;;;2074   
;;;2075       CPU_DLPS_Exit();
;;;2076   }
;;;2077   
;;;2078   /**
;;;2079     * @brief  register IO DLPS callback function
;;;2080     * @param  None
;;;2081     * @retval None
;;;2082     */
;;;2083   void DLPS_IORegister(void)
;;;2084   {
        0x00208968:    b510        ..      PUSH     {r4,lr}
;;;2085       dlps_hw_control_cb_reg(DLPS_IO_EnterDlpsCb, DLPS_ENTER);
        0x0020896a:    2100        .!      MOVS     r1,#0
        0x0020896c:    f2af00fb    ....    ADR      r0,{pc}-0xf7 ; 0x208875
        0x00208970:    f5fffebd    ....    BL       dlps_hw_control_cb_reg ; 0x86ee
;;;2086       dlps_hw_control_cb_reg(DLPS_IO_ExitDlpsCb, DLPS_EXIT4_BT_READY);
        0x00208974:    e8bd4010    ...@    POP      {r4,lr}
        0x00208978:    2104        .!      MOVS     r1,#4
        0x0020897a:    4805        .H      LDR      r0,[pc,#20] ; [0x208990] = 0x207d41
        0x0020897c:    f5ffbeb7    ....    B        dlps_hw_control_cb_reg ; 0x86ee
    $d
        0x00208980:    0020bba4    .. .    DCD    2145188
        0x00208984:    e000ed08    ....    DCD    3758157064
        0x00208988:    40006000    .`.@    DCD    1073766400
        0x0020898c:    40001000    ...@    DCD    1073745920
        0x00208990:    00207d41    A} .    DCD    2129217
    $t
    .text
    RCC_PeriphClockCmd
;;; .\..\..\..\src\mcu\peripheral\rtl876x_rcc.c
;;;66     {
        0x00208994:    b5f0        ..      PUSH     {r4-r7,lr}
        0x00208996:    f44f7790    O..w    MOV      r7,#0x120
        0x0020899a:    067b        {.      LSLS     r3,r7,#25
;;;67         /* Check the parameters */
;;;68         assert_param(IS_APB_PERIPH(APBPeriph));
;;;69         assert_param(IS_APB_PERIPH_CLOCK(APBPeriph_Clock));
;;;70         assert_param(IS_FUNCTIONAL_STATE(NewState));
;;;71     
;;;72         uint32_t apbRegOff = ((APBPeriph & (0x03 << 26)) >> 26);
        0x0020899c:    f3c06681    ...f    UBFX     r6,r0,#26,#2
;;;73         uint32_t clkRegOff = ((APBPeriph_Clock & (0x03 << 29)) >> 29);
        0x002089a0:    f3c17541    ..Au    UBFX     r5,r1,#29,#2
        0x002089a4:    f44f7ea0    O..~    MOV      lr,#0x140
        0x002089a8:    ea400401    @...    ORR      r4,r0,r1
;;;74     
;;;75         /*Open clock gating first*/
;;;76         if (NewState == ENABLE)
        0x002089ac:    2a01        .*      CMP      r2,#1
        0x002089ae:    d006        ..      BEQ      0x2089be ; RCC_PeriphClockCmd + 42
        0x002089b0:    42b9        .B      CMP      r1,r7
        0x002089b2:    d06c        l.      BEQ      0x208a8e ; RCC_PeriphClockCmd + 250
        0x002089b4:    4571        qE      CMP      r1,lr
        0x002089b6:    d06a        j.      BEQ      0x208a8e ; RCC_PeriphClockCmd + 250
        0x002089b8:    2910        .)      CMP      r1,#0x10
        0x002089ba:    d068        h.      BEQ      0x208a8e ; RCC_PeriphClockCmd + 250
        0x002089bc:    e049        I.      B        0x208a52 ; RCC_PeriphClockCmd + 190
;;;77         {
;;;78             if (APBPeriph_Clock == APBPeriph_KEYSCAN_CLOCK)
        0x002089be:    f1a14cc0    ...L    SUB      r12,r1,#0x60000000
        0x002089c2:    f1bc0c40    ..@.    SUBS     r12,r12,#0x40
        0x002089c6:    d016        ..      BEQ      0x2089f6 ; RCC_PeriphClockCmd + 98
        0x002089c8:    f1b14fc2    ...O    CMP      r1,#0x61000000
        0x002089cc:    d01e        ..      BEQ      0x208a0c ; RCC_PeriphClockCmd + 120
        0x002089ce:    f11c0c30    ..0.    ADDS     r12,r12,#0x30
        0x002089d2:    d003        ..      BEQ      0x2089dc ; RCC_PeriphClockCmd + 72
        0x002089d4:    f8dfc2f0    ....    LDR      r12,[pc,#752] ; [0x208cc8] = 0x60010000
        0x002089d8:    4561        aE      CMP      r1,r12
        0x002089da:    d124        $.      BNE      0x208a26 ; RCC_PeriphClockCmd + 146
        0x002089dc:    f8d3c20c    ....    LDR      r12,[r3,#0x20c]
        0x002089e0:    f04c6c80    L..l    ORR      r12,r12,#0x4000000
        0x002089e4:    f8c3c20c    ....    STR      r12,[r3,#0x20c]
        0x002089e8:    f8d3c20c    ....    LDR      r12,[r3,#0x20c]
        0x002089ec:    f04c6c00    L..l    ORR      r12,r12,#0x8000000
        0x002089f0:    f8c3c20c    ....    STR      r12,[r3,#0x20c]
        0x002089f4:    e027        '.      B        0x208a46 ; RCC_PeriphClockCmd + 178
;;;79             {
;;;80                 /*Open 5M clock source*/
;;;81                 SYSBLKCTRL->u_20C.RSVD_20C |= BIT26;
        0x002089f6:    f8d3c20c    ....    LDR      r12,[r3,#0x20c]
        0x002089fa:    f04c6c80    L..l    ORR      r12,r12,#0x4000000
        0x002089fe:    f8c3c20c    ....    STR      r12,[r3,#0x20c]
;;;82                 SYSBLKCTRL->u_20C.RSVD_20C |= BIT29;
        0x00208a02:    f8d3c20c    ....    LDR      r12,[r3,#0x20c]
        0x00208a06:    f04c5c00    L..\    ORR      r12,r12,#0x20000000
        0x00208a0a:    e7f1        ..      B        0x2089f0 ; RCC_PeriphClockCmd + 92
;;;83             }
;;;84             else if (APBPeriph_Clock == APBPeriph_ADC_CLOCK)
;;;85             {
;;;86                 /*Open 10M clock source*/
;;;87                 SYSBLKCTRL->u_20C.RSVD_20C |= BIT26;
        0x00208a0c:    f8d3420c    ...B    LDR      r4,[r3,#0x20c]
        0x00208a10:    f0446480    D..d    ORR      r4,r4,#0x4000000
        0x00208a14:    f8c3420c    ...B    STR      r4,[r3,#0x20c]
;;;88                 SYSBLKCTRL->u_20C.RSVD_20C |= BIT28;
        0x00208a18:    f8d3420c    ...B    LDR      r4,[r3,#0x20c]
        0x00208a1c:    f0445480    D..T    ORR      r4,r4,#0x10000000
        0x00208a20:    f8c3420c    ...B    STR      r4,[r3,#0x20c]
        0x00208a24:    e015        ..      B        0x208a52 ; RCC_PeriphClockCmd + 190
;;;89             }
;;;90             else if ((APBPeriph_Clock == APBPeriph_QDEC_CLOCK) || (APBPeriph_Clock == APBPeriph_SPI2W_CLOCK))
;;;91             {
;;;92                 /*Open 20M clock source*/
;;;93                 SYSBLKCTRL->u_20C.RSVD_20C |= BIT26;
;;;94                 SYSBLKCTRL->u_20C.RSVD_20C |= BIT27;
;;;95             }
;;;96             else if (APBPeriph_Clock == APBPeriph_TIMER_CLOCK)
        0x00208a26:    f8dfc2a4    ....    LDR      r12,[pc,#676] ; [0x208ccc] = 0x20004000
        0x00208a2a:    4561        aE      CMP      r1,r12
        0x00208a2c:    d10b        ..      BNE      0x208a46 ; RCC_PeriphClockCmd + 178
;;;97             {
;;;98                 /* Enable TIM0~1 fixed 40M */
;;;99                 CLK_SOURCE_REG_2 |= BIT9;
        0x00208a2e:    f8d3c360    ..`.    LDR      r12,[r3,#0x360]
        0x00208a32:    f44c7c00    L..|    ORR      r12,r12,#0x200
        0x00208a36:    f8c3c360    ..`.    STR      r12,[r3,#0x360]
;;;100                /* enable TIM2~7 ICG*/
;;;101                CLK_SOURCE_REG_0 |= BIT4;
        0x00208a3a:    f8d3c348    ..H.    LDR      r12,[r3,#0x348]
        0x00208a3e:    f04c0c10    L...    ORR      r12,r12,#0x10
        0x00208a42:    f8c3c348    ..H.    STR      r12,[r3,#0x348]
;;;102            }
;;;103        }
;;;104    
;;;105        /* Special register handle */
;;;106        if (NewState == ENABLE)
;;;107        {
;;;108            if ((APBPeriph_Clock == APBPeriph_I2S0_CLOCK) || ((APBPeriph_Clock == APBPeriph_I2S1_CLOCK)) ||
        0x00208a46:    42b9        .B      CMP      r1,r7
        0x00208a48:    d01d        ..      BEQ      0x208a86 ; RCC_PeriphClockCmd + 242
        0x00208a4a:    4571        qE      CMP      r1,lr
        0x00208a4c:    d01b        ..      BEQ      0x208a86 ; RCC_PeriphClockCmd + 242
;;;109                (APBPeriph_Clock == APBPeriph_CODEC_CLOCK))
        0x00208a4e:    2910        .)      CMP      r1,#0x10
        0x00208a50:    d019        ..      BEQ      0x208a86 ; RCC_PeriphClockCmd + 242
;;;110            {
;;;111                SYSBLKCTRL->u_220 |= APBPeriph | APBPeriph_Clock;
;;;112                return;
;;;113            }
;;;114        }
;;;115        else
;;;116        {
;;;117            if ((APBPeriph_Clock == APBPeriph_I2S0_CLOCK) || ((APBPeriph_Clock == APBPeriph_I2S1_CLOCK)) ||
;;;118                (APBPeriph_Clock == APBPeriph_CODEC_CLOCK))
;;;119            {
;;;120                SYSBLKCTRL->u_220 &= ~(APBPeriph | APBPeriph_Clock);
;;;121                return;
;;;122            }
;;;123        }
;;;124    
;;;125        /* clear flag */
;;;126        APBPeriph &= (~(0x03 << 26));
        0x00208a52:    f0206340     .@c    BIC      r3,r0,#0xc000000
;;;127        APBPeriph_Clock &= (~(0x03 << 29));
        0x00208a56:    f02140c0    !..@    BIC      r0,r1,#0x60000000
        0x00208a5a:    ea4f0186    O...    LSL      r1,r6,#2
        0x00208a5e:    f1014180    ...A    ADD      r1,r1,#0x40000000
;;;128    
;;;129        if (NewState == ENABLE)
        0x00208a62:    2a01        .*      CMP      r2,#1
        0x00208a64:    f8d12210    ..."    LDR      r2,[r1,#0x210]
        0x00208a68:    d017        ..      BEQ      0x208a9a ; RCC_PeriphClockCmd + 262
;;;130        {
;;;131            //enable peripheral
;;;132            *((uint32_t *)(&(SYSBLKCTRL->u_210.SOC_FUNC_EN)) + apbRegOff) |= APBPeriph;
;;;133            //enable peripheral clock
;;;134            *((uint32_t *)(&(SYSBLKCTRL->u_230.CLK_CTRL)) + clkRegOff - 1) |= APBPeriph_Clock;
;;;135            //enable peripheral clock in sleep mode
;;;136            *((uint32_t *)(&(SYSBLKCTRL->u_230.CLK_CTRL)) + clkRegOff - 1) |= (APBPeriph_Clock << 1);
;;;137        }
;;;138        else
;;;139        {
;;;140            //disable peripheral
;;;141            *((uint32_t *)(&(SYSBLKCTRL->u_210.SOC_FUNC_EN)) + apbRegOff) &= (~APBPeriph);
        0x00208a6a:    439a        .C      BICS     r2,r2,r3
;;;142            //disable peripheral clock
;;;143            *((uint32_t *)(&(SYSBLKCTRL->u_230.CLK_CTRL)) + clkRegOff - 1) &= (~APBPeriph_Clock);
        0x00208a6c:    f8c12210    ..."    STR      r2,[r1,#0x210]
        0x00208a70:    00a9        ..      LSLS     r1,r5,#2
        0x00208a72:    f1014180    ...A    ADD      r1,r1,#0x40000000
        0x00208a76:    f8d1222c    ..,"    LDR      r2,[r1,#0x22c]
        0x00208a7a:    4382        .C      BICS     r2,r2,r0
;;;144            //disable peripheral clock in sleep mode
;;;145            *((uint32_t *)(&(SYSBLKCTRL->u_230.CLK_CTRL)) + clkRegOff - 1) &= (~(APBPeriph_Clock << 1));
        0x00208a7c:    ea220040    ".@.    BIC      r0,r2,r0,LSL #1
        0x00208a80:    f8c1022c    ..,.    STR      r0,[r1,#0x22c]
;;;146        }
;;;147    
;;;148        return;
;;;149    }
        0x00208a84:    bdf0        ..      POP      {r4-r7,pc}
        0x00208a86:    f8d30220    .. .    LDR      r0,[r3,#0x220]
        0x00208a8a:    4320         C      ORRS     r0,r0,r4
        0x00208a8c:    e002        ..      B        0x208a94 ; RCC_PeriphClockCmd + 256
        0x00208a8e:    f8d30220    .. .    LDR      r0,[r3,#0x220]
        0x00208a92:    43a0        .C      BICS     r0,r0,r4
        0x00208a94:    f8c30220    .. .    STR      r0,[r3,#0x220]
        0x00208a98:    bdf0        ..      POP      {r4-r7,pc}
        0x00208a9a:    431a        .C      ORRS     r2,r2,r3
        0x00208a9c:    f8c12210    ..."    STR      r2,[r1,#0x210]
        0x00208aa0:    00a9        ..      LSLS     r1,r5,#2
        0x00208aa2:    f1014180    ...A    ADD      r1,r1,#0x40000000
        0x00208aa6:    f8d1222c    ..,"    LDR      r2,[r1,#0x22c]
        0x00208aaa:    4302        .C      ORRS     r2,r2,r0
        0x00208aac:    ea420040    B.@.    ORR      r0,r2,r0,LSL #1
        0x00208ab0:    e7e6        ..      B        0x208a80 ; RCC_PeriphClockCmd + 236
    RCC_SPIClkDivConfig
        0x00208ab2:    4b87        .K      LDR      r3,[pc,#540] ; [0x208cd0] = 0x40013000
        0x00208ab4:    f04f4280    O..B    MOV      r2,#0x40000000
        0x00208ab8:    4298        .B      CMP      r0,r3
;;;150    
;;;151    /**
;;;152      * @brief  SPI clock divider config.
;;;153      * @param  SPIx: where x can be 0 or 1 to select the SPI peripheral.
;;;154      * @param  ClockDiv: specifies the APB peripheral to gates its clock.
;;;155      *      this parameter can be one of the following values:
;;;156      *     @arg SPI_CLOCK_DIV_1
;;;157      *     @arg SPI_CLOCK_DIV_2
;;;158      *     @arg SPI_CLOCK_DIV_4
;;;159      *     @arg SPI_CLOCK_DIV_8
;;;160      * @retval None
;;;161      */
;;;162    void RCC_SPIClkDivConfig(SPI_TypeDef *SPIx, uint16_t ClockDiv)
;;;163    {
        0x00208aba:    d116        ..      BNE      0x208aea ; RCC_SPIClkDivConfig + 56
;;;164        assert_param(IS_SPI_DIV(ClockDiv));
;;;165    
;;;166        /* Config I2C clock divider */
;;;167        if (SPIx == SPI0)
;;;168        {
;;;169            /* disable clock first */
;;;170            SYSBLKCTRL->u_234.PERI_CLK_CTRL0 &= ~SYSBLK_ACTCK_SPI0_EN_Msk;
        0x00208abc:    f8d20234    ..4.    LDR      r0,[r2,#0x234]
        0x00208ac0:    f4203080     ..0    BIC      r0,r0,#0x10000
        0x00208ac4:    f8c20234    ..4.    STR      r0,[r2,#0x234]
;;;171            //platform_delay_us(1);
;;;172    
;;;173            CLK_SOURCE_REG_1 &= ~(0x03 << 19);
        0x00208ac8:    f8d2035c    ..\.    LDR      r0,[r2,#0x35c]
        0x00208acc:    f42010c0     ...    BIC      r0,r0,#0x180000
        0x00208ad0:    f8c2035c    ..\.    STR      r0,[r2,#0x35c]
;;;174            CLK_SOURCE_REG_1 |= (ClockDiv << 19);
        0x00208ad4:    f8d2035c    ..\.    LDR      r0,[r2,#0x35c]
        0x00208ad8:    ea4040c1    @..@    ORR      r0,r0,r1,LSL #19
        0x00208adc:    f8c2035c    ..\.    STR      r0,[r2,#0x35c]
;;;175    
;;;176            //platform_delay_us(1);
;;;177            SYSBLKCTRL->u_234.PERI_CLK_CTRL0 |= SYSBLK_ACTCK_SPI0_EN_Msk;
        0x00208ae0:    f8d20234    ..4.    LDR      r0,[r2,#0x234]
        0x00208ae4:    f4403080    @..0    ORR      r0,r0,#0x10000
        0x00208ae8:    e018        ..      B        0x208b1c ; RCC_SPIClkDivConfig + 106
;;;178        }
;;;179        else if (SPIx == SPI1)
        0x00208aea:    4b7a        zK      LDR      r3,[pc,#488] ; [0x208cd4] = 0x40013400
        0x00208aec:    4298        .B      CMP      r0,r3
        0x00208aee:    d117        ..      BNE      0x208b20 ; RCC_SPIClkDivConfig + 110
;;;180        {
;;;181            SYSBLKCTRL->u_234.PERI_CLK_CTRL0 &= ~SYSBLK_ACTCK_SPI1_EN_Msk;
        0x00208af0:    f8d20234    ..4.    LDR      r0,[r2,#0x234]
        0x00208af4:    f4202080     ..     BIC      r0,r0,#0x40000
        0x00208af8:    f8c20234    ..4.    STR      r0,[r2,#0x234]
;;;182            //platform_delay_us(1);
;;;183    
;;;184            CLK_SOURCE_REG_1 &= ~(0x03 << 21);
        0x00208afc:    f8d2035c    ..\.    LDR      r0,[r2,#0x35c]
        0x00208b00:    f42000c0     ...    BIC      r0,r0,#0x600000
        0x00208b04:    f8c2035c    ..\.    STR      r0,[r2,#0x35c]
;;;185            CLK_SOURCE_REG_1 |= (ClockDiv << 21);
        0x00208b08:    f8d2035c    ..\.    LDR      r0,[r2,#0x35c]
        0x00208b0c:    ea405041    @.AP    ORR      r0,r0,r1,LSL #21
        0x00208b10:    f8c2035c    ..\.    STR      r0,[r2,#0x35c]
;;;186    
;;;187            //platform_delay_us(1);
;;;188            SYSBLKCTRL->u_234.PERI_CLK_CTRL0 |= SYSBLK_ACTCK_SPI1_EN_Msk;
        0x00208b14:    f8d20234    ..4.    LDR      r0,[r2,#0x234]
        0x00208b18:    f4402080    @..     ORR      r0,r0,#0x40000
        0x00208b1c:    f8c20234    ..4.    STR      r0,[r2,#0x234]
;;;189        }
;;;190        return;
;;;191    }
        0x00208b20:    4770        pG      BX       lr
    RCC_I2CClkDivConfig
        0x00208b22:    4b6d        mK      LDR      r3,[pc,#436] ; [0x208cd8] = 0x40015000
        0x00208b24:    049a        ..      LSLS     r2,r3,#18
        0x00208b26:    4298        .B      CMP      r0,r3
;;;192    
;;;193    /**
;;;194      * @brief  I2C clock divider config.
;;;195      * @param  I2Cx: where x can be 0 or 1 to select the I2C peripheral.
;;;196      * @param  ClockDiv: specifies the APB peripheral to gates its clock.
;;;197      *      this parameter can be one of the following values:
;;;198      *     @arg I2C_CLOCK_DIV_1
;;;199      *     @arg I2C_CLOCK_DIV_2
;;;200      *     @arg I2C_CLOCK_DIV_4
;;;201      *     @arg I2C_CLOCK_DIV_8
;;;202      * @retval None
;;;203      */
;;;204    void RCC_I2CClkDivConfig(I2C_TypeDef *I2Cx, uint16_t ClockDiv)
;;;205    {
        0x00208b28:    d116        ..      BNE      0x208b58 ; RCC_I2CClkDivConfig + 54
;;;206        assert_param(IS_I2C_DIV(ClockDiv));
;;;207    
;;;208        /* Config I2C clock divider */
;;;209        if (I2Cx == I2C0)
;;;210        {
;;;211            /* disable clock first */
;;;212            SYSBLKCTRL->u_238.PERI_CLK_CTRL1 &= ~SYSBLK_ACTCK_I2C0_EN_Msk;
        0x00208b2a:    f8d20238    ..8.    LDR      r0,[r2,#0x238]
        0x00208b2e:    f0200001     ...    BIC      r0,r0,#1
        0x00208b32:    f8c20238    ..8.    STR      r0,[r2,#0x238]
;;;213            //platform_delay_us(1);
;;;214    
;;;215            CLK_SOURCE_REG_1 &= ~(0x03 << 15);
        0x00208b36:    f8d2035c    ..\.    LDR      r0,[r2,#0x35c]
        0x00208b3a:    f42030c0     ..0    BIC      r0,r0,#0x18000
        0x00208b3e:    f8c2035c    ..\.    STR      r0,[r2,#0x35c]
;;;216            CLK_SOURCE_REG_1 |= (ClockDiv << 15);
        0x00208b42:    f8d2035c    ..\.    LDR      r0,[r2,#0x35c]
        0x00208b46:    ea4030c1    @..0    ORR      r0,r0,r1,LSL #15
        0x00208b4a:    f8c2035c    ..\.    STR      r0,[r2,#0x35c]
;;;217    
;;;218            //platform_delay_us(1);
;;;219            SYSBLKCTRL->u_238.PERI_CLK_CTRL1 |= SYSBLK_ACTCK_I2C0_EN_Msk;
        0x00208b4e:    f8d20238    ..8.    LDR      r0,[r2,#0x238]
        0x00208b52:    f0400001    @...    ORR      r0,r0,#1
        0x00208b56:    e018        ..      B        0x208b8a ; RCC_I2CClkDivConfig + 104
;;;220        }
;;;221        else if (I2Cx == I2C1)
        0x00208b58:    4b60        `K      LDR      r3,[pc,#384] ; [0x208cdc] = 0x40015400
        0x00208b5a:    4298        .B      CMP      r0,r3
        0x00208b5c:    d117        ..      BNE      0x208b8e ; RCC_I2CClkDivConfig + 108
;;;222        {
;;;223            SYSBLKCTRL->u_238.PERI_CLK_CTRL1 &= ~SYSBLK_ACTCK_I2C1_EN_Msk;
        0x00208b5e:    f8d20238    ..8.    LDR      r0,[r2,#0x238]
        0x00208b62:    f0200004     ...    BIC      r0,r0,#4
        0x00208b66:    f8c20238    ..8.    STR      r0,[r2,#0x238]
;;;224            //platform_delay_us(1);
;;;225    
;;;226            CLK_SOURCE_REG_1 &= ~(0x03 << 17);
        0x00208b6a:    f8d2035c    ..\.    LDR      r0,[r2,#0x35c]
        0x00208b6e:    f42020c0     ..     BIC      r0,r0,#0x60000
        0x00208b72:    f8c2035c    ..\.    STR      r0,[r2,#0x35c]
;;;227            CLK_SOURCE_REG_1 |= (ClockDiv << 17);
        0x00208b76:    f8d2035c    ..\.    LDR      r0,[r2,#0x35c]
        0x00208b7a:    ea404041    @.A@    ORR      r0,r0,r1,LSL #17
        0x00208b7e:    f8c2035c    ..\.    STR      r0,[r2,#0x35c]
;;;228    
;;;229            //platform_delay_us(1);
;;;230            SYSBLKCTRL->u_238.PERI_CLK_CTRL1 |= SYSBLK_ACTCK_I2C1_EN_Msk;
        0x00208b82:    f8d20238    ..8.    LDR      r0,[r2,#0x238]
        0x00208b86:    f0400004    @...    ORR      r0,r0,#4
        0x00208b8a:    f8c20238    ..8.    STR      r0,[r2,#0x238]
;;;231        }
;;;232    
;;;233        return;
;;;234    }
        0x00208b8e:    4770        pG      BX       lr
    RCC_UARTClkDivConfig
;;;235    
;;;236    /**
;;;237      * @brief  UART clock divider config.
;;;238      * @param  UARTx: selected UART peripheral.
;;;239      * @param  ClockDiv: specifies the APB peripheral to gates its clock.
;;;240      *      this parameter can be one of the following values:
;;;241      *     @arg UART_CLOCK_DIV_1
;;;242      *     @arg UART_CLOCK_DIV_2
;;;243      *     @arg UART_CLOCK_DIV_4
;;;244      *     @arg UART_CLOCK_DIV_16
;;;245      * @retval None
;;;246      */
;;;247    void RCC_UARTClkDivConfig(UART_TypeDef *UARTx, uint16_t ClockDiv)
;;;248    {
;;;249        assert_param(IS_UART_DIV(ClockDiv));
;;;250    
;;;251        /* Config UART clock divider */
;;;252        if (UARTx == UART)
        0x00208b90:    4b53        SK      LDR      r3,[pc,#332] ; [0x208ce0] = 0x40012000
        0x00208b92:    045a        Z.      LSLS     r2,r3,#17
        0x00208b94:    4298        .B      CMP      r0,r3
;;; .\..\..\..\src\mcu\peripheral\rtl876x_rcc.c (248)
        0x00208b96:    d118        ..      BNE      0x208bca ; RCC_UARTClkDivConfig + 58
;;;249        assert_param(IS_UART_DIV(ClockDiv));
;;;250    
;;;251        /* Config UART clock divider */
;;;252        if (UARTx == UART)
;;;253        {
;;;254            /* disable clock first */
;;;255            SYSBLKCTRL->u_234.PERI_CLK_CTRL0 &= ~SYSBLK_ACTCK_UART0DATA_EN_Msk;
        0x00208b98:    f8d20234    ..4.    LDR      r0,[r2,#0x234]
        0x00208b9c:    f0200001     ...    BIC      r0,r0,#1
        0x00208ba0:    f8c20234    ..4.    STR      r0,[r2,#0x234]
;;;256            //platform_delay_us(1);
;;;257    
;;;258            CLK_SOURCE_REG_1 &= ~(0x03 << 9);
        0x00208ba4:    f8d2035c    ..\.    LDR      r0,[r2,#0x35c]
        0x00208ba8:    f42060c0     ..`    BIC      r0,r0,#0x600
        0x00208bac:    f8c2035c    ..\.    STR      r0,[r2,#0x35c]
;;;259            CLK_SOURCE_REG_1 |= (ClockDiv << 9);
        0x00208bb0:    f8d2035c    ..\.    LDR      r0,[r2,#0x35c]
        0x00208bb4:    ea402041    @.A     ORR      r0,r0,r1,LSL #9
        0x00208bb8:    f8c2035c    ..\.    STR      r0,[r2,#0x35c]
;;;260    
;;;261            //platform_delay_us(1);
;;;262            SYSBLKCTRL->u_234.PERI_CLK_CTRL0 |= SYSBLK_ACTCK_UART0DATA_EN_Msk;
        0x00208bbc:    f8d20234    ..4.    LDR      r0,[r2,#0x234]
        0x00208bc0:    f0400001    @...    ORR      r0,r0,#1
        0x00208bc4:    f8c20234    ..4.    STR      r0,[r2,#0x234]
        0x00208bc8:    4770        pG      BX       lr
;;;263        }
;;;264        else if (UARTx == UART1)
        0x00208bca:    4b46        FK      LDR      r3,[pc,#280] ; [0x208ce4] = 0x40011000
        0x00208bcc:    4298        .B      CMP      r0,r3
        0x00208bce:    d1fb        ..      BNE      0x208bc8 ; RCC_UARTClkDivConfig + 56
;;;265        {
;;;266            SYSBLKCTRL->u_230.CLK_CTRL &= ~SYSBLK_ACTCK_LOGUART_EN_Msk;
        0x00208bd0:    f8d20230    ..0.    LDR      r0,[r2,#0x230]
        0x00208bd4:    f4205080     ..P    BIC      r0,r0,#0x1000
        0x00208bd8:    f8c20230    ..0.    STR      r0,[r2,#0x230]
;;;267            //platform_delay_us(1);
;;;268    
;;;269            CLK_SOURCE_REG_1 &= ~(0x03 << 11);
        0x00208bdc:    f8d2035c    ..\.    LDR      r0,[r2,#0x35c]
        0x00208be0:    f42050c0     ..P    BIC      r0,r0,#0x1800
        0x00208be4:    f8c2035c    ..\.    STR      r0,[r2,#0x35c]
;;;270            CLK_SOURCE_REG_1 |= (ClockDiv << 11);
        0x00208be8:    f8d2035c    ..\.    LDR      r0,[r2,#0x35c]
        0x00208bec:    ea4020c1    @..     ORR      r0,r0,r1,LSL #11
        0x00208bf0:    f8c2035c    ..\.    STR      r0,[r2,#0x35c]
;;;271    
;;;272            //platform_delay_us(1);
;;;273            SYSBLKCTRL->u_230.CLK_CTRL |= SYSBLK_ACTCK_LOGUART_EN_Msk;
        0x00208bf4:    f8d20230    ..0.    LDR      r0,[r2,#0x230]
        0x00208bf8:    f4405080    @..P    ORR      r0,r0,#0x1000
        0x00208bfc:    f8c20230    ..0.    STR      r0,[r2,#0x230]
;;;274        }
;;;275    
;;;276        return;
;;;277    }
        0x00208c00:    4770        pG      BX       lr
    RCC_PeriClockConfig
;;;278    
;;;279    /**
;;;280      * @brief  Enables or disables the APB peripheral clock.
;;;281      * @param  APBPeriph_Clock: specifies the APB peripheral clock config.
;;;282      *      this parameter can be one of the following values(must be the same with APBPeriph):
;;;283      *     @arg APBPeriph_TIMER_CLOCK
;;;284      *     @arg APBPeriph_GDMA_CLOCK
;;;285      *     @arg APBPeriph_SPI2W_CLOCK
;;;286      *     @arg APBPeriph_KEYSCAN_CLOCK
;;;287      *     @arg APBPeriph_QDEC_CLOCK
;;;288      *     @arg APBPeriph_I2C1_CLOCK
;;;289      *     @arg APBPeriph_I2C0_CLOCK
;;;290      *     @arg APBPeriph_IR_CLOCK
;;;291      *     @arg APBPeriph_SPI1_CLOCK
;;;292      *     @arg APBPeriph_SPI0_CLOCK
;;;293      *     @arg APBPeriph_UART0_CLOCK
;;;294      *     @arg APBPeriph_UART1_CLOCK
;;;295      *     @arg APBPeriph_UART2_CLOCK
;;;296      *     @arg APBPeriph_GPIO_CLOCK
;;;297      *     @arg APBPeriph_ADC_CLOCK
;;;298      *     @arg APBPeriph_I2S0_CLOCK
;;;299      *     @arg APBPeriph_I2S1_CLOCK
;;;300      *     @arg APBPeriph_CODEC_CLOCK
;;;301      * @param  NewState: new state of the specified peripheral clock.
;;;302      *   This parameter can be: ENABLE or DISABLE.
;;;303      * @retval None
;;;304      */
;;;305    void RCC_PeriClockConfig(uint32_t APBPeriph_Clock, FunctionalState NewState)
;;;306    {
        0x00208c02:    b530        0.      PUSH     {r4,r5,lr}
        0x00208c04:    f44f74a0    O..t    MOV      r4,#0x140
        0x00208c08:    0623        #.      LSLS     r3,r4,#24
        0x00208c0a:    f3c07241    ..Ar    UBFX     r2,r0,#29,#2
        0x00208c0e:    f44f7590    O..u    MOV      r5,#0x120
        0x00208c12:    2901        .)      CMP      r1,#1
        0x00208c14:    d006        ..      BEQ      0x208c24 ; RCC_PeriClockConfig + 34
        0x00208c16:    42a8        .B      CMP      r0,r5
        0x00208c18:    d01e        ..      BEQ      0x208c58 ; RCC_PeriClockConfig + 86
        0x00208c1a:    42a0        .B      CMP      r0,r4
        0x00208c1c:    d01c        ..      BEQ      0x208c58 ; RCC_PeriClockConfig + 86
        0x00208c1e:    2810        .(      CMP      r0,#0x10
        0x00208c20:    d01a        ..      BEQ      0x208c58 ; RCC_PeriClockConfig + 86
        0x00208c22:    e005        ..      B        0x208c30 ; RCC_PeriClockConfig + 46
;;;307        /* Check the parameters */
;;;308        assert_param(IS_APB_PERIPH_CLOCK(APBPeriph_Clock));
;;;309        assert_param(IS_FUNCTIONAL_STATE(NewState));
;;;310    
;;;311        uint32_t clkRegOff = ((APBPeriph_Clock & (0x03 << 29)) >> 29);
;;;312    
;;;313        /* Special register handle */
;;;314        if (NewState == ENABLE)
;;;315        {
;;;316            if ((APBPeriph_Clock == APBPeriph_I2S0_CLOCK) || ((APBPeriph_Clock == APBPeriph_I2S1_CLOCK)) ||
        0x00208c24:    42a8        .B      CMP      r0,r5
        0x00208c26:    d013        ..      BEQ      0x208c50 ; RCC_PeriClockConfig + 78
        0x00208c28:    42a0        .B      CMP      r0,r4
        0x00208c2a:    d011        ..      BEQ      0x208c50 ; RCC_PeriClockConfig + 78
;;;317                (APBPeriph_Clock == APBPeriph_CODEC_CLOCK))
        0x00208c2c:    2810        .(      CMP      r0,#0x10
        0x00208c2e:    d00f        ..      BEQ      0x208c50 ; RCC_PeriClockConfig + 78
        0x00208c30:    2901        .)      CMP      r1,#1
        0x00208c32:    ea4f0182    O...    LSL      r1,r2,#2
        0x00208c36:    f1014180    ...A    ADD      r1,r1,#0x40000000
        0x00208c3a:    f02040c0     ..@    BIC      r0,r0,#0x60000000
        0x00208c3e:    f8d1222c    ..,"    LDR      r2,[r1,#0x22c]
        0x00208c42:    d00f        ..      BEQ      0x208c64 ; RCC_PeriClockConfig + 98
        0x00208c44:    4382        .C      BICS     r2,r2,r0
        0x00208c46:    ea220040    ".@.    BIC      r0,r2,r0,LSL #1
        0x00208c4a:    f8c1022c    ..,.    STR      r0,[r1,#0x22c]
        0x00208c4e:    bd30        0.      POP      {r4,r5,pc}
;;;318            {
;;;319                SYSBLKCTRL->u_220 |= APBPeriph_Clock;
        0x00208c50:    f8d31220    .. .    LDR      r1,[r3,#0x220]
        0x00208c54:    4301        .C      ORRS     r1,r1,r0
;;;320                return;
        0x00208c56:    e002        ..      B        0x208c5e ; RCC_PeriClockConfig + 92
;;;321            }
;;;322        }
;;;323        else
;;;324        {
;;;325            if ((APBPeriph_Clock == APBPeriph_I2S0_CLOCK) || ((APBPeriph_Clock == APBPeriph_I2S1_CLOCK)) ||
;;;326                (APBPeriph_Clock == APBPeriph_CODEC_CLOCK))
;;;327            {
;;;328                SYSBLKCTRL->u_220 &= ~(APBPeriph_Clock);
        0x00208c58:    f8d31220    .. .    LDR      r1,[r3,#0x220]
        0x00208c5c:    4381        .C      BICS     r1,r1,r0
        0x00208c5e:    f8c31220    .. .    STR      r1,[r3,#0x220]
        0x00208c62:    bd30        0.      POP      {r4,r5,pc}
;;;329                return;
;;;330            }
;;;331        }
;;;332    
;;;333        APBPeriph_Clock &= (~(0x03 << 29));
;;;334    
;;;335        if (NewState == ENABLE)
;;;336        {
;;;337            //enable peripheral clock
;;;338            *((uint32_t *)(&(SYSBLKCTRL->u_230.CLK_CTRL)) + clkRegOff - 1) |= APBPeriph_Clock;
        0x00208c64:    4302        .C      ORRS     r2,r2,r0
;;;339            //enable peripheral clock in sleep mode
;;;340            *((uint32_t *)(&(SYSBLKCTRL->u_230.CLK_CTRL)) + clkRegOff - 1) |= (APBPeriph_Clock << 1);
        0x00208c66:    ea420040    B.@.    ORR      r0,r2,r0,LSL #1
        0x00208c6a:    e7ee        ..      B        0x208c4a ; RCC_PeriClockConfig + 72
    RCC_PeriFunctionConfig
;;;341        }
;;;342        else
;;;343        {
;;;344            //disable peripheral clock
;;;345            *((uint32_t *)(&(SYSBLKCTRL->u_230.CLK_CTRL)) + clkRegOff - 1) &= (~APBPeriph_Clock);
;;;346            //disable peripheral clock in sleep mode
;;;347            *((uint32_t *)(&(SYSBLKCTRL->u_230.CLK_CTRL)) + clkRegOff - 1) &= (~(APBPeriph_Clock << 1));
;;;348        }
;;;349    
;;;350        return;
;;;351    }
;;;352    
;;;353    /**
;;;354      * @brief  Enables or disables the APB peripheral clock.
;;;355      * @param  APBPeriph: specifies the APB peripheral to gates its clock.
;;;356      *      this parameter can be one of the following values:
;;;357      *     @arg APBPeriph_TIMER
;;;358      *     @arg APBPeriph_GDMA
;;;359      *     @arg APBPeriph_LCD
;;;360      *     @arg APBPeriph_SPI2W
;;;361      *     @arg APBPeriph_KEYSCAN
;;;362      *     @arg APBPeriph_QDEC
;;;363      *     @arg APBPeriph_I2C1
;;;364      *     @arg APBPeriph_I2C0
;;;365      *     @arg APBPeriph_IR
;;;366      *     @arg APBPeriph_SPI1
;;;367      *     @arg APBPeriph_SPI0
;;;368      *     @arg APBPeriph_UART0
;;;369      *     @arg APBPeriph_UART1
;;;370      *     @arg APBPeriph_UART2
;;;371      *     @arg APBPeriph_GPIO
;;;372      *     @arg APBPeriph_ADC
;;;373      *     @arg APBPeriph_I2S0
;;;374      *     @arg APBPeriph_I2S1
;;;375      *     @arg APBPeriph_CODEC
;;;376      * @param  NewState: new state of the specified peripheral clock.
;;;377      *   This parameter can be: ENABLE or DISABLE.
;;;378      * @retval None
;;;379      */
;;;380    void RCC_PeriFunctionConfig(uint32_t APBPeriph, FunctionalState NewState)
;;;381    {
;;;382        /* Check the parameters */
;;;383        assert_param(IS_APB_PERIPH(APBPeriph));
;;;384        assert_param(IS_FUNCTIONAL_STATE(NewState));
;;;385    
;;;386        uint32_t apbRegOff = ((APBPeriph & (0x03 << 26)) >> 26);
        0x00208c6c:    f3c06281    ...b    UBFX     r2,r0,#26,#2
        0x00208c70:    f04f4380    O..C    MOV      r3,#0x40000000
        0x00208c74:    2901        .)      CMP      r1,#1
;;; .\..\..\..\src\mcu\peripheral\rtl876x_rcc.c (381)
        0x00208c76:    d006        ..      BEQ      0x208c86 ; RCC_PeriFunctionConfig + 26
        0x00208c78:    2802        .(      CMP      r0,#2
        0x00208c7a:    d01c        ..      BEQ      0x208cb6 ; RCC_PeriFunctionConfig + 74
        0x00208c7c:    2804        .(      CMP      r0,#4
        0x00208c7e:    d01a        ..      BEQ      0x208cb6 ; RCC_PeriFunctionConfig + 74
        0x00208c80:    2801        .(      CMP      r0,#1
        0x00208c82:    d018        ..      BEQ      0x208cb6 ; RCC_PeriFunctionConfig + 74
        0x00208c84:    e005        ..      B        0x208c92 ; RCC_PeriFunctionConfig + 38
;;;382        /* Check the parameters */
;;;383        assert_param(IS_APB_PERIPH(APBPeriph));
;;;384        assert_param(IS_FUNCTIONAL_STATE(NewState));
;;;385    
;;;386        uint32_t apbRegOff = ((APBPeriph & (0x03 << 26)) >> 26);
;;;387    
;;;388        /* Special register handle */
;;;389        if (NewState == ENABLE)
;;;390        {
;;;391            if ((APBPeriph == APBPeriph_I2S0) || ((APBPeriph == APBPeriph_I2S1)) ||
        0x00208c86:    2802        .(      CMP      r0,#2
        0x00208c88:    d011        ..      BEQ      0x208cae ; RCC_PeriFunctionConfig + 66
        0x00208c8a:    2804        .(      CMP      r0,#4
        0x00208c8c:    d00f        ..      BEQ      0x208cae ; RCC_PeriFunctionConfig + 66
;;;392                (APBPeriph == APBPeriph_CODEC))
        0x00208c8e:    2801        .(      CMP      r0,#1
        0x00208c90:    d00d        ..      BEQ      0x208cae ; RCC_PeriFunctionConfig + 66
        0x00208c92:    2901        .)      CMP      r1,#1
        0x00208c94:    ea4f0182    O...    LSL      r1,r2,#2
        0x00208c98:    f1014180    ...A    ADD      r1,r1,#0x40000000
        0x00208c9c:    f0206040     .@`    BIC      r0,r0,#0xc000000
        0x00208ca0:    f8d12210    ..."    LDR      r2,[r1,#0x210]
        0x00208ca4:    d00d        ..      BEQ      0x208cc2 ; RCC_PeriFunctionConfig + 86
        0x00208ca6:    4382        .C      BICS     r2,r2,r0
        0x00208ca8:    f8c12210    ..."    STR      r2,[r1,#0x210]
        0x00208cac:    4770        pG      BX       lr
;;;393            {
;;;394                SYSBLKCTRL->u_220 |= APBPeriph;
        0x00208cae:    f8d31220    .. .    LDR      r1,[r3,#0x220]
        0x00208cb2:    4301        .C      ORRS     r1,r1,r0
;;;395                return;
        0x00208cb4:    e002        ..      B        0x208cbc ; RCC_PeriFunctionConfig + 80
;;;396            }
;;;397        }
;;;398        else
;;;399        {
;;;400            if ((APBPeriph == APBPeriph_I2S0) || ((APBPeriph == APBPeriph_I2S1)) ||
;;;401                (APBPeriph == APBPeriph_CODEC))
;;;402            {
;;;403                SYSBLKCTRL->u_220 &= ~(APBPeriph);
        0x00208cb6:    f8d31220    .. .    LDR      r1,[r3,#0x220]
        0x00208cba:    4381        .C      BICS     r1,r1,r0
        0x00208cbc:    f8c31220    .. .    STR      r1,[r3,#0x220]
        0x00208cc0:    4770        pG      BX       lr
;;;404                return;
;;;405            }
;;;406        }
;;;407    
;;;408        /* clear flag */
;;;409        APBPeriph &= (~(0x03 << 26));
;;;410    
;;;411        if (NewState == ENABLE)
;;;412        {
;;;413            //enable peripheral
;;;414            *((uint32_t *)(&(SYSBLKCTRL->u_210.SOC_FUNC_EN)) + apbRegOff) |= APBPeriph;
        0x00208cc2:    4302        .C      ORRS     r2,r2,r0
        0x00208cc4:    e7f0        ..      B        0x208ca8 ; RCC_PeriFunctionConfig + 60
    $d
        0x00208cc6:    0000        ..      DCW    0
        0x00208cc8:    60010000    ...`    DCD    1610678272
        0x00208ccc:    20004000    .@.     DCD    536887296
        0x00208cd0:    40013000    .0.@    DCD    1073819648
        0x00208cd4:    40013400    .4.@    DCD    1073820672
        0x00208cd8:    40015000    .P.@    DCD    1073827840
        0x00208cdc:    40015400    .T.@    DCD    1073828864
        0x00208ce0:    40012000    . .@    DCD    1073815552
        0x00208ce4:    40011000    ...@    DCD    1073811456
    $t
    .text
    GPIO_DeInit
;;; .\..\..\..\src\mcu\peripheral\rtl876x_gpio.c
;;;33         RCC_PeriphClockCmd(APBPeriph_GPIO, APBPeriph_GPIO_CLOCK, DISABLE);
        0x00208ce8:    2200        ."      MOVS     r2,#0
        0x00208cea:    f04f5104    O..Q    MOV      r1,#0x21000000
        0x00208cee:    485d        ]H      LDR      r0,[pc,#372] ; [0x208e64] = 0xc000100
        0x00208cf0:    f7ffbe50    ..P.    B.W      RCC_PeriphClockCmd ; 0x208994
    GPIO_Init
;;;34     }
;;;35     
;;;36     /**
;;;37       * @brief  Initializes the GPIO peripheral according to the specified
;;;38       *         parameters in the GPIO_InitStruct.
;;;39       * @param  GPIO_InitStruct: pointer to a GPIO_InitTypeDef structure that
;;;40       *         contains the configuration information for the specified GPIO peripheral.
;;;41       * @retval None
;;;42       */
;;;43     void GPIO_Init(GPIO_InitTypeDef *GPIO_InitStruct)
;;;44     {
;;;45         /* Check the parameters */
;;;46         assert_param(IS_GPIO_PIN(GPIO_InitStruct->GPIO_Pin));
;;;47         assert_param(IS_GPIO_MODE(GPIO_InitStruct->GPIO_Mode));
;;;48         assert_param(IS_GPIOIT_LEVEL_TYPE(GPIO_InitStruct->GPIO_ITTrigger));
;;;49         assert_param(IS_GPIOIT_POLARITY_TYPE(GPIO_InitStruct->GPIO_ITPolarity));
;;;50         assert_param(IS_GPIOIT_DEBOUNCE_TYPE(GPIO_InitStruct->GPIO_ITDebounce));
;;;51     
;;;52         /* GPIO configure */
;;;53         if (GPIO_InitStruct->GPIO_Mode == GPIO_Mode_OUT)
        0x00208cf4:    7903        .y      LDRB     r3,[r0,#4]
        0x00208cf6:    495c        \I      LDR      r1,[pc,#368] ; [0x208e68] = 0x40001000
        0x00208cf8:    2b01        .+      CMP      r3,#1
        0x00208cfa:    6802        .h      LDR      r2,[r0,#0]
        0x00208cfc:    684b        Kh      LDR      r3,[r1,#4]
;;; .\..\..\..\src\mcu\peripheral\rtl876x_gpio.c (44)
        0x00208cfe:    d030        0.      BEQ      0x208d62 ; GPIO_Init + 110
;;;45         /* Check the parameters */
;;;46         assert_param(IS_GPIO_PIN(GPIO_InitStruct->GPIO_Pin));
;;;47         assert_param(IS_GPIO_MODE(GPIO_InitStruct->GPIO_Mode));
;;;48         assert_param(IS_GPIOIT_LEVEL_TYPE(GPIO_InitStruct->GPIO_ITTrigger));
;;;49         assert_param(IS_GPIOIT_POLARITY_TYPE(GPIO_InitStruct->GPIO_ITPolarity));
;;;50         assert_param(IS_GPIOIT_DEBOUNCE_TYPE(GPIO_InitStruct->GPIO_ITDebounce));
;;;51     
;;;52         /* GPIO configure */
;;;53         if (GPIO_InitStruct->GPIO_Mode == GPIO_Mode_OUT)
;;;54         {
;;;55             GPIO->DATADIR |= GPIO_InitStruct->GPIO_Pin;
;;;56     
;;;57             if (GPIO_InitStruct->GPIO_ControlMode == GPIO_SOFTWARE_MODE)
;;;58             {
;;;59                 /* Config GPIO control software mode */
;;;60                 GPIO->DATASRC &= (~GPIO_InitStruct->GPIO_Pin);
;;;61             }
;;;62             else
;;;63             {
;;;64                 /* Config GPIO hardware control mode */
;;;65                 GPIO->DATASRC |= (GPIO_InitStruct->GPIO_Pin);
;;;66             }
;;;67     
;;;68         }
;;;69         else
;;;70         {
;;;71             /*Configure GPIO input mode */
;;;72             GPIO->DATADIR = GPIO->DATADIR & (~GPIO_InitStruct->GPIO_Pin);
        0x00208d00:    4393        .C      BICS     r3,r3,r2
        0x00208d02:    604b        K`      STR      r3,[r1,#4]
;;;73     
;;;74             if (GPIO_InitStruct->GPIO_ITCmd == ENABLE)
        0x00208d04:    7942        By      LDRB     r2,[r0,#5]
        0x00208d06:    2a01        .*      CMP      r2,#1
        0x00208d08:    d12a        *.      BNE      0x208d60 ; GPIO_Init + 108
;;;75             {
;;;76     
;;;77                 GPIO->INTMASK = ~GPIO_Pin_All;
        0x00208d0a:    2200        ."      MOVS     r2,#0
        0x00208d0c:    634a        Jc      STR      r2,[r1,#0x34]
;;;78     
;;;79                 /* configure GPIO interrupt trigger type */
;;;80                 if (GPIO_InitStruct->GPIO_ITTrigger == GPIO_INT_Trigger_LEVEL)
        0x00208d0e:    7982        .y      LDRB     r2,[r0,#6]
        0x00208d10:    b38a        ..      CBZ      r2,0x208d76 ; GPIO_Init + 130
;;;81                 {
;;;82                     GPIO->INTTYPE = GPIO->INTTYPE & (~GPIO_InitStruct->GPIO_Pin);
;;;83     
;;;84                     /* Level-sensitive synchronization enable register */
;;;85                     GPIO->LSSYNC |= GPIO_InitStruct->GPIO_Pin;
;;;86                 }
;;;87                 else if (GPIO_InitStruct->GPIO_ITTrigger == GPIO_INT_Trigger_EDGE)
        0x00208d12:    2a01        .*      CMP      r2,#1
        0x00208d14:    d03d        =.      BEQ      0x208d92 ; GPIO_Init + 158
;;;88                 {
;;;89                     GPIO->INTTYPE = (GPIO->INTTYPE & (~GPIO_InitStruct->GPIO_Pin))
;;;90                                     | GPIO_InitStruct->GPIO_Pin;
;;;91                 }
;;;92                 else
;;;93                 {
;;;94                     GPIO->INTBOTHEDGE |= GPIO_InitStruct->GPIO_Pin;
        0x00208d16:    6e8a        .n      LDR      r2,[r1,#0x68]
        0x00208d18:    6803        .h      LDR      r3,[r0,#0]
        0x00208d1a:    431a        .C      ORRS     r2,r2,r3
        0x00208d1c:    668a        .f      STR      r2,[r1,#0x68]
;;;95                 }
;;;96     
;;;97                 /* configure Interrupt polarity register */
;;;98                 if (GPIO_InitStruct->GPIO_ITPolarity == GPIO_INT_POLARITY_ACTIVE_LOW)
        0x00208d1e:    79c2        .y      LDRB     r2,[r0,#7]
        0x00208d20:    b352        R.      CBZ      r2,0x208d78 ; GPIO_Init + 132
;;;99                 {
;;;100                    GPIO->INTPOLARITY = GPIO->INTPOLARITY & (~GPIO_InitStruct->GPIO_Pin);
;;;101                }
;;;102                else
;;;103                {
;;;104                    GPIO->INTPOLARITY = (GPIO->INTPOLARITY & (~GPIO_InitStruct->GPIO_Pin))
        0x00208d22:    6bcb        .k      LDR      r3,[r1,#0x3c]
        0x00208d24:    6802        .h      LDR      r2,[r0,#0]
        0x00208d26:    4393        .C      BICS     r3,r3,r2
        0x00208d28:    4313        .C      ORRS     r3,r3,r2
        0x00208d2a:    63cb        .c      STR      r3,[r1,#0x3c]
;;;105                                        | GPIO_InitStruct->GPIO_Pin;
;;;106                }
;;;107                /* Configure Debounce enable register */
;;;108                if (GPIO_InitStruct->GPIO_ITDebounce == GPIO_INT_DEBOUNCE_DISABLE)
        0x00208d2c:    7a02        .z      LDRB     r2,[r0,#8]
        0x00208d2e:    b37a        z.      CBZ      r2,0x208d90 ; GPIO_Init + 156
;;;109                {
;;;110                    GPIO->DEBOUNCE = GPIO->DEBOUNCE & (~GPIO_InitStruct->GPIO_Pin);
;;;111                }
;;;112                else
;;;113                {
;;;114                    GPIO->DEBOUNCE = (GPIO->DEBOUNCE & (~GPIO_InitStruct->GPIO_Pin))
        0x00208d30:    6c8b        .l      LDR      r3,[r1,#0x48]
        0x00208d32:    6802        .h      LDR      r2,[r0,#0]
        0x00208d34:    4393        .C      BICS     r3,r3,r2
        0x00208d36:    4313        .C      ORRS     r3,r3,r2
        0x00208d38:    648b        .d      STR      r3,[r1,#0x48]
;;;115                                     | GPIO_InitStruct->GPIO_Pin;
;;;116    
;;;117    #ifdef _IS_ASIC_
;;;118                    /* Config debounce time , default debounce DIV is 14*/
;;;119                    GPIO_DBCLK_DIV = (((0xd) << 8) | (1 << 12));
;;;120                    GPIO_DBCLK_DIV |= ((((GPIO_InitStruct->GPIO_DebounceTime) * (GPIO_CLOCK_SOURCE_KHZ) >>
;;;121                                         (14)) - 1) & 0xff);
;;;122    #else
;;;123                    /* Config debounce time , default debounce DIV is 13*/
;;;124                    GPIO_DBCLK_DIV = (((0x3) << 10) | (1 << 12));
        0x00208d3a:    f04f4180    O..A    MOV      r1,#0x40000000
        0x00208d3e:    f44f52e0    O..R    MOV      r2,#0x1c00
        0x00208d42:    f8c12344    ..D#    STR      r2,[r1,#0x344]
;;;125                    GPIO_DBCLK_DIV |= ((((GPIO_InitStruct->GPIO_DebounceTime) * (GPIO_CLOCK_SOURCE_KHZ) >>
        0x00208d46:    f8d12344    ..D#    LDR      r2,[r1,#0x344]
        0x00208d4a:    68c0        .h      LDR      r0,[r0,#0xc]
        0x00208d4c:    f6446320    D. c    MOV      r3,#0x4e20
        0x00208d50:    4358        XC      MULS     r0,r3,r0
        0x00208d52:    23ff        .#      MOVS     r3,#0xff
        0x00208d54:    eb033050    ..P0    ADD      r0,r3,r0,LSR #13
        0x00208d58:    b2c0        ..      UXTB     r0,r0
        0x00208d5a:    4302        .C      ORRS     r2,r2,r0
        0x00208d5c:    f8c12344    ..D#    STR      r2,[r1,#0x344]
;;;126                                         (13)) - 1) & 0xff);
;;;127    #endif
;;;128                }
;;;129    
;;;130                /* Configure Interrupt enable register */
;;;131                //GPIO->INTEN |= GPIO_InitStruct->GPIO_Pin;
;;;132            }
;;;133        }
;;;134    }
        0x00208d60:    4770        pG      BX       lr
        0x00208d62:    4313        .C      ORRS     r3,r3,r2
        0x00208d64:    604b        K`      STR      r3,[r1,#4]
        0x00208d66:    7a42        Bz      LDRB     r2,[r0,#9]
        0x00208d68:    2a00        .*      CMP      r2,#0
        0x00208d6a:    688a        .h      LDR      r2,[r1,#8]
        0x00208d6c:    6800        .h      LDR      r0,[r0,#0]
        0x00208d6e:    d004        ..      BEQ      0x208d7a ; GPIO_Init + 134
        0x00208d70:    4302        .C      ORRS     r2,r2,r0
        0x00208d72:    608a        .`      STR      r2,[r1,#8]
        0x00208d74:    4770        pG      BX       lr
        0x00208d76:    e002        ..      B        0x208d7e ; GPIO_Init + 138
        0x00208d78:    e011        ..      B        0x208d9e ; GPIO_Init + 170
        0x00208d7a:    4382        .C      BICS     r2,r2,r0
        0x00208d7c:    e7f9        ..      B        0x208d72 ; GPIO_Init + 126
        0x00208d7e:    6b8a        .k      LDR      r2,[r1,#0x38]
        0x00208d80:    6803        .h      LDR      r3,[r0,#0]
        0x00208d82:    439a        .C      BICS     r2,r2,r3
        0x00208d84:    638a        .c      STR      r2,[r1,#0x38]
        0x00208d86:    6e0a        .n      LDR      r2,[r1,#0x60]
        0x00208d88:    6803        .h      LDR      r3,[r0,#0]
        0x00208d8a:    431a        .C      ORRS     r2,r2,r3
        0x00208d8c:    660a        .f      STR      r2,[r1,#0x60]
        0x00208d8e:    e7c6        ..      B        0x208d1e ; GPIO_Init + 42
        0x00208d90:    e00a        ..      B        0x208da8 ; GPIO_Init + 180
        0x00208d92:    6b8b        .k      LDR      r3,[r1,#0x38]
        0x00208d94:    6802        .h      LDR      r2,[r0,#0]
        0x00208d96:    4393        .C      BICS     r3,r3,r2
        0x00208d98:    4313        .C      ORRS     r3,r3,r2
        0x00208d9a:    638b        .c      STR      r3,[r1,#0x38]
        0x00208d9c:    e7bf        ..      B        0x208d1e ; GPIO_Init + 42
        0x00208d9e:    6bca        .k      LDR      r2,[r1,#0x3c]
        0x00208da0:    6803        .h      LDR      r3,[r0,#0]
        0x00208da2:    439a        .C      BICS     r2,r2,r3
        0x00208da4:    63ca        .c      STR      r2,[r1,#0x3c]
        0x00208da6:    e7c1        ..      B        0x208d2c ; GPIO_Init + 56
        0x00208da8:    6c8a        .l      LDR      r2,[r1,#0x48]
        0x00208daa:    6800        .h      LDR      r0,[r0,#0]
        0x00208dac:    4382        .C      BICS     r2,r2,r0
        0x00208dae:    648a        .d      STR      r2,[r1,#0x48]
        0x00208db0:    e7e0        ..      B        0x208d74 ; GPIO_Init + 128
    GPIO_StructInit
;;;135    
;;;136    /**
;;;137      * @brief    Fills each GPIO_InitStruct member with its default value.
;;;138      * @param  GPIO_InitStruct : pointer to a GPIO_InitTypeDef structure which will
;;;139      *    be initialized.
;;;140      * @retval None
;;;141      */
;;;142    void GPIO_StructInit(GPIO_InitTypeDef *GPIO_InitStruct)
;;;143    {
;;;144        /* Reset GPIO init structure parameters values */
;;;145        GPIO_InitStruct->GPIO_Pin  = GPIO_Pin_All;
        0x00208db2:    f04f31ff    O..1    MOV      r1,#0xffffffff
;;;146        GPIO_InitStruct->GPIO_Mode = GPIO_Mode_IN;
        0x00208db6:    6001        .`      STR      r1,[r0,#0]
        0x00208db8:    2100        .!      MOVS     r1,#0
        0x00208dba:    7101        .q      STRB     r1,[r0,#4]
;;;147        GPIO_InitStruct->GPIO_ITCmd = DISABLE;
        0x00208dbc:    7141        Aq      STRB     r1,[r0,#5]
;;;148        GPIO_InitStruct->GPIO_ITTrigger = GPIO_INT_Trigger_LEVEL;
        0x00208dbe:    7181        .q      STRB     r1,[r0,#6]
;;;149        GPIO_InitStruct->GPIO_ITPolarity = GPIO_INT_POLARITY_ACTIVE_LOW;
        0x00208dc0:    71c1        .q      STRB     r1,[r0,#7]
;;;150        GPIO_InitStruct->GPIO_ITDebounce = GPIO_INT_DEBOUNCE_DISABLE;
        0x00208dc2:    7201        .r      STRB     r1,[r0,#8]
;;;151        GPIO_InitStruct->GPIO_ControlMode = GPIO_SOFTWARE_MODE;
        0x00208dc4:    7241        Ar      STRB     r1,[r0,#9]
;;;152        GPIO_InitStruct->GPIO_DebounceTime = 20;                 /* ms , can be 1~64 ms */
        0x00208dc6:    2114        .!      MOVS     r1,#0x14
        0x00208dc8:    60c1        .`      STR      r1,[r0,#0xc]
;;;153    }
        0x00208dca:    e7d3        ..      B        0x208d74 ; GPIO_Init + 128
    GPIO_INTConfig
;;;154    
;;;155    /**
;;;156      * @brief enable the specified GPIO interrupt.
;;;157      * @param  GPIO_Pin_x: where x can be 0 or 31.
;;;158      * @retval None
;;;159      */
;;;160    void GPIO_INTConfig(uint32_t GPIO_Pin, FunctionalState NewState)
;;;161    {
;;;162        /* Check the parameters */
;;;163        assert_param(IS_GPIO_PIN(GPIO_Pin));
;;;164        assert_param(IS_FUNCTIONAL_STATE(NewState));
;;;165    
;;;166        if (NewState != DISABLE)
;;;167        {
;;;168            /* Enable the selected GPIO pin interrupts */
;;;169            GPIO->INTEN |= GPIO_Pin;
        0x00208dcc:    4a26        &J      LDR      r2,[pc,#152] ; [0x208e68] = 0x40001000
        0x00208dce:    2900        .)      CMP      r1,#0
        0x00208dd0:    6b11        .k      LDR      r1,[r2,#0x30]
;;; .\..\..\..\src\mcu\peripheral\rtl876x_gpio.c (161)
        0x00208dd2:    d001        ..      BEQ      0x208dd8 ; GPIO_INTConfig + 12
;;;162        /* Check the parameters */
;;;163        assert_param(IS_GPIO_PIN(GPIO_Pin));
;;;164        assert_param(IS_FUNCTIONAL_STATE(NewState));
;;;165    
;;;166        if (NewState != DISABLE)
;;;167        {
;;;168            /* Enable the selected GPIO pin interrupts */
;;;169            GPIO->INTEN |= GPIO_Pin;
        0x00208dd4:    4301        .C      ORRS     r1,r1,r0
        0x00208dd6:    e000        ..      B        0x208dda ; GPIO_INTConfig + 14
        0x00208dd8:    4381        .C      BICS     r1,r1,r0
        0x00208dda:    6311        .c      STR      r1,[r2,#0x30]
;;;170        }
;;;171        else
;;;172        {
;;;173            /* Disable the selected GPIO pin interrupts */
;;;174            GPIO->INTEN &= ~GPIO_Pin;
;;;175        }
;;;176    }
        0x00208ddc:    e7ca        ..      B        0x208d74 ; GPIO_Init + 128
    GPIO_ClearINTPendingBit
;;;177    
;;;178    /**
;;;179      * @brief clear the specified GPIO interrupt.
;;;180      * @param  GPIO_Pin_x: where x can be 0 or 31.
;;;181      * @retval None
;;;182      */
;;;183    void GPIO_ClearINTPendingBit(uint32_t GPIO_Pin)
;;;184    {
;;;185        /* Check the parameters */
;;;186        assert_param(IS_GPIO_PIN(GPIO_Pin));
;;;187    
;;;188        GPIO->INTCLR = GPIO_Pin;
        0x00208dde:    4922        "I      LDR      r1,[pc,#136] ; [0x208e68] = 0x40001000
        0x00208de0:    64c8        .d      STR      r0,[r1,#0x4c]
;;;189    }
        0x00208de2:    e7c7        ..      B        0x208d74 ; GPIO_Init + 128
    GPIO_MaskINTConfig
;;;190    
;;;191    /**
;;;192      * @brief mask the specified GPIO interrupt.
;;;193      * @param  GPIO_Pin_x: where x can be 0 or 31.
;;;194      * @retval None
;;;195      */
;;;196    void GPIO_MaskINTConfig(uint32_t GPIO_Pin, FunctionalState NewState)
;;;197    {
;;;198        /* Check the parameters */
;;;199        assert_param(IS_GPIO_PIN(GPIO_Pin));
;;;200        assert_param(IS_FUNCTIONAL_STATE(NewState));
;;;201    
;;;202        if (NewState != DISABLE)
;;;203        {
;;;204            GPIO->INTMASK |= GPIO_Pin;
        0x00208de4:    4a20         J      LDR      r2,[pc,#128] ; [0x208e68] = 0x40001000
        0x00208de6:    2900        .)      CMP      r1,#0
        0x00208de8:    6b51        Qk      LDR      r1,[r2,#0x34]
;;; .\..\..\..\src\mcu\peripheral\rtl876x_gpio.c (197)
        0x00208dea:    d001        ..      BEQ      0x208df0 ; GPIO_MaskINTConfig + 12
;;;198        /* Check the parameters */
;;;199        assert_param(IS_GPIO_PIN(GPIO_Pin));
;;;200        assert_param(IS_FUNCTIONAL_STATE(NewState));
;;;201    
;;;202        if (NewState != DISABLE)
;;;203        {
;;;204            GPIO->INTMASK |= GPIO_Pin;
        0x00208dec:    4301        .C      ORRS     r1,r1,r0
        0x00208dee:    e000        ..      B        0x208df2 ; GPIO_MaskINTConfig + 14
        0x00208df0:    4381        .C      BICS     r1,r1,r0
        0x00208df2:    6351        Qc      STR      r1,[r2,#0x34]
;;;205        }
;;;206        else
;;;207        {
;;;208            GPIO->INTMASK &= ~(GPIO_Pin);
;;;209        }
;;;210    }
        0x00208df4:    e7be        ..      B        0x208d74 ; GPIO_Init + 128
    GPIO_GetPin
        0x00208df6:    2101        .!      MOVS     r1,#1
        0x00208df8:    281e        .(      CMP      r0,#0x1e
;;;211    
;;;212    /**
;;;213      * @brief get the specified GPIO pin.
;;;214      * @param  Pin_num: This parameter is from ADC_0 to P4_1, please refer to rtl876x.h "Pin_Number" part.
;;;215      * @retval  GPIO pin for GPIO initialization.
;;;216      */
;;;217    uint32_t GPIO_GetPin(uint8_t Pin_num)
;;;218    {
        0x00208dfa:    d90e        ..      BLS      0x208e1a ; GPIO_GetPin + 36
;;;219        /* Check the parameters */
;;;220        assert_param(IS_PIN_NUM(Pin_num));
;;;221    
;;;222        if (Pin_num <= P3_6)
;;;223        {
;;;224            return  BIT(Pin_num);
;;;225        }
;;;226        else if ((Pin_num <= P4_3) && (Pin_num >= P4_0))
        0x00208dfc:    f1a00220    .. .    SUB      r2,r0,#0x20
        0x00208e00:    2a03        .*      CMP      r2,#3
        0x00208e02:    d801        ..      BHI      0x208e08 ; GPIO_GetPin + 18
        0x00208e04:    1f00        ..      SUBS     r0,r0,#4
;;;227        {
;;;228            return BIT(Pin_num - 4);
        0x00208e06:    e008        ..      B        0x208e1a ; GPIO_GetPin + 36
;;;229        }
;;;230        else if ((Pin_num == H_0) || (Pin_num == H_1) || (Pin_num == H_2))
        0x00208e08:    2824        $(      CMP      r0,#0x24
        0x00208e0a:    d005        ..      BEQ      0x208e18 ; GPIO_GetPin + 34
        0x00208e0c:    2825        %(      CMP      r0,#0x25
        0x00208e0e:    d003        ..      BEQ      0x208e18 ; GPIO_GetPin + 34
        0x00208e10:    2826        &(      CMP      r0,#0x26
        0x00208e12:    d001        ..      BEQ      0x208e18 ; GPIO_GetPin + 34
        0x00208e14:    20ff        .       MOVS     r0,#0xff
        0x00208e16:    e7ad        ..      B        0x208d74 ; GPIO_Init + 128
        0x00208e18:    380b        .8      SUBS     r0,r0,#0xb
;;;231        {
;;;232            return BIT(Pin_num - 11);
        0x00208e1a:    fa01f000    ....    LSL      r0,r1,r0
;;;233        }
;;;234    
;;;235        return 0xFF;
;;;236    }
        0x00208e1e:    e7a9        ..      B        0x208d74 ; GPIO_Init + 128
    GPIO_GetNum
;;;237    
;;;238    /**
;;;239      * @brief get the specified GPIO pin number.
;;;240      * @param  Pin_num: This parameter is from ADC_0 to P4_1, please refer to rtl876x.h "Pin_Number" part.
;;;241      * @retval  GPIO pin number.
;;;242      */
;;;243    uint8_t GPIO_GetNum(uint8_t Pin_num)
;;;244    {
;;;245        /* Check the parameters */
;;;246        assert_param(IS_PIN_NUM(Pin_num));
;;;247    
;;;248        if (Pin_num <= P3_6)
        0x00208e20:    281e        .(      CMP      r0,#0x1e
;;; .\..\..\..\src\mcu\peripheral\rtl876x_gpio.c (244)
        0x00208e22:    d9a7        ..      BLS      0x208d74 ; GPIO_Init + 128
;;;245        /* Check the parameters */
;;;246        assert_param(IS_PIN_NUM(Pin_num));
;;;247    
;;;248        if (Pin_num <= P3_6)
;;;249        {
;;;250            return (Pin_num);
;;;251        }
;;;252        else if ((Pin_num <= P4_3) && (Pin_num >= P4_0))
        0x00208e24:    f1a00120    .. .    SUB      r1,r0,#0x20
        0x00208e28:    2903        .)      CMP      r1,#3
        0x00208e2a:    d801        ..      BHI      0x208e30 ; GPIO_GetNum + 16
        0x00208e2c:    1f00        ..      SUBS     r0,r0,#4
;;;253        {
;;;254            return (Pin_num - 4);
        0x00208e2e:    e008        ..      B        0x208e42 ; GPIO_GetNum + 34
;;;255        }
;;;256        else if ((Pin_num == H_0) || (Pin_num == H_1) || (Pin_num == H_2))
        0x00208e30:    2824        $(      CMP      r0,#0x24
        0x00208e32:    d005        ..      BEQ      0x208e40 ; GPIO_GetNum + 32
        0x00208e34:    2825        %(      CMP      r0,#0x25
        0x00208e36:    d003        ..      BEQ      0x208e40 ; GPIO_GetNum + 32
        0x00208e38:    2826        &(      CMP      r0,#0x26
        0x00208e3a:    d001        ..      BEQ      0x208e40 ; GPIO_GetNum + 32
        0x00208e3c:    20ff        .       MOVS     r0,#0xff
        0x00208e3e:    e799        ..      B        0x208d74 ; GPIO_Init + 128
        0x00208e40:    380b        .8      SUBS     r0,r0,#0xb
;;;257        {
;;;258            return (Pin_num - 11);
        0x00208e42:    b2c0        ..      UXTB     r0,r0
;;;259        }
;;;260    
;;;261        return 0xFF;
;;;262    }
        0x00208e44:    e796        ..      B        0x208d74 ; GPIO_Init + 128
    GPIO_DBClkCmd
        0x00208e46:    f04f4180    O..A    MOV      r1,#0x40000000
        0x00208e4a:    2800        .(      CMP      r0,#0
        0x00208e4c:    f8d10344    ..D.    LDR      r0,[r1,#0x344]
;;;263    
;;;264    /**
;;;265      * @brief get the specified GPIO pin number.
;;;266      * @param  Pin_num: This parameter is from ADC_0 to P4_1, please refer to rtl876x.h "Pin_Number" part.
;;;267      * @retval  GPIO pin number.
;;;268      */
;;;269    void GPIO_DBClkCmd(FunctionalState NewState)
;;;270    {
        0x00208e50:    d002        ..      BEQ      0x208e58 ; GPIO_DBClkCmd + 18
;;;271        if (NewState != DISABLE)
;;;272        {
;;;273            GPIO_DBCLK_DIV |= BIT12;
        0x00208e52:    f4405080    @..P    ORR      r0,r0,#0x1000
        0x00208e56:    e001        ..      B        0x208e5c ; GPIO_DBClkCmd + 22
        0x00208e58:    f4205080     ..P    BIC      r0,r0,#0x1000
        0x00208e5c:    f8c10344    ..D.    STR      r0,[r1,#0x344]
;;;274        }
;;;275        else
;;;276        {
;;;277            GPIO_DBCLK_DIV &= ~BIT12;
;;;278        }
;;;279    }
        0x00208e60:    e788        ..      B        0x208d74 ; GPIO_Init + 128
    $d
        0x00208e62:    0000        ..      DCW    0
        0x00208e64:    0c000100    ....    DCD    201326848
        0x00208e68:    40001000    ...@    DCD    1073745920
    $t
    .text
    KeyScan_Init
;;; .\..\..\..\src\mcu\peripheral\rtl876x_keyscan.c
;;;28     {
        0x00208e6c:    b530        0.      PUSH     {r4,r5,lr}
;;;29         assert_param(IS_KeyScan_PERIPH(KeyScan));
;;;30         assert_param(IS_KEYSCAN_ROW_NUM(KeyScan_InitStruct->rowSize));
;;;31         assert_param(IS_KEYSCAN_COL_NUM(KeyScan_InitStruct->colSize));
;;;32         assert_param(IS_KEYSCAN_DEBOUNCE_EN(KeyScan_InitStruct->debounceEn));
;;;33         assert_param(IS_KEYSCAN_DETECT_MODE(KeyScan_InitStruct->detectMode));
;;;34         assert_param(IS_KEYSCAN_FIFO_OVR_CTRL(KeyScan_InitStruct->fifoOvrCtrl));
;;;35         assert_param(IS_KEYSCAN_MAX_SCAN_DATA(KeyScan_InitStruct->maxScanData));
;;;36     
;;;37         /* Set FSM to idle state */
;;;38         KeyScan->CR &= ~BIT31;
        0x00208e6e:    6882        .h      LDR      r2,[r0,#8]
        0x00208e70:    f0224200    "..B    BIC      r2,r2,#0x80000000
        0x00208e74:    6082        .`      STR      r2,[r0,#8]
;;;39     
;;;40         /* Mask all keyscan interrupt */
;;;41         KeyScan->INTMASK |= 0x1f;
        0x00208e76:    6982        .i      LDR      r2,[r0,#0x18]
        0x00208e78:    f042021f    B...    ORR      r2,r2,#0x1f
        0x00208e7c:    6182        .a      STR      r2,[r0,#0x18]
;;;42     
;;;43         /* clock divider config */
;;;44         KeyScan->CLKDIV &= ~((0x3FF << 8) | 0x1F);
        0x00208e7e:    6802        .h      LDR      r2,[r0,#0]
        0x00208e80:    4b53        SK      LDR      r3,[pc,#332] ; [0x208fd0] = 0xfffc00e0
        0x00208e82:    401a        .@      ANDS     r2,r2,r3
        0x00208e84:    6002        .`      STR      r2,[r0,#0]
;;;45         KeyScan->CLKDIV |= ((KeyScan_InitStruct->clockdiv << 8)\
        0x00208e86:    6802        .h      LDR      r2,[r0,#0]
        0x00208e88:    f891302e    ...0    LDRB     r3,[r1,#0x2e]
        0x00208e8c:    431a        .C      ORRS     r2,r2,r3
        0x00208e8e:    8d8b        ..      LDRH     r3,[r1,#0x2c]
        0x00208e90:    ea422203    B.."    ORR      r2,r2,r3,LSL #8
        0x00208e94:    6002        .`      STR      r2,[r0,#0]
;;;46                             | (KeyScan_InitStruct->delayclk));
;;;47     
;;;48         /* Config scan mode and detect mode*/
;;;49         KeyScan->CR = (KeyScan_InitStruct-> scanmode | KeyScan_InitStruct-> detectMode |
        0x00208e96:    69cb        .i      LDR      r3,[r1,#0x1c]
        0x00208e98:    6a8a        .j      LDR      r2,[r1,#0x28]
        0x00208e9a:    431a        .C      ORRS     r2,r2,r3
        0x00208e9c:    6a0b        .j      LDR      r3,[r1,#0x20]
        0x00208e9e:    431a        .C      ORRS     r2,r2,r3
        0x00208ea0:    6082        .`      STR      r2,[r0,#8]
;;;50                        KeyScan_InitStruct->fifoOvrCtrl);
;;;51         /* fifo threshol setting */
;;;52         KeyScan->CR |= (KeyScan_InitStruct ->fifotriggerlevel << 5);
        0x00208ea2:    6882        .h      LDR      r2,[r0,#8]
        0x00208ea4:    8e0b        ..      LDRH     r3,[r1,#0x30]
        0x00208ea6:    ea421243    B.C.    ORR      r2,r2,r3,LSL #5
        0x00208eaa:    6082        .`      STR      r2,[r0,#8]
;;;53         /* key limit setting */
;;;54         KeyScan->CR |= (KeyScan_InitStruct ->keylimit << 23);
        0x00208eac:    6882        .h      LDR      r2,[r0,#8]
        0x00208eae:    f8913034    ..40    LDRB     r3,[r1,#0x34]
        0x00208eb2:    ea4252c3    B..R    ORR      r2,r2,r3,LSL #23
        0x00208eb6:    6082        .`      STR      r2,[r0,#8]
;;;55     
;;;56         /* time config */
;;;57         KeyScan->TIMERCR = ((KeyScan_InitStruct ->debounceEn)\
        0x00208eb8:    694b        Ki      LDR      r3,[r1,#0x14]
        0x00208eba:    68ca        .h      LDR      r2,[r1,#0xc]
        0x00208ebc:    431a        .C      ORRS     r2,r2,r3
        0x00208ebe:    690b        .i      LDR      r3,[r1,#0x10]
        0x00208ec0:    431a        .C      ORRS     r2,r2,r3
        0x00208ec2:    6042        B`      STR      r2,[r0,#4]
;;;58                             | (KeyScan_InitStruct->detecttimerEn)\
;;;59                             | (KeyScan_InitStruct->scantimerEn));
;;;60         /* time count config */
;;;61         KeyScan->TIMERCR |= ((KeyScan_InitStruct->debouncecnt << 18)\
        0x00208ec4:    6842        Bh      LDR      r2,[r0,#4]
        0x00208ec6:    f8913033    ..30    LDRB     r3,[r1,#0x33]
        0x00208eca:    894c        L.      LDRH     r4,[r1,#0xa]
        0x00208ecc:    431a        .C      ORRS     r2,r2,r3
        0x00208ece:    f8913032    ..20    LDRB     r3,[r1,#0x32]
        0x00208ed2:    049b        ..      LSLS     r3,r3,#18
        0x00208ed4:    ea432344    C.D#    ORR      r3,r3,r4,LSL #9
        0x00208ed8:    431a        .C      ORRS     r2,r2,r3
        0x00208eda:    6042        B`      STR      r2,[r0,#4]
;;;62                              | (KeyScan_InitStruct->scanInterval << 9)\
;;;63                              | (KeyScan_InitStruct->releasecnt));
;;;64     
;;;65         /* Set col map, config which col to work */
;;;66         KeyScan->COLCR = ((((1 << KeyScan_InitStruct->colSize) - 1) << 8) \
        0x00208edc:    884a        J.      LDRH     r2,[r1,#2]
        0x00208ede:    2501        .%      MOVS     r5,#1
        0x00208ee0:    fa05f302    ....    LSL      r3,r5,r2
        0x00208ee4:    021c        ..      LSLS     r4,r3,#8
        0x00208ee6:    1e52        R.      SUBS     r2,r2,#1
        0x00208ee8:    f5a47480    ...t    SUB      r4,r4,#0x100
        0x00208eec:    4314        .C      ORRS     r4,r4,r2
        0x00208eee:    60c4        .`      STR      r4,[r0,#0xc]
;;;67                           | (KeyScan_InitStruct->colSize - 1));
;;;68     
;;;69         /* Set col map, config which col to work */
;;;70         KeyScan->ROWCR = ((KeyScan_InitStruct->rowSize - 1) << 16\
        0x00208ef0:    8809        ..      LDRH     r1,[r1,#0]
        0x00208ef2:    fa05f301    ....    LSL      r3,r5,r1
        0x00208ef6:    1e49        I.      SUBS     r1,r1,#1
        0x00208ef8:    1e5b        [.      SUBS     r3,r3,#1
        0x00208efa:    ea434101    C..A    ORR      r1,r3,r1,LSL #16
        0x00208efe:    6101        .a      STR      r1,[r0,#0x10]
;;;71                           | ((1 << KeyScan_InitStruct->rowSize) - 1));
;;;72     
;;;73         /* clear all interrupt status and status flag */
;;;74         KeyScan->INTCLR |= 0xff;
        0x00208f00:    69c1        .i      LDR      r1,[r0,#0x1c]
        0x00208f02:    f04101ff    A...    ORR      r1,r1,#0xff
        0x00208f06:    61c1        .a      STR      r1,[r0,#0x1c]
;;;75         /* Unmask all keyscan interrupt */
;;;76         KeyScan->INTMASK &= ~0x1f;
        0x00208f08:    6981        .i      LDR      r1,[r0,#0x18]
        0x00208f0a:    f021011f    !...    BIC      r1,r1,#0x1f
        0x00208f0e:    6181        .a      STR      r1,[r0,#0x18]
;;;77     
;;;78         return;
;;;79     }
        0x00208f10:    bd30        0.      POP      {r4,r5,pc}
    KeyScan_DeInit
;;;80     
;;;81     /**
;;;82       * @brief  Deinitializes the Keyscan peripheral registers to their default reset values(turn off keyscan clock).
;;;83       * @param  KeyScan: selected KeyScan peripheral.
;;;84       * @retval None
;;;85       */
;;;86     void KeyScan_DeInit(KEYSCAN_TypeDef *KeyScan)
;;;87     {
;;;88         /* Check the parameters */
;;;89         assert_param(IS_KeyScan_PERIPH(KeyScan));
;;;90     
;;;91         RCC_PeriphClockCmd(APBPeriph_KEYSCAN, APBPeriph_KEYSCAN_CLOCK, DISABLE);
        0x00208f12:    2200        ."      MOVS     r2,#0
        0x00208f14:    492f        /I      LDR      r1,[pc,#188] ; [0x208fd4] = 0x60000040
        0x00208f16:    4830        0H      LDR      r0,[pc,#192] ; [0x208fd8] = 0x8080000
        0x00208f18:    f7ffbd3c    ..<.    B.W      RCC_PeriphClockCmd ; 0x208994
    KeyScan_StructInit
;;;92     
;;;93         return;
;;;94     }
;;;95     
;;;96     
;;;97     /**
;;;98       * @brief  Fills each I2C_InitStruct member with its default value.
;;;99       * @param  KeyScan_InitStruct: pointer to an KEYSCAN_InitTypeDef structure which will be initialized.
;;;100      * @retval None
;;;101      */
;;;102    void KeyScan_StructInit(KEYSCAN_InitTypeDef *KeyScan_InitStruct)
;;;103    {
;;;104        KeyScan_InitStruct->colSize          = 2;
        0x00208f1c:    2102        .!      MOVS     r1,#2
;;; .\..\..\..\src\mcu\peripheral\rtl876x_keyscan.c (103)
        0x00208f1e:    b510        ..      PUSH     {r4,lr}
;;;104        KeyScan_InitStruct->colSize          = 2;
        0x00208f20:    8041        A.      STRH     r1,[r0,#2]
;;;105        KeyScan_InitStruct->rowSize          = 2;
        0x00208f22:    8001        ..      STRH     r1,[r0,#0]
        0x00208f24:    070b        ..      LSLS     r3,r1,#28
;;;106    
;;;107        KeyScan_InitStruct->scanmode         = KeyScan_Auto_Scan_Mode;
        0x00208f26:    074a        J.      LSLS     r2,r1,#29
;;;108        KeyScan_InitStruct->detectMode       = KeyScan_Detect_Mode_Level;
;;;109        KeyScan_InitStruct->clockdiv         = 0x1f8;
        0x00208f28:    61c3        .a      STR      r3,[r0,#0x1c]
        0x00208f2a:    f44f71fc    O..q    MOV      r1,#0x1f8
        0x00208f2e:    6282        .b      STR      r2,[r0,#0x28]
        0x00208f30:    8581        ..      STRH     r1,[r0,#0x2c]
;;;110        KeyScan_InitStruct->delayclk         = 0x01;
        0x00208f32:    2101        .!      MOVS     r1,#1
        0x00208f34:    f880102e    ....    STRB     r1,[r0,#0x2e]
;;;111        KeyScan_InitStruct->fifotriggerlevel = 1;
        0x00208f38:    8601        ..      STRH     r1,[r0,#0x30]
;;;112        KeyScan_InitStruct->fifoOvrCtrl      = KeyScan_FIFO_OVR_CTRL_DIS_LAST;
        0x00208f3a:    070c        ..      LSLS     r4,r1,#28
;;;113    
;;;114        KeyScan_InitStruct->debounceEn       = KeyScan_Debounce_Enable;
        0x00208f3c:    6204        .b      STR      r4,[r0,#0x20]
        0x00208f3e:    07cc        ..      LSLS     r4,r1,#31
        0x00208f40:    60c4        .`      STR      r4,[r0,#0xc]
        0x00208f42:    e9c02304    ...#    STRD     r2,r3,[r0,#0x10]
;;;115        KeyScan_InitStruct->scantimerEn      = KeyScan_ScanInterval_Enable;
;;;116        KeyScan_InitStruct->detecttimerEn    = KeyScan_Release_Detect_Enable;
;;;117    
;;;118        KeyScan_InitStruct->scanInterval     = 0x10;
        0x00208f46:    2210        ."      MOVS     r2,#0x10
        0x00208f48:    8142        B.      STRH     r2,[r0,#0xa]
;;;119        KeyScan_InitStruct->debouncecnt      = 0x10;
        0x00208f4a:    f8802032    ..2     STRB     r2,[r0,#0x32]
;;;120        KeyScan_InitStruct->releasecnt       = 0x1;
        0x00208f4e:    f8801033    ..3.    STRB     r1,[r0,#0x33]
;;;121    
;;;122        KeyScan_InitStruct->keylimit         = 0x03;
        0x00208f52:    2103        .!      MOVS     r1,#3
        0x00208f54:    f8801034    ..4.    STRB     r1,[r0,#0x34]
;;;123    
;;;124    
;;;125        return;
;;;126    }
        0x00208f58:    bd10        ..      POP      {r4,pc}
    KeyScan_INTConfig
        0x00208f5a:    2a01        .*      CMP      r2,#1
        0x00208f5c:    6882        .h      LDR      r2,[r0,#8]
;;;127    
;;;128    /**
;;;129      * @brief  Enables or disables the specified KeyScan interrupts.
;;;130      * @param  KeyScan: selected KeyScan peripheral.
;;;131      * @param  KeyScan_IT: specifies the KeyScan interrupts sources to be enabled or disabled.
;;;132      *   This parameter can be any combination of the following values:
;;;133      *     @arg KEYSCAN_INT_TIMEOUT: KeyScan timeout interrupt mask
;;;134      *     @arg KEYSCAN_INT_OVER_THRESHOLD: Kescan FIFO data over threshold interrupt mask
;;;135      *     @arg KEYSCAN_INT_SCAN_END: KeyScan scan end interrupt mask
;;;136      * @param  NewState: new state of the specified KeyScan interrupts.
;;;137      *   This parameter can be: ENABLE or DISABLE.
;;;138      * @retval None
;;;139      */
;;;140    void KeyScan_INTConfig(KEYSCAN_TypeDef *KeyScan, uint32_t KeyScan_IT, FunctionalState newState)
;;;141    {
        0x00208f5e:    d002        ..      BEQ      0x208f66 ; KeyScan_INTConfig + 12
        0x00208f60:    438a        .C      BICS     r2,r2,r1
;;;142        /* Check the parameters */
;;;143        assert_param(IS_KeyScan_PERIPH(KeyScan));
;;;144        assert_param(IS_FUNCTIONAL_STATE(newState));
;;;145        assert_param(IS_KEYSCAN_CONFIG_IT(KeyScan_IT));
;;;146    
;;;147        if (newState == ENABLE)
;;;148        {
;;;149            /* Enable the selected KeyScan interrupts */
;;;150            KeyScan->CR |= KeyScan_IT;
        0x00208f62:    6082        .`      STR      r2,[r0,#8]
        0x00208f64:    4770        pG      BX       lr
        0x00208f66:    430a        .C      ORRS     r2,r2,r1
        0x00208f68:    e7fb        ..      B        0x208f62 ; KeyScan_INTConfig + 8
    KeyScan_INTMask
        0x00208f6a:    2a01        .*      CMP      r2,#1
        0x00208f6c:    6982        .i      LDR      r2,[r0,#0x18]
;;;151        }
;;;152        else
;;;153        {
;;;154            /* Disable the selected KeyScan interrupts */
;;;155            KeyScan->CR &= (uint32_t)~KeyScan_IT;
;;;156        }
;;;157    }
;;;158    
;;;159    /**
;;;160      * @brief  Enables or disables the specified KeyScan interrupts mask.
;;;161      * @param  KeyScan: selected KeyScan peripheral.
;;;162      * @param  NewState: new state of the specified KeyScan interrupts mask.
;;;163      *   This parameter can be: ENABLE or DISABLE.
;;;164      * @retval None
;;;165      */
;;;166    void KeyScan_INTMask(KEYSCAN_TypeDef *KeyScan, uint32_t KeyScan_IT, FunctionalState newState)
;;;167    {
        0x00208f6e:    d002        ..      BEQ      0x208f76 ; KeyScan_INTMask + 12
        0x00208f70:    438a        .C      BICS     r2,r2,r1
;;;168        /* Check the parameters */
;;;169        assert_param(IS_KeyScan_PERIPH(KeyScan));
;;;170        assert_param(IS_FUNCTIONAL_STATE(newState));
;;;171    
;;;172        if (newState == ENABLE)
;;;173        {
;;;174            /* mask KeyScan interrupts */
;;;175            KeyScan->INTMASK |= KeyScan_IT;
        0x00208f72:    6182        .a      STR      r2,[r0,#0x18]
        0x00208f74:    4770        pG      BX       lr
        0x00208f76:    430a        .C      ORRS     r2,r2,r1
        0x00208f78:    e7fb        ..      B        0x208f72 ; KeyScan_INTMask + 8
    KeyScan_Read
;;;176        }
;;;177        else
;;;178        {
;;;179            /* enable KeyScan interrupts */
;;;180            KeyScan->INTMASK &= (~KeyScan_IT);
;;;181        }
;;;182    }
;;;183    
;;;184    /**
;;;185      * @brief  Read data from keyscan FIFO.
;;;186      * @param  KeyScan: selected KeyScan peripheral.
;;;187      * @param[out]  outBuf: buffer to save data read from KeyScan FIFO.
;;;188      * @param  count: number of data to be read.
;;;189      * @retval None
;;;190      */
;;;191    void KeyScan_Read(KEYSCAN_TypeDef *KeyScan, uint16_t *outBuf, uint16_t count)
;;;192    {
        0x00208f7a:    b510        ..      PUSH     {r4,lr}
        0x00208f7c:    2300        .#      MOVS     r3,#0
        0x00208f7e:    e004        ..      B        0x208f8a ; KeyScan_Read + 16
        0x00208f80:    6944        Di      LDR      r4,[r0,#0x14]
        0x00208f82:    1c5b        [.      ADDS     r3,r3,#1
        0x00208f84:    f8214b02    !..K    STRH     r4,[r1],#2
;;;193        /* Check the parameters */
;;;194        assert_param(IS_KeyScan_PERIPH(KeyScan));
;;;195    
;;;196        uint16_t i = 0;
;;;197    
;;;198        for (i = 0; i < count; i++)
        0x00208f88:    b29b        ..      UXTH     r3,r3
        0x00208f8a:    4293        .B      CMP      r3,r2
        0x00208f8c:    d3f8        ..      BCC      0x208f80 ; KeyScan_Read + 6
;;;199        {
;;;200            *outBuf++ = (uint16_t)KeyScan->FIFODATA;
;;;201        }
;;;202    
;;;203        return;
;;;204    }
        0x00208f8e:    bd10        ..      POP      {r4,pc}
    KeyScan_Cmd
;;;205    
;;;206    /**
;;;207      * @brief  Enables or disables the KeyScan peripheral.
;;;208      * @param  KeyScan: selected KeyScan peripheral.
;;;209      * @param  NewState: new state of the KeyScan peripheral.
;;;210      *   This parameter can be: ENABLE or DISABLE.
;;;211      * @retval None
;;;212      */
;;;213    void KeyScan_Cmd(KEYSCAN_TypeDef *KeyScan, FunctionalState NewState)
;;;214    {
;;;215        /* Check the parameters */
;;;216        assert_param(IS_KeyScan_PERIPH(KeyScan));
;;;217        assert_param(IS_FUNCTIONAL_STATE(NewState));
;;;218    
;;;219        if (NewState != DISABLE)
        0x00208f90:    2900        .)      CMP      r1,#0
        0x00208f92:    6881        .h      LDR      r1,[r0,#8]
;;; .\..\..\..\src\mcu\peripheral\rtl876x_keyscan.c (214)
        0x00208f94:    d002        ..      BEQ      0x208f9c ; KeyScan_Cmd + 12
;;;215        /* Check the parameters */
;;;216        assert_param(IS_KeyScan_PERIPH(KeyScan));
;;;217        assert_param(IS_FUNCTIONAL_STATE(NewState));
;;;218    
;;;219        if (NewState != DISABLE)
;;;220        {
;;;221            /* Enable the selected I2C peripheral */
;;;222            KeyScan->CR |= BIT31;
        0x00208f96:    f0414100    A..A    ORR      r1,r1,#0x80000000
        0x00208f9a:    e001        ..      B        0x208fa0 ; KeyScan_Cmd + 16
        0x00208f9c:    f0214100    !..A    BIC      r1,r1,#0x80000000
        0x00208fa0:    6081        .`      STR      r1,[r0,#8]
;;;223        }
;;;224        else
;;;225        {
;;;226            /* Disable the selected I2C peripheral */
;;;227            KeyScan->CR &= ~BIT31;
;;;228        }
;;;229    }
        0x00208fa2:    4770        pG      BX       lr
    KeyScan_FilterDataConfig
;;;230    
;;;231    /**
;;;232      * @brief  Set filter data.
;;;233      * @param  KeyScan: selected KeyScan peripheral.
;;;234      * @param  data: config the data to be filtered.
;;;235      *   This parameter should not be more than 9 bits
;;;236      * @retval none.
;;;237      */
;;;238    void KeyScan_FilterDataConfig(KEYSCAN_TypeDef *KeyScan, uint16_t data, FunctionalState NewState)
;;;239    {
;;;240        /* Check the parameters */
;;;241        assert_param(IS_KeyScan_PERIPH(KeyScan));
;;;242    
;;;243        if (NewState == ENABLE)
        0x00208fa4:    2a01        .*      CMP      r2,#1
;;;244        {
;;;245            KeyScan->CR &= ~BIT21;
;;;246    
;;;247            KeyScan->CR &= ~(0x1ff << 12);
        0x00208fa6:    4b0d        .K      LDR      r3,[pc,#52] ; [0x208fdc] = 0xffe00fff
        0x00208fa8:    6882        .h      LDR      r2,[r0,#8]
;;;248            KeyScan->CR |= ((data & 0x1ff) << 12);
        0x00208faa:    f3c10108    ....    UBFX     r1,r1,#0,#9
;;;249    
;;;250            KeyScan->CR |= BIT21;
;;;251        }
;;;252        else
;;;253        {
;;;254            KeyScan->CR &= ~BIT21;
        0x00208fae:    f4221200    "...    BIC      r2,r2,#0x200000
        0x00208fb2:    6082        .`      STR      r2,[r0,#8]
;;;255    
;;;256            KeyScan->CR &= ~(0x1ff << 12);
        0x00208fb4:    6882        .h      LDR      r2,[r0,#8]
        0x00208fb6:    ea020203    ....    AND      r2,r2,r3
        0x00208fba:    6082        .`      STR      r2,[r0,#8]
;;;257            KeyScan->CR |= ((data & 0x1ff) << 12);
        0x00208fbc:    6882        .h      LDR      r2,[r0,#8]
        0x00208fbe:    ea423101    B..1    ORR      r1,r2,r1,LSL #12
        0x00208fc2:    d103        ..      BNE      0x208fcc ; KeyScan_FilterDataConfig + 40
        0x00208fc4:    6081        .`      STR      r1,[r0,#8]
        0x00208fc6:    6881        .h      LDR      r1,[r0,#8]
        0x00208fc8:    f4411100    A...    ORR      r1,r1,#0x200000
        0x00208fcc:    6081        .`      STR      r1,[r0,#8]
;;;258        }
;;;259    
;;;260        return;
;;;261    }
        0x00208fce:    4770        pG      BX       lr
    $d
        0x00208fd0:    fffc00e0    ....    DCD    4294705376
        0x00208fd4:    60000040    @..`    DCD    1610612800
        0x00208fd8:    08080000    ....    DCD    134742016
        0x00208fdc:    ffe00fff    ....    DCD    4292874239
    $t
    .text
    app_le_gap_init
;;; ..\..\..\src\app\keyboard\main.c
;;;97     {
        0x00208fe0:    b510        ..      PUSH     {r4,lr}
        0x00208fe2:    b09c        ..      SUB      sp,sp,#0x70
;;;98         /* Device name and device appearance */
;;;99         uint8_t  device_name[GAP_DEVICE_NAME_LEN] = "BLE_KEYBOARD";
        0x00208fe4:    2228        ("      MOVS     r2,#0x28
        0x00208fe6:    49a6        .I      LDR      r1,[pc,#664] ; [0x209280] = 0x20b780
        0x00208fe8:    4668        hF      MOV      r0,sp
        0x00208fea:    f650ffdd    P...    BL       __aeabi_memcpy4 ; 0x59fa8
;;;100        uint16_t appearance = GAP_GATT_APPEARANCE_KEYBOARD;
        0x00208fee:    f24030c1    @..0    MOV      r0,#0x3c1
        0x00208ff2:    f8ad0064    ..d.    STRH     r0,[sp,#0x64]
;;;101        uint8_t  slave_init_mtu_req = false;
        0x00208ff6:    2000        .       MOVS     r0,#0
        0x00208ff8:    2107        .!      MOVS     r1,#7
        0x00208ffa:    900b        ..      STR      r0,[sp,#0x2c]
        0x00208ffc:    f88d1040    ..@.    STRB     r1,[sp,#0x40]
        0x00209000:    2120         !      MOVS     r1,#0x20
        0x00209002:    f88d0034    ..4.    STRB     r0,[sp,#0x34]
;;;102    
;;;103    
;;;104        /* Advertising parameters */
;;;105        uint8_t  adv_evt_type = GAP_ADTYPE_ADV_IND;
;;;106        uint8_t  adv_direct_type = GAP_REMOTE_ADDR_LE_PUBLIC;
;;;107        uint8_t  adv_direct_addr[GAP_BD_ADDR_LEN] = {0};
;;;108        uint8_t  adv_chann_map = GAP_ADVCHAN_ALL;
;;;109        uint8_t  adv_filter_policy = GAP_ADV_FILTER_ANY;
        0x00209006:    f88d0030    ..0.    STRB     r0,[sp,#0x30]
        0x0020900a:    f8ad1048    ..H.    STRH     r1,[sp,#0x48]
;;;110        uint16_t adv_int_min = DEFAULT_ADVERTISING_INTERVAL_MIN;
        0x0020900e:    f8ad1044    ..D.    STRH     r1,[sp,#0x44]
;;;111        uint16_t adv_int_max = DEFAULT_ADVERTISING_INTERVAL_MIN;
;;;112    
;;;113        /* GAP Bond Manager parameters */
;;;114        uint8_t  auth_pair_mode = GAP_PAIRING_MODE_PAIRABLE;
        0x00209012:    2101        .!      MOVS     r1,#1
        0x00209014:    f88d1068    ..h.    STRB     r1,[sp,#0x68]
        0x00209018:    f64033b8    @..3    MOV      r3,#0xbb8
        0x0020901c:    240a        .$      MOVS     r4,#0xa
        0x0020901e:    f88d0038    ..8.    STRB     r0,[sp,#0x38]
        0x00209022:    2105        .!      MOVS     r1,#5
        0x00209024:    fbb3f3f4    ....    UDIV     r3,r3,r4
;;;115        uint16_t auth_flags = GAP_AUTHEN_BIT_BONDING_FLAG | GAP_AUTHEN_BIT_MITM_FLAG;
;;;116        uint8_t  auth_io_cap = GAP_IO_CAP_KEYBOARD_ONLY;
        0x00209028:    2202        ."      MOVS     r2,#2
        0x0020902a:    f88d003c    ..<.    STRB     r0,[sp,#0x3c]
        0x0020902e:    f8ad106c    ..l.    STRH     r1,[sp,#0x6c]
        0x00209032:    f88d204c    ..L     STRB     r2,[sp,#0x4c]
        0x00209036:    900a        ..      STR      r0,[sp,#0x28]
;;;117        uint8_t  auth_oob = false;
        0x00209038:    f88d0050    ..P.    STRB     r0,[sp,#0x50]
;;;118        uint8_t  auth_use_fix_passkey = false;
        0x0020903c:    f88d0054    ..T.    STRB     r0,[sp,#0x54]
;;;119        uint32_t auth_fix_passkey = 0;
;;;120    
;;;121        uint8_t  auth_sec_req_enable = false;
        0x00209040:    9016        ..      STR      r0,[sp,#0x58]
        0x00209042:    f88d005c    ..\.    STRB     r0,[sp,#0x5c]
;;;122        uint16_t auth_sec_req_flags = GAP_AUTHEN_BIT_BONDING_FLAG | GAP_AUTHEN_BIT_MITM_FLAG;
        0x00209046:    f8ad1060    ..`.    STRH     r1,[sp,#0x60]
;;;123    
;;;124        uint16_t conn_interval_min   = 6;
        0x0020904a:    2006        .       MOVS     r0,#6
;;;125        uint16_t conn_interval_max   = 16;
        0x0020904c:    2110        .!      MOVS     r1,#0x10
;;;126        uint16_t slave_latency       = 20;
        0x0020904e:    2214        ."      MOVS     r2,#0x14
;;;127        uint16_t supervision_timeout = 3000;
;;;128    
;;;129        gaps_set_peripheral_preferred_conn_param(conn_interval_min, conn_interval_max,
        0x00209050:    f648fc74    H.t.    BL       gaps_set_peripheral_preferred_conn_param ; 0x5193c
;;;130                                                 slave_latency, supervision_timeout / 10);
;;;131    
;;;132        /* Set device name and device appearance */
;;;133        le_set_gap_param(GAP_PARAM_DEVICE_NAME, GAP_DEVICE_NAME_LEN, device_name);
        0x00209054:    466a        jF      MOV      r2,sp
        0x00209056:    2128        (!      MOVS     r1,#0x28
        0x00209058:    f2402022    @."     MOV      r0,#0x222
        0x0020905c:    f643fdf4    C...    BL       le_set_gap_param ; 0x4cc48
;;;134        le_set_gap_param(GAP_PARAM_APPEARANCE, sizeof(appearance), &appearance);
        0x00209060:    aa19        ..      ADD      r2,sp,#0x64
        0x00209062:    2102        .!      MOVS     r1,#2
        0x00209064:    f2402021    @.!     MOV      r0,#0x221
        0x00209068:    f643fdee    C...    BL       le_set_gap_param ; 0x4cc48
;;;135        le_set_gap_param(GAP_PARAM_SLAVE_INIT_GATT_MTU_REQ, sizeof(slave_init_mtu_req),
        0x0020906c:    aa0d        ..      ADD      r2,sp,#0x34
        0x0020906e:    2101        .!      MOVS     r1,#1
        0x00209070:    f2402023    @.#     MOV      r0,#0x223
        0x00209074:    f643fde8    C...    BL       le_set_gap_param ; 0x4cc48
;;;136                         &slave_init_mtu_req);
;;;137    
;;;138        /* Set advertising parameters */
;;;139        le_adv_set_param(GAP_PARAM_ADV_EVENT_TYPE, sizeof(adv_evt_type), &adv_evt_type);
        0x00209078:    aa0e        ..      ADD      r2,sp,#0x38
        0x0020907a:    2101        .!      MOVS     r1,#1
        0x0020907c:    f2402063    @.c     MOV      r0,#0x263
        0x00209080:    f648ff06    H...    BL       le_adv_set_param ; 0x51e90
;;;140        le_adv_set_param(GAP_PARAM_ADV_DIRECT_ADDR_TYPE, sizeof(adv_direct_type), &adv_direct_type);
        0x00209084:    aa0f        ..      ADD      r2,sp,#0x3c
        0x00209086:    2101        .!      MOVS     r1,#1
        0x00209088:    f44f7019    O..p    MOV      r0,#0x264
        0x0020908c:    f648ff00    H...    BL       le_adv_set_param ; 0x51e90
;;;141        le_adv_set_param(GAP_PARAM_ADV_DIRECT_ADDR, sizeof(adv_direct_addr), adv_direct_addr);
        0x00209090:    aa0a        ..      ADD      r2,sp,#0x28
        0x00209092:    2106        .!      MOVS     r1,#6
        0x00209094:    f2402065    @.e     MOV      r0,#0x265
        0x00209098:    f648fefa    H...    BL       le_adv_set_param ; 0x51e90
;;;142        le_adv_set_param(GAP_PARAM_ADV_CHANNEL_MAP, sizeof(adv_chann_map), &adv_chann_map);
        0x0020909c:    aa10        ..      ADD      r2,sp,#0x40
        0x0020909e:    2101        .!      MOVS     r1,#1
        0x002090a0:    f2402066    @.f     MOV      r0,#0x266
        0x002090a4:    f648fef4    H...    BL       le_adv_set_param ; 0x51e90
;;;143        le_adv_set_param(GAP_PARAM_ADV_FILTER_POLICY, sizeof(adv_filter_policy), &adv_filter_policy);
        0x002090a8:    aa0c        ..      ADD      r2,sp,#0x30
        0x002090aa:    2101        .!      MOVS     r1,#1
        0x002090ac:    f2402067    @.g     MOV      r0,#0x267
        0x002090b0:    f648feee    H...    BL       le_adv_set_param ; 0x51e90
;;;144        le_adv_set_param(GAP_PARAM_ADV_INTERVAL_MIN, sizeof(adv_int_min), &adv_int_min);
        0x002090b4:    aa11        ..      ADD      r2,sp,#0x44
        0x002090b6:    2102        .!      MOVS     r1,#2
        0x002090b8:    f44f701a    O..p    MOV      r0,#0x268
        0x002090bc:    f648fee8    H...    BL       le_adv_set_param ; 0x51e90
;;;145        le_adv_set_param(GAP_PARAM_ADV_INTERVAL_MAX, sizeof(adv_int_max), &adv_int_max);
        0x002090c0:    aa12        ..      ADD      r2,sp,#0x48
        0x002090c2:    2102        .!      MOVS     r1,#2
        0x002090c4:    f2402069    @.i     MOV      r0,#0x269
        0x002090c8:    f648fee2    H...    BL       le_adv_set_param ; 0x51e90
;;;146        le_adv_set_param(GAP_PARAM_ADV_DATA, sizeof(adv_data), (void *)adv_data);
        0x002090cc:    4a6c        lJ      LDR      r2,[pc,#432] ; [0x209280] = 0x20b780
        0x002090ce:    2115        .!      MOVS     r1,#0x15
        0x002090d0:    3a18        .:      SUBS     r2,r2,#0x18
        0x002090d2:    f2402061    @.a     MOV      r0,#0x261
        0x002090d6:    f648fedb    H...    BL       le_adv_set_param ; 0x51e90
;;;147        le_adv_set_param(GAP_PARAM_SCAN_RSP_DATA, sizeof(scan_rsp_data), (void *)scan_rsp_data);
        0x002090da:    4a69        iJ      LDR      r2,[pc,#420] ; [0x209280] = 0x20b780
        0x002090dc:    2104        .!      MOVS     r1,#4
        0x002090de:    3a1c        .:      SUBS     r2,r2,#0x1c
        0x002090e0:    f2402062    @.b     MOV      r0,#0x262
        0x002090e4:    f648fed4    H...    BL       le_adv_set_param ; 0x51e90
;;;148    
;;;149        /* Setup the GAP Bond Manager */
;;;150        gap_set_param(GAP_PARAM_BOND_PAIRING_MODE, sizeof(auth_pair_mode), &auth_pair_mode);
        0x002090e8:    aa1a        ..      ADD      r2,sp,#0x68
        0x002090ea:    2101        .!      MOVS     r1,#1
        0x002090ec:    f2402002    @..     MOV      r0,#0x202
        0x002090f0:    f642ff5b    B.[.    BL       gap_set_param ; 0x4bfaa
;;;151        gap_set_param(GAP_PARAM_BOND_AUTHEN_REQUIREMENTS_FLAGS, sizeof(auth_flags), &auth_flags);
        0x002090f4:    aa1b        ..      ADD      r2,sp,#0x6c
        0x002090f6:    2102        .!      MOVS     r1,#2
        0x002090f8:    f2402003    @..     MOV      r0,#0x203
        0x002090fc:    f642ff55    B.U.    BL       gap_set_param ; 0x4bfaa
;;;152        gap_set_param(GAP_PARAM_BOND_IO_CAPABILITIES, sizeof(auth_io_cap), &auth_io_cap);
        0x00209100:    aa13        ..      ADD      r2,sp,#0x4c
        0x00209102:    2101        .!      MOVS     r1,#1
        0x00209104:    f44f7001    O..p    MOV      r0,#0x204
        0x00209108:    f642ff4f    B.O.    BL       gap_set_param ; 0x4bfaa
;;;153        gap_set_param(GAP_PARAM_BOND_OOB_ENABLED, sizeof(auth_oob), &auth_oob);
        0x0020910c:    aa14        ..      ADD      r2,sp,#0x50
        0x0020910e:    2101        .!      MOVS     r1,#1
        0x00209110:    f2402005    @..     MOV      r0,#0x205
        0x00209114:    f642ff49    B.I.    BL       gap_set_param ; 0x4bfaa
;;;154        le_bond_set_param(GAP_PARAM_BOND_FIXED_PASSKEY, sizeof(auth_fix_passkey), &auth_fix_passkey);
        0x00209118:    aa16        ..      ADD      r2,sp,#0x58
        0x0020911a:    2104        .!      MOVS     r1,#4
        0x0020911c:    f2402011    @..     MOV      r0,#0x211
        0x00209120:    f643f865    C.e.    BL       le_bond_set_param ; 0x4c1ee
;;;155        le_bond_set_param(GAP_PARAM_BOND_FIXED_PASSKEY_ENABLE, sizeof(auth_use_fix_passkey),
        0x00209124:    aa15        ..      ADD      r2,sp,#0x54
        0x00209126:    2101        .!      MOVS     r1,#1
        0x00209128:    f2402012    @..     MOV      r0,#0x212
        0x0020912c:    f643f85f    C._.    BL       le_bond_set_param ; 0x4c1ee
;;;156                          &auth_use_fix_passkey);
;;;157        le_bond_set_param(GAP_PARAM_BOND_SEC_REQ_ENABLE, sizeof(auth_sec_req_enable), &auth_sec_req_enable);
        0x00209130:    aa17        ..      ADD      r2,sp,#0x5c
        0x00209132:    2101        .!      MOVS     r1,#1
        0x00209134:    f2402013    @..     MOV      r0,#0x213
        0x00209138:    f643f859    C.Y.    BL       le_bond_set_param ; 0x4c1ee
;;;158        le_bond_set_param(GAP_PARAM_BOND_SEC_REQ_REQUIREMENT, sizeof(auth_sec_req_flags),
        0x0020913c:    aa18        ..      ADD      r2,sp,#0x60
        0x0020913e:    2102        .!      MOVS     r1,#2
        0x00209140:    f44f7005    O..p    MOV      r0,#0x214
        0x00209144:    f643f853    C.S.    BL       le_bond_set_param ; 0x4c1ee
;;;159                          &auth_sec_req_flags);
;;;160    
;;;161        /* register gap message callback */
;;;162        le_register_app_cb(app_gap_callback);
        0x00209148:    484e        NH      LDR      r0,[pc,#312] ; [0x209284] = 0x209869
        0x0020914a:    f643fd7a    C.z.    BL       le_register_app_cb ; 0x4cc42
;;;163    
;;;164    }
        0x0020914e:    b01c        ..      ADD      sp,sp,#0x70
        0x00209150:    bd10        ..      POP      {r4,pc}
    app_le_profile_init
;;;165    
;;;166    /**
;;;167     * @brief  Add GATT services and register callbacks
;;;168     * @return void
;;;169     */
;;;170    void app_le_profile_init(void)
;;;171    {
        0x00209152:    b510        ..      PUSH     {r4,lr}
;;;172        server_init(4);
        0x00209154:    2004        .       MOVS     r0,#4
        0x00209156:    f646f9d5    F...    BL       server_init ; 0x4f504
;;;173        hid_srv_id = hids_add_service(app_profile_callback);
        0x0020915a:    484b        KH      LDR      r0,[pc,#300] ; [0x209288] = 0x209925
        0x0020915c:    f7fff811    ....    BL       hids_add_service ; 0x208182
        0x00209160:    494a        JI      LDR      r1,[pc,#296] ; [0x20928c] = 0x20bc85
        0x00209162:    7008        .p      STRB     r0,[r1,#0]
;;;174        bas_srv_id = bas_add_service(app_profile_callback);
        0x00209164:    4848        HH      LDR      r0,[pc,#288] ; [0x209288] = 0x209925
        0x00209166:    f7fff8cb    ....    BL       bas_add_service ; 0x208300
        0x0020916a:    4949        II      LDR      r1,[pc,#292] ; [0x209290] = 0x20bc86
        0x0020916c:    7008        .p      STRB     r0,[r1,#0]
;;;175        dis_srv_id = dis_add_service(app_profile_callback);
        0x0020916e:    4846        FH      LDR      r0,[pc,#280] ; [0x209288] = 0x209925
        0x00209170:    f7fffa03    ....    BL       dis_add_service ; 0x20857a
        0x00209174:    4947        GI      LDR      r1,[pc,#284] ; [0x209294] = 0x20bc89
        0x00209176:    7008        .p      STRB     r0,[r1,#0]
;;;176        ota_srv_id = ota_add_service(app_profile_callback);
        0x00209178:    4843        CH      LDR      r0,[pc,#268] ; [0x209288] = 0x209925
        0x0020917a:    f7fffb51    ..Q.    BL       ota_add_service ; 0x208820
        0x0020917e:    4946        FI      LDR      r1,[pc,#280] ; [0x209298] = 0x20bc87
        0x00209180:    7008        .p      STRB     r0,[r1,#0]
;;;177    
;;;178        server_register_app_cb(app_profile_callback);
        0x00209182:    e8bd4010    ...@    POP      {r4,lr}
        0x00209186:    4840        @H      LDR      r0,[pc,#256] ; [0x209288] = 0x209925
        0x00209188:    f646b9d5    F...    B        server_register_app_cb ; 0x4f536
    board_init
;;;179    
;;;180    }
;;;181    
;;;182    /**
;;;183     * @brief    Contains the initialization of pinmux settings and pad settings
;;;184     * @note     All the pinmux settings and pad settings shall be initiated in this function,
;;;185     *           but if legacy driver is used, the initialization of pinmux setting and pad setting
;;;186     *           should be peformed with the IO initializing.
;;;187     * @return   void
;;;188     */
;;;189    void board_init(void)
;;;190    {
        0x0020918c:    b510        ..      PUSH     {r4,lr}
;;;191        keyscan_init_data();
        0x0020918e:    f000fdce    ....    BL       keyscan_init_data ; 0x209d2e
;;;192        keyscan_pinmux_config();
        0x00209192:    f000fcb8    ....    BL       keyscan_pinmux_config ; 0x209b06
;;;193        gpio_button_pinmux_config();
        0x00209196:    f001f883    ....    BL       gpio_button_pinmux_config ; 0x20a2a0
;;;194    
;;;195        keyscan_pad_config();
        0x0020919a:    f000fc71    ..q.    BL       keyscan_pad_config ; 0x209a80
;;;196        gpio_button_pad_config();
        0x0020919e:    e8bd4010    ...@    POP      {r4,lr}
        0x002091a2:    f001b881    ....    B.W      gpio_button_pad_config ; 0x20a2a8
    driver_init
;;;197    }
;;;198    
;;;199    /**
;;;200     * @brief    Contains the initialization of peripherals
;;;201     * @note     Both new architecture driver and legacy driver initialization method can be used
;;;202     * @return   void
;;;203     */
;;;204    void driver_init(void)
;;;205    {
        0x002091a6:    b510        ..      PUSH     {r4,lr}
;;;206        keyscan_init_driver(KeyScan_Debounce_Enable);
        0x002091a8:    f04f4000    O..@    MOV      r0,#0x80000000
        0x002091ac:    f000fd5f    .._.    BL       keyscan_init_driver ; 0x209c6e
;;;207        keyscan_nvic_config();
        0x002091b0:    f000fdb0    ....    BL       keyscan_nvic_config ; 0x209d14
;;;208        keyscan_init_timer();
        0x002091b4:    f000fe7f    ....    BL       keyscan_init_timer ; 0x209eb6
;;;209    
;;;210        keyboard_button_init();
        0x002091b8:    f001f89e    ....    BL       keyboard_button_init ; 0x20a2f8
;;;211        longpress_timer_init();
        0x002091bc:    f001f915    ....    BL       longpress_timer_init ; 0x20a3ea
;;;212    
;;;213        adv_led_timer_init();
        0x002091c0:    f001fa13    ....    BL       adv_led_timer_init ; 0x20a5ea
;;;214        keyboard_led_init();
        0x002091c4:    f001fa5d    ..].    BL       keyboard_led_init ; 0x20a682
;;;215    
;;;216        connection_param_updata_timer_init();
        0x002091c8:    e8bd4010    ...@    POP      {r4,lr}
        0x002091cc:    f001bb23    ..#.    B.W      connection_param_updata_timer_init ; 0x20a816
    keyboard_enter_dlps
;;;217    }
;;;218    
;;;219    /**
;;;220    * @brief  keyboard enter dlps callback function
;;;221    * @param  No parameter.
;;;222    * @return void
;;;223    */
;;;224    void keyboard_enter_dlps(void)
;;;225    {
        0x002091d0:    b510        ..      PUSH     {r4,lr}
;;;226        keyscan_enter_dlps_config();
        0x002091d2:    f000fce4    ....    BL       keyscan_enter_dlps_config ; 0x209b9e
;;;227    
;;;228        gpio_button_enter_dlps_config();
        0x002091d6:    e8bd4010    ...@    POP      {r4,lr}
        0x002091da:    f001b877    ..w.    B.W      gpio_button_enter_dlps_config ; 0x20a2cc
    keyboard_exit_dlps
;;;229    }
;;;230    
;;;231    /**
;;;232    * @brief   keyboard exit dlps callback function
;;;233    * @param   No parameter.
;;;234    * @return  void
;;;235    */
;;;236    void keyboard_exit_dlps(void)
;;;237    {
        0x002091de:    b510        ..      PUSH     {r4,lr}
;;;238        keyscan_exit_dlps_config();
        0x002091e0:    f000fd8c    ....    BL       keyscan_exit_dlps_config ; 0x209cfc
;;;239    
;;;240        gpio_button_exit_dlps_config();
        0x002091e4:    e8bd4010    ...@    POP      {r4,lr}
        0x002091e8:    f001b87b    ..{.    B.W      gpio_button_exit_dlps_config ; 0x20a2e2
    keyboard_enter_dlps_check
;;;241    }
;;;242    
;;;243    /**
;;;244     * @brief    keyboard_enter_dlps_check
;;;245     * @note     APP register this callback for dlps check
;;;246     */
;;;247    bool keyboard_enter_dlps_check(void)
;;;248    {
;;;249        /*Here, check following condition to judge whether enter dlps or not*/
;;;250        return keyscan_global_data.is_allowed_to_enter_dlps;
        0x002091ec:    482b        +H      LDR      r0,[pc,#172] ; [0x20929c] = 0x20bc90
        0x002091ee:    7840        @x      LDRB     r0,[r0,#1]
;;;251    }
        0x002091f0:    4770        pG      BX       lr
    System_Handler
;;;252    
;;;253    /**
;;;254     * @brief    System_Handler
;;;255     * @note     Wake up by pad will trigger this interrupt
;;;256     * @return   void
;;;257     */
;;;258    void System_Handler(void)
;;;259    {
        0x002091f2:    b570        p.      PUSH     {r4-r6,lr}
;;; ..\..\..\inc\platform\cmsis\core_cm4.h
;;;1659       NVIC->ICER[((uint32_t)(IRQn) >> 5)] = (1 << ((uint32_t)(IRQn) & 0x1F)); /* disable interrupt */
        0x002091f4:    f04f25e0    O..%    MOV      r5,#0xe000e000
        0x002091f8:    2401        .$      MOVS     r4,#1
        0x002091fa:    f8c54180    ...A    STR      r4,[r5,#0x180]
;;; ..\..\..\src\app\keyboard\main.c
;;;263        tmpVal = btaon_fast_read_safe(0x2b);
        0x002091fe:    202b        +       MOVS     r0,#0x2b
        0x00209200:    f635fe00    5...    BL       btaon_fast_read_safe ; 0x3ee04
;;;264    
;;;265        if (tmpVal & BIT7)
        0x00209204:    0601        ..      LSLS     r1,r0,#24
        0x00209206:    d508        ..      BPL      0x20921a ; System_Handler + 40
;;;266        {
;;;267            /* pad signal wake up event */
;;;268            btaon_fast_write_safe(0x2b, (tmpVal | BIT7));
        0x00209208:    f0400180    @...    ORR      r1,r0,#0x80
        0x0020920c:    202b        +       MOVS     r0,#0x2b
        0x0020920e:    f635fe1a    5...    BL       btaon_fast_write_safe ; 0x3ee46
;;;269            handle_pair_button_wakeup();
        0x00209212:    f001f96b    ..k.    BL       handle_pair_button_wakeup ; 0x20a4ec
;;;270            handle_keyscan_wakeup();
        0x00209216:    f000fe6e    ..n.    BL       handle_keyscan_wakeup ; 0x209ef6
;;; ..\..\..\inc\platform\cmsis\core_cm4.h
;;;1700       NVIC->ICPR[((uint32_t)(IRQn) >> 5)] = (1 << ((uint32_t)(IRQn) &
        0x0020921a:    f8c54280    ...B    STR      r4,[r5,#0x280]
;;; ..\..\..\src\app\keyboard\main.c
;;;274    }
        0x0020921e:    bd70        p.      POP      {r4-r6,pc}
    pwr_mgr_init
;;;275    
;;;276    /**
;;;277     * @brief    Contains the power mode settings
;;;278     * @return   void
;;;279     */
;;;280    void pwr_mgr_init(void)
;;;281    {
        0x00209220:    b510        ..      PUSH     {r4,lr}
;;;282        if (false == dlps_check_cb_reg(keyboard_enter_dlps_check))
        0x00209222:    f2af0037    ..7.    ADR      r0,{pc}-0x35 ; 0x2091ed
        0x00209226:    f5fff9ea    ....    BL       dlps_check_cb_reg ; 0x85fe
        0x0020922a:    b920         .      CBNZ     r0,0x209236 ; pwr_mgr_init + 22
;;;283        {
;;;284            APP_PRINT_INFO0("keyboard_enter_dlps_check reg fail!");
        0x0020922c:    2200        ."      MOVS     r2,#0
        0x0020922e:    491c        .I      LDR      r1,[pc,#112] ; [0x2092a0] = 0x8800404
        0x00209230:    481c        .H      LDR      r0,[pc,#112] ; [0x2092a4] = 0x21103002
        0x00209232:    f5fefc14    ....    BL       log_buffer ; 0x7a5e
;;;285        }
;;;286        DLPS_IORegUserDlpsEnterCb(keyboard_enter_dlps);
        0x00209236:    f2af0067    ..g.    ADR      r0,{pc}-0x65 ; 0x2091d1
;;; ..\..\..\inc\peripheral\rtl876x_io_dlps.h
;;;88         User_IO_EnterDlpsCB = func;
        0x0020923a:    491b        .I      LDR      r1,[pc,#108] ; [0x2092a8] = 0x20bba0
;;; ..\..\..\src\app\keyboard\main.c
;;;287        DLPS_IORegUserDlpsExitCb(keyboard_exit_dlps);
        0x0020923c:    6008        .`      STR      r0,[r1,#0]
        0x0020923e:    f2af0061    ..a.    ADR      r0,{pc}-0x5f ; 0x2091df
;;; ..\..\..\inc\peripheral\rtl876x_io_dlps.h
;;;72         User_IO_ExitDlpsCB = func;
        0x00209242:    491a        .I      LDR      r1,[pc,#104] ; [0x2092ac] = 0x20bb9c
;;; ..\..\..\src\app\keyboard\main.c
;;;288        DLPS_IORegister();
        0x00209244:    6008        .`      STR      r0,[r1,#0]
        0x00209246:    f7fffb8f    ....    BL       DLPS_IORegister ; 0x208968
;;;289    
;;;290        lps_mode_set(LPM_DLPS_MODE);
        0x0020924a:    e8bd4010    ...@    POP      {r4,lr}
        0x0020924e:    2002        .       MOVS     r0,#2
        0x00209250:    f5ffbb05    ....    B        lps_mode_set ; 0x885e
    task_init
;;;291    }
;;;292    
;;;293    /**
;;;294     * @brief    Contains the initialization of all tasks
;;;295     * @note     There is only one task in BLE Peripheral APP, thus only one APP task is init here
;;;296     * @return   void
;;;297     */
;;;298    void task_init(void)
;;;299    {
;;;300        app_task_init();
        0x00209254:    f000b869    ..i.    B.W      app_task_init ; 0x20932a
    main
;;;301    }
;;;302    
;;;303    /**
;;;304     * @brief    Entry of APP code
;;;305     * @return   int (To avoid compile warning)
;;;306     */
;;;307    int main(void)
;;;308    {
        0x00209258:    b510        ..      PUSH     {r4,lr}
;;;309        board_init();
        0x0020925a:    f7ffff97    ....    BL       board_init ; 0x20918c
;;;310        le_gap_init(1);
        0x0020925e:    2001        .       MOVS     r0,#1
        0x00209260:    f643fcac    C...    BL       le_gap_init ; 0x4cbbc
;;;311        gap_lib_init();
        0x00209264:    f001fcb2    ....    BL       gap_lib_init ; 0x20abcc
;;;312        app_le_gap_init();
        0x00209268:    f7fffeba    ....    BL       app_le_gap_init ; 0x208fe0
;;;313        app_le_profile_init();
        0x0020926c:    f7ffff71    ..q.    BL       app_le_profile_init ; 0x209152
;;;314        pwr_mgr_init();
        0x00209270:    f7ffffd6    ....    BL       pwr_mgr_init ; 0x209220
        0x00209274:    f000f859    ..Y.    BL       app_task_init ; 0x20932a
;;;315        task_init();
;;;316        os_sched_start();
        0x00209278:    f61dfaa3    ....    BL       os_sched_start ; 0x267c2
;;;317    
;;;318        return 0;
        0x0020927c:    2000        .       MOVS     r0,#0
;;;319    }
        0x0020927e:    bd10        ..      POP      {r4,pc}
    $d
        0x00209280:    0020b780    .. .    DCD    2144128
        0x00209284:    00209869    i. .    DCD    2136169
        0x00209288:    00209925    %. .    DCD    2136357
        0x0020928c:    0020bc85    .. .    DCD    2145413
        0x00209290:    0020bc86    .. .    DCD    2145414
        0x00209294:    0020bc89    .. .    DCD    2145417
        0x00209298:    0020bc87    .. .    DCD    2145415
        0x0020929c:    0020bc90    .. .    DCD    2145424
        0x002092a0:    08800404    ....    DCD    142607364
        0x002092a4:    21103002    .0.!    DCD    554708994
        0x002092a8:    0020bba0    .. .    DCD    2145184
        0x002092ac:    0020bb9c    .. .    DCD    2145180
    $t
    .text
    app_main_task
;;; ..\..\..\src\app\keyboard\app_task.c
;;;89     {
        0x002092b0:    b51f        ..      PUSH     {r0-r4,lr}
;;;90         uint8_t event;
;;;91         os_msg_queue_create(&io_queue_handle, MAX_NUMBER_OF_IO_MESSAGE, sizeof(T_IO_MSG));
        0x002092b2:    205b        [       MOVS     r0,#0x5b
        0x002092b4:    9000        ..      STR      r0,[sp,#0]
        0x002092b6:    4b38        8K      LDR      r3,[pc,#224] ; [0x209398] = 0x20b7c0
        0x002092b8:    2208        ."      MOVS     r2,#8
        0x002092ba:    2120         !      MOVS     r1,#0x20
        0x002092bc:    4837        7H      LDR      r0,[pc,#220] ; [0x20939c] = 0x20bc7c
        0x002092be:    f61cfe19    ....    BL       os_msg_queue_create_intern ; 0x25ef4
;;;92         os_msg_queue_create(&evt_queue_handle, MAX_NUMBER_OF_EVENT_MESSAGE, sizeof(uint8_t));
        0x002092c2:    205c        \       MOVS     r0,#0x5c
        0x002092c4:    9000        ..      STR      r0,[sp,#0]
        0x002092c6:    4835        5H      LDR      r0,[pc,#212] ; [0x20939c] = 0x20bc7c
        0x002092c8:    4b33        3K      LDR      r3,[pc,#204] ; [0x209398] = 0x20b7c0
        0x002092ca:    2201        ."      MOVS     r2,#1
        0x002092cc:    2140        @!      MOVS     r1,#0x40
        0x002092ce:    1f00        ..      SUBS     r0,r0,#4
        0x002092d0:    f61cfe10    ....    BL       os_msg_queue_create_intern ; 0x25ef4
;;;93     
;;;94         gap_start_bt_stack(evt_queue_handle, io_queue_handle, MAX_NUMBER_OF_GAP_MESSAGE);
        0x002092d4:    4c31        1L      LDR      r4,[pc,#196] ; [0x20939c] = 0x20bc7c
        0x002092d6:    2220         "      MOVS     r2,#0x20
        0x002092d8:    3c08        .<      SUBS     r4,r4,#8
        0x002092da:    e9d40101    ....    LDRD     r0,r1,[r4,#4]
        0x002092de:    f642fdc4    B...    BL       gap_start_bt_stack ; 0x4be6a
;;;95     
;;;96         extern void driver_init(void);
;;;97         driver_init();
        0x002092e2:    f7ffff60    ..`.    BL       driver_init ; 0x2091a6
;;;98         while (true)
;;;99         {
;;;100            if (os_msg_recv(evt_queue_handle, &event, 0xFFFFFFFF) == true)
        0x002092e6:    2564        d%      MOVS     r5,#0x64
        0x002092e8:    f04f37ff    O..7    MOV      r7,#0xffffffff
        0x002092ec:    2669        i&      MOVS     r6,#0x69
        0x002092ee:    9500        ..      STR      r5,[sp,#0]
        0x002092f0:    4b29        )K      LDR      r3,[pc,#164] ; [0x209398] = 0x20b7c0
        0x002092f2:    463a        :F      MOV      r2,r7
        0x002092f4:    a903        ..      ADD      r1,sp,#0xc
        0x002092f6:    6860        `h      LDR      r0,[r4,#4]
        0x002092f8:    f61cfea4    ....    BL       os_msg_recv_intern ; 0x26044
        0x002092fc:    2800        .(      CMP      r0,#0
        0x002092fe:    d0f6        ..      BEQ      0x2092ee ; app_main_task + 62
;;;101            {
;;;102                if (event == EVENT_IO_TO_APP)
        0x00209300:    f89d000c    ....    LDRB     r0,[sp,#0xc]
        0x00209304:    2802        .(      CMP      r0,#2
        0x00209306:    d002        ..      BEQ      0x20930e ; app_main_task + 94
        0x00209308:    f642fe1c    B...    BL       gap_handle_msg ; 0x4bf44
        0x0020930c:    e7ef        ..      B        0x2092ee ; app_main_task + 62
;;;103                {
;;;104                    T_IO_MSG io_msg;
;;;105                    if (os_msg_recv(io_queue_handle, &io_msg, 0) == true)
        0x0020930e:    9600        ..      STR      r6,[sp,#0]
        0x00209310:    4b21        !K      LDR      r3,[pc,#132] ; [0x209398] = 0x20b7c0
        0x00209312:    2200        ."      MOVS     r2,#0
        0x00209314:    a901        ..      ADD      r1,sp,#4
        0x00209316:    68a0        .h      LDR      r0,[r4,#8]
        0x00209318:    f61cfe94    ....    BL       os_msg_recv_intern ; 0x26044
        0x0020931c:    2800        .(      CMP      r0,#0
        0x0020931e:    d0e6        ..      BEQ      0x2092ee ; app_main_task + 62
        0x00209320:    e9dd0101    ....    LDRD     r0,r1,[sp,#4]
;;;106                    {
;;;107                        app_handle_io_msg(io_msg);
        0x00209324:    f000fa4c    ..L.    BL       app_handle_io_msg ; 0x2097c0
        0x00209328:    e7e1        ..      B        0x2092ee ; app_main_task + 62
    app_task_init
        0x0020932a:    b51c        ..      PUSH     {r2-r4,lr}
;;; ..\..\..\src\app\keyboard\app_task.c (62)
        0x0020932c:    2101        .!      MOVS     r1,#1
        0x0020932e:    0288        ..      LSLS     r0,r1,#10
        0x00209330:    2300        .#      MOVS     r3,#0
        0x00209332:    f2af0283    ....    ADR      r2,{pc}-0x81 ; 0x2092b1
        0x00209336:    e9cd0100    ....    STRD     r0,r1,[sp,#0]
        0x0020933a:    4818        .H      LDR      r0,[pc,#96] ; [0x20939c] = 0x20bc7c
        0x0020933c:    a118        ..      ADR      r1,{pc}+0x64 ; 0x2093a0
        0x0020933e:    3808        .8      SUBS     r0,r0,#8
        0x00209340:    f61dfb46    ..F.    BL       os_task_create ; 0x269d0
;;;63                        APP_TASK_PRIORITY);
;;;64     }
        0x00209344:    bd1c        ..      POP      {r2-r4,pc}
    app_send_msg_to_apptask
;;;65     
;;;66     bool app_send_msg_to_apptask(T_IO_MSG *p_msg)
;;;67     {
        0x00209346:    b57c        |.      PUSH     {r2-r6,lr}
;;;68         uint8_t event = EVENT_IO_TO_APP;
        0x00209348:    2202        ."      MOVS     r2,#2
        0x0020934a:    f88d2004    ...     STRB     r2,[sp,#4]
;;;69     
;;;70         if (os_msg_send(io_queue_handle, p_msg, 0) == false)
        0x0020934e:    4c13        .L      LDR      r4,[pc,#76] ; [0x20939c] = 0x20bc7c
        0x00209350:    2246        F"      MOVS     r2,#0x46
        0x00209352:    4b11        .K      LDR      r3,[pc,#68] ; [0x209398] = 0x20b7c0
        0x00209354:    9200        ..      STR      r2,[sp,#0]
        0x00209356:    3c08        .<      SUBS     r4,r4,#8
        0x00209358:    4601        .F      MOV      r1,r0
        0x0020935a:    3b18        .;      SUBS     r3,r3,#0x18
        0x0020935c:    2200        ."      MOVS     r2,#0
        0x0020935e:    68a0        .h      LDR      r0,[r4,#8]
        0x00209360:    f61cfe40    ..@.    BL       os_msg_send_intern ; 0x25fe4
        0x00209364:    4d0f        .M      LDR      r5,[pc,#60] ; [0x2093a4] = 0x21103000
        0x00209366:    b158        X.      CBZ      r0,0x209380 ; app_send_msg_to_apptask + 58
        0x00209368:    204b        K       MOVS     r0,#0x4b
        0x0020936a:    4b0b        .K      LDR      r3,[pc,#44] ; [0x209398] = 0x20b7c0
        0x0020936c:    9000        ..      STR      r0,[sp,#0]
        0x0020936e:    3b18        .;      SUBS     r3,r3,#0x18
        0x00209370:    2200        ."      MOVS     r2,#0
        0x00209372:    a901        ..      ADD      r1,sp,#4
        0x00209374:    6860        `h      LDR      r0,[r4,#4]
        0x00209376:    f61cfe35    ..5.    BL       os_msg_send_intern ; 0x25fe4
        0x0020937a:    b120         .      CBZ      r0,0x209386 ; app_send_msg_to_apptask + 64
        0x0020937c:    2001        .       MOVS     r0,#1
        0x0020937e:    bd7c        |.      POP      {r2-r6,pc}
;;;71         {
;;;72             APP_PRINT_ERROR0("send_io_msg_to_app fail");
        0x00209380:    2200        ."      MOVS     r2,#0
        0x00209382:    4909        .I      LDR      r1,[pc,#36] ; [0x2093a8] = 0x880042c
;;;73             return false;
        0x00209384:    e002        ..      B        0x20938c ; app_send_msg_to_apptask + 70
;;;74         }
;;;75         if (os_msg_send(evt_queue_handle, &event, 0) == false)
;;;76         {
;;;77             APP_PRINT_ERROR0("send_evt_msg_to_app fail");
        0x00209386:    4908        .I      LDR      r1,[pc,#32] ; [0x2093a8] = 0x880042c
        0x00209388:    2200        ."      MOVS     r2,#0
        0x0020938a:    311c        .1      ADDS     r1,r1,#0x1c
        0x0020938c:    4628        (F      MOV      r0,r5
        0x0020938e:    f5fefb66    ..f.    BL       log_buffer ; 0x7a5e
;;;78             return false;
        0x00209392:    2000        .       MOVS     r0,#0
;;;79         }
;;;80         return true;
;;;81     }
        0x00209394:    bd7c        |.      POP      {r2-r6,pc}
    $d
        0x00209396:    0000        ..      DCW    0
        0x00209398:    0020b7c0    .. .    DCD    2144192
        0x0020939c:    0020bc7c    |. .    DCD    2145404
        0x002093a0:    00707061    app.    DCD    7368801
        0x002093a4:    21103000    .0.!    DCD    554708992
        0x002093a8:    0880042c    ,...    DCD    142607404
    $t
    .text
    app_handle_authen_state_evt
;;; ..\..\..\src\app\keyboard\keyboard_app.c
;;;273    {
        0x002093ac:    b5f8        ..      PUSH     {r3-r7,lr}
        0x002093ae:    4efc        .N      LDR      r6,[pc,#1008] ; [0x2097a0] = 0x21103002
;;; ..\..\..\src\app\keyboard\keyboard_app.c (273)
        0x002093b0:    4615        .F      MOV      r5,r2
        0x002093b2:    460c        .F      MOV      r4,r1
;;;274        APP_PRINT_INFO2("app_handle_authen_state_evt:conn_id %d, cause 0x%x", conn_id, cause);
        0x002093b4:    4603        .F      MOV      r3,r0
        0x002093b6:    9200        ..      STR      r2,[sp,#0]
        0x002093b8:    2202        ."      MOVS     r2,#2
        0x002093ba:    49f8        .I      LDR      r1,[pc,#992] ; [0x20979c] = 0x88006a4
        0x002093bc:    4630        0F      MOV      r0,r6
        0x002093be:    f5fefb4e    ..N.    BL       log_buffer ; 0x7a5e
;;;275    
;;;276        switch (new_state)
        0x002093c2:    b154        T.      CBZ      r4,0x2093da ; app_handle_authen_state_evt + 46
        0x002093c4:    2c01        .,      CMP      r4,#1
        0x002093c6:    d00c        ..      BEQ      0x2093e2 ; app_handle_authen_state_evt + 54
        0x002093c8:    2201        ."      MOVS     r2,#1
        0x002093ca:    b001        ..      ADD      sp,sp,#4
        0x002093cc:    4623        #F      MOV      r3,r4
        0x002093ce:    1eb0        ..      SUBS     r0,r6,#2
        0x002093d0:    e8bd40f0    ...@    POP      {r4-r7,lr}
        0x002093d4:    49f3        .I      LDR      r1,[pc,#972] ; [0x2097a4] = 0x88007a8
        0x002093d6:    f5febb42    ..B.    B        log_buffer ; 0x7a5e
;;;277        {
;;;278        case GAP_AUTHEN_STATE_STARTED:
;;;279            {
;;;280                APP_PRINT_INFO0("app_handle_authen_state_evt: GAP_AUTHEN_STATE_STARTED");
        0x002093da:    49f0        .I      LDR      r1,[pc,#960] ; [0x20979c] = 0x88006a4
        0x002093dc:    2200        ."      MOVS     r2,#0
        0x002093de:    3138        81      ADDS     r1,r1,#0x38
;;;281            }
;;;282            break;
        0x002093e0:    e004        ..      B        0x2093ec ; app_handle_authen_state_evt + 64
        0x002093e2:    f04f0200    O...    MOV      r2,#0
;;;283    
;;;284        case GAP_AUTHEN_STATE_COMPLETE:
;;;285            {
;;;286                if (cause == GAP_SUCCESS)
        0x002093e6:    b135        5.      CBZ      r5,0x2093f6 ; app_handle_authen_state_evt + 74
        0x002093e8:    49ee        .I      LDR      r1,[pc,#952] ; [0x2097a4] = 0x88007a8
        0x002093ea:    3948        H9      SUBS     r1,r1,#0x48
        0x002093ec:    4630        0F      MOV      r0,r6
        0x002093ee:    e8bd40f8    ...@    POP      {r3-r7,lr}
        0x002093f2:    f5febb34    ..4.    B        log_buffer ; 0x7a5e
;;;287                {
;;;288                    APP_PRINT_INFO0("app_handle_authen_state_evt: GAP_AUTHEN_STATE_COMPLETE pair success");
        0x002093f6:    49e9        .I      LDR      r1,[pc,#932] ; [0x20979c] = 0x88006a4
        0x002093f8:    4630        0F      MOV      r0,r6
        0x002093fa:    3174        t1      ADDS     r1,r1,#0x74
        0x002093fc:    f5fefb2f    ../.    BL       log_buffer ; 0x7a5e
;;;289                    if (resolv_list_exist == false)
        0x00209400:    48e9        .H      LDR      r0,[pc,#932] ; [0x2097a8] = 0x20bc80
        0x00209402:    7900        .y      LDRB     r0,[r0,#4]
        0x00209404:    2800        .(      CMP      r0,#0
        0x00209406:    d10a        ..      BNE      0x20941e ; app_handle_authen_state_evt + 114
;;;290                    {
;;;291                        T_LE_KEY_ENTRY *p_entry;
;;;292                        p_entry = le_get_high_priority_bond();
        0x00209408:    f646ff9a    F...    BL       le_get_high_priority_bond ; 0x50340
;;;293                        if ((p_entry != NULL) && (p_entry->is_used))
        0x0020940c:    2800        .(      CMP      r0,#0
        0x0020940e:    d006        ..      BEQ      0x20941e ; app_handle_authen_state_evt + 114
        0x00209410:    7801        .x      LDRB     r1,[r0,#0]
        0x00209412:    2900        .)      CMP      r1,#0
        0x00209414:    d003        ..      BEQ      0x20941e ; app_handle_authen_state_evt + 114
;;;294                        {
;;;295                            privacy_add_device(p_entry);
        0x00209416:    e8bd40f8    ...@    POP      {r3-r7,lr}
        0x0020941a:    f001bac1    ....    B.W      privacy_add_device ; 0x20a9a0
;;;296                        }
;;;297                    }
;;;298                }
;;;299                else
;;;300                {
;;;301                    APP_PRINT_INFO0("app_handle_authen_state_evt: GAP_AUTHEN_STATE_COMPLETE pair failed");
;;;302                }
;;;303            }
;;;304            break;
;;;305    
;;;306        default:
;;;307            {
;;;308                APP_PRINT_ERROR1("app_handle_authen_state_evt: unknown newstate %d", new_state);
;;;309            }
;;;310            break;
;;;311        }
;;;312    }
        0x0020941e:    bdf8        ..      POP      {r3-r7,pc}
    app_handle_conn_param_update_evt
;;;313    
;;;314    /**
;;;315     * @brief    Handle msg GAP_MSG_LE_CONN_MTU_INFO
;;;316     * @note     This msg is used to inform APP that exchange mtu procedure is completed.
;;;317     * @param[in] conn_id Connection ID
;;;318     * @param[in] mtu_size  New mtu size
;;;319     * @return   void
;;;320     */
;;;321    void app_handle_conn_mtu_info_evt(uint8_t conn_id, uint16_t mtu_size)
;;;322    {
;;;323        APP_PRINT_INFO2("app_handle_conn_mtu_info_evt: conn_id %d, mtu_size %d", conn_id, mtu_size);
;;;324    }
;;;325    
;;;326    /**
;;;327     * @brief    Handle msg GAP_MSG_LE_CONN_PARAM_UPDATE
;;;328     * @note     All the connection parameter update change  events are pre-handled in this function.
;;;329     * @param[in] conn_id Connection ID
;;;330     * @param[in] status  New update state
;;;331     * @param[in] cause Use this cause when status is GAP_CONN_PARAM_UPDATE_STATUS_FAIL
;;;332     * @return   void
;;;333     */
;;;334    void app_handle_conn_param_update_evt(uint8_t conn_id, uint8_t status, uint16_t cause)
;;;335    {
        0x00209420:    b530        0.      PUSH     {r4,r5,lr}
        0x00209422:    4cdf        .L      LDR      r4,[pc,#892] ; [0x2097a0] = 0x21103002
;;; ..\..\..\src\app\keyboard\keyboard_app.c (335)
        0x00209424:    b085        ..      SUB      sp,sp,#0x14
        0x00209426:    4605        .F      MOV      r5,r0
        0x00209428:    b159        Y.      CBZ      r1,0x209442 ; app_handle_conn_param_update_evt + 34
;;;336        switch (status)
        0x0020942a:    2901        .)      CMP      r1,#1
        0x0020942c:    d045        E.      BEQ      0x2094ba ; app_handle_conn_param_update_evt + 154
        0x0020942e:    2902        .)      CMP      r1,#2
        0x00209430:    d138        8.      BNE      0x2094a4 ; app_handle_conn_param_update_evt + 132
        0x00209432:    b005        ..      ADD      sp,sp,#0x14
        0x00209434:    4620         F      MOV      r0,r4
        0x00209436:    e8bd4030    ..0@    POP      {r4,r5,lr}
        0x0020943a:    2200        ."      MOVS     r2,#0
        0x0020943c:    49db        .I      LDR      r1,[pc,#876] ; [0x2097ac] = 0x8800928
        0x0020943e:    f5febb0e    ....    B        log_buffer ; 0x7a5e
;;;337        {
;;;338        case GAP_CONN_PARAM_UPDATE_STATUS_SUCCESS:
;;;339            {
;;;340                uint16_t conn_interval;
;;;341                uint16_t conn_slave_latency;
;;;342                uint16_t conn_supervision_timeout;
;;;343    
;;;344                le_get_conn_param(GAP_PARAM_CONN_INTERVAL, &conn_interval, conn_id);
        0x00209442:    4602        .F      MOV      r2,r0
        0x00209444:    a904        ..      ADD      r1,sp,#0x10
        0x00209446:    f2402072    @.r     MOV      r0,#0x272
        0x0020944a:    f644fb18    D...    BL       le_get_conn_param ; 0x4da7e
;;;345                le_get_conn_param(GAP_PARAM_CONN_LATENCY, &conn_slave_latency, conn_id);
        0x0020944e:    462a        *F      MOV      r2,r5
        0x00209450:    a903        ..      ADD      r1,sp,#0xc
        0x00209452:    f2402073    @.s     MOV      r0,#0x273
        0x00209456:    f644fb12    D...    BL       le_get_conn_param ; 0x4da7e
;;;346                le_get_conn_param(GAP_PARAM_CONN_TIMEOUT, &conn_supervision_timeout, conn_id);
        0x0020945a:    462a        *F      MOV      r2,r5
        0x0020945c:    a902        ..      ADD      r1,sp,#8
        0x0020945e:    f44f701d    O..p    MOV      r0,#0x274
        0x00209462:    f644fb0c    D...    BL       le_get_conn_param ; 0x4da7e
;;;347                APP_PRINT_INFO3("app_handle_conn_param_update_evt update success:conn_interval 0x%x, conn_slave_latency 0x%x, conn_supervision_timeout 0x%x",
        0x00209466:    f8bd1008    ....    LDRH     r1,[sp,#8]
        0x0020946a:    f8bd000c    ....    LDRH     r0,[sp,#0xc]
        0x0020946e:    e9cd0100    ....    STRD     r0,r1,[sp,#0]
        0x00209472:    49cc        .I      LDR      r1,[pc,#816] ; [0x2097a4] = 0x88007a8
        0x00209474:    f8bd3010    ...0    LDRH     r3,[sp,#0x10]
        0x00209478:    2203        ."      MOVS     r2,#3
        0x0020947a:    3170        p1      ADDS     r1,r1,#0x70
        0x0020947c:    4620         F      MOV      r0,r4
        0x0020947e:    f5fefaee    ....    BL       log_buffer ; 0x7a5e
;;;348                                conn_interval, conn_slave_latency, conn_supervision_timeout);
;;;349                if (((conn_slave_latency + 1) * conn_interval < 16) || (conn_slave_latency == 0))
        0x00209482:    f8bd000c    ....    LDRH     r0,[sp,#0xc]
        0x00209486:    f8bd2010    ...     LDRH     r2,[sp,#0x10]
        0x0020948a:    1c41        A.      ADDS     r1,r0,#1
        0x0020948c:    4351        QC      MULS     r1,r2,r1
        0x0020948e:    2910        .)      CMP      r1,#0x10
        0x00209490:    db0a        ..      BLT      0x2094a8 ; app_handle_conn_param_update_evt + 136
        0x00209492:    b148        H.      CBZ      r0,0x2094a8 ; app_handle_conn_param_update_evt + 136
        0x00209494:    49c5        .I      LDR      r1,[pc,#788] ; [0x2097ac] = 0x8800928
        0x00209496:    2200        ."      MOVS     r2,#0
        0x00209498:    3968        h9      SUBS     r1,r1,#0x68
        0x0020949a:    4620         F      MOV      r0,r4
        0x0020949c:    f5fefadf    ....    BL       log_buffer ; 0x7a5e
        0x002094a0:    f001f9c7    ....    BL       stop_con_update_timer ; 0x20a832
        0x002094a4:    b005        ..      ADD      sp,sp,#0x14
        0x002094a6:    bd30        0.      POP      {r4,r5,pc}
;;;350                {
;;;351                    APP_PRINT_INFO0("reupdate the connection parameter");
        0x002094a8:    49c0        .I      LDR      r1,[pc,#768] ; [0x2097ac] = 0x8800928
        0x002094aa:    2200        ."      MOVS     r2,#0
        0x002094ac:    3990        .9      SUBS     r1,r1,#0x90
        0x002094ae:    4620         F      MOV      r0,r4
        0x002094b0:    f5fefad5    ....    BL       log_buffer ; 0x7a5e
;;;352                    start_con_update_timer();
        0x002094b4:    f001f9c5    ....    BL       start_con_update_timer ; 0x20a842
        0x002094b8:    e7f4        ..      B        0x2094a4 ; app_handle_conn_param_update_evt + 132
;;;353                }
;;;354                else
;;;355                {
;;;356                    APP_PRINT_INFO0("stop update the connection parameter");
;;;357                    stop_con_update_timer();
;;;358                }
;;;359            }
;;;360            break;
;;;361    
;;;362        case GAP_CONN_PARAM_UPDATE_STATUS_FAIL:
;;;363            {
;;;364                APP_PRINT_ERROR1("app_handle_conn_param_update_evt update failed: cause 0x%x", cause);
        0x002094ba:    b005        ..      ADD      sp,sp,#0x14
        0x002094bc:    49bb        .I      LDR      r1,[pc,#748] ; [0x2097ac] = 0x8800928
        0x002094be:    4613        .F      MOV      r3,r2
        0x002094c0:    48b7        .H      LDR      r0,[pc,#732] ; [0x2097a0] = 0x21103002
        0x002094c2:    e8bd4030    ..0@    POP      {r4,r5,lr}
        0x002094c6:    2201        ."      MOVS     r2,#1
        0x002094c8:    3940        @9      SUBS     r1,r1,#0x40
        0x002094ca:    1e80        ..      SUBS     r0,r0,#2
        0x002094cc:    f5febac7    ....    B        log_buffer ; 0x7a5e
    app_handle_conn_mtu_info_evt
        0x002094d0:    b508        ..      PUSH     {r3,lr}
        0x002094d2:    4603        .F      MOV      r3,r0
        0x002094d4:    9100        ..      STR      r1,[sp,#0]
        0x002094d6:    49b3        .I      LDR      r1,[pc,#716] ; [0x2097a4] = 0x88007a8
        0x002094d8:    2202        ."      MOVS     r2,#2
        0x002094da:    3134        41      ADDS     r1,r1,#0x34
        0x002094dc:    48b0        .H      LDR      r0,[pc,#704] ; [0x2097a0] = 0x21103002
        0x002094de:    f5fefabe    ....    BL       log_buffer ; 0x7a5e
        0x002094e2:    bd08        ..      POP      {r3,pc}
    app_handle_conn_state_evt
;;; ..\..\..\src\app\keyboard\keyboard_app.c (199)
        0x002094e4:    e92d41f0    -..A    PUSH     {r4-r8,lr}
        0x002094e8:    4eaf        .N      LDR      r6,[pc,#700] ; [0x2097a8] = 0x20bc80
;;; ..\..\..\src\app\keyboard\keyboard_app.c (199)
        0x002094ea:    4607        .F      MOV      r7,r0
        0x002094ec:    b086        ..      SUB      sp,sp,#0x18
        0x002094ee:    7870        px      LDRB     r0,[r6,#1]
        0x002094f0:    460d        .F      MOV      r5,r1
        0x002094f2:    e9cd0500    ....    STRD     r0,r5,[sp,#0]
        0x002094f6:    f8df82a8    ....    LDR      r8,[pc,#680] ; [0x2097a0] = 0x21103002
        0x002094fa:    4614        .F      MOV      r4,r2
;;;200        APP_PRINT_INFO4("app_handle_conn_state_evt: conn_id %d old_state %d new_state %d, disc_cause 0x%x",
        0x002094fc:    9202        ..      STR      r2,[sp,#8]
        0x002094fe:    463b        ;F      MOV      r3,r7
        0x00209500:    2204        ."      MOVS     r2,#4
        0x00209502:    49ab        .I      LDR      r1,[pc,#684] ; [0x2097b0] = 0x8800594
        0x00209504:    4640        @F      MOV      r0,r8
        0x00209506:    f5fefaaa    ....    BL       log_buffer ; 0x7a5e
;;;201                        conn_id, gap_conn_state, new_state, disc_cause);
;;;202        switch (new_state)
        0x0020950a:    b115        ..      CBZ      r5,0x209512 ; app_handle_conn_state_evt + 46
        0x0020950c:    2d02        .-      CMP      r5,#2
        0x0020950e:    d159        Y.      BNE      0x2095c4 ; app_handle_conn_state_evt + 224
        0x00209510:    e033        3.      B        0x20957a ; app_handle_conn_state_evt + 150
;;;203        {
;;;204        case GAP_CONN_STATE_DISCONNECTED:
;;;205            {
;;;206                if ((disc_cause != (HCI_ERR | HCI_ERR_REMOTE_USER_TERMINATE))
        0x00209512:    f5a47080    ...p    SUB      r0,r4,#0x100
        0x00209516:    3813        .8      SUBS     r0,r0,#0x13
        0x00209518:    d00a        ..      BEQ      0x209530 ; app_handle_conn_state_evt + 76
;;;207                    && (disc_cause != (HCI_ERR | HCI_ERR_LOCAL_HOST_TERMINATE)))
        0x0020951a:    f5b47f8b    ....    CMP      r4,#0x116
        0x0020951e:    d007        ..      BEQ      0x209530 ; app_handle_conn_state_evt + 76
;;;208                {
;;;209                    APP_PRINT_ERROR1("app_handle_conn_state_evt: connection lost cause 0x%x", disc_cause);
        0x00209520:    49a3        .I      LDR      r1,[pc,#652] ; [0x2097b0] = 0x8800594
        0x00209522:    489f        .H      LDR      r0,[pc,#636] ; [0x2097a0] = 0x21103002
        0x00209524:    4623        #F      MOV      r3,r4
        0x00209526:    2201        ."      MOVS     r2,#1
        0x00209528:    3154        T1      ADDS     r1,r1,#0x54
        0x0020952a:    1e80        ..      SUBS     r0,r0,#2
        0x0020952c:    f5fefa97    ....    BL       log_buffer ; 0x7a5e
;;;210                }
;;;211    
;;;212                stop_con_update_timer();
        0x00209530:    f001f97f    ....    BL       stop_con_update_timer ; 0x20a832
        0x00209534:    489f        .H      LDR      r0,[pc,#636] ; [0x2097b4] = 0x20bcbc
;;;213                report_cccd_enable = false;
        0x00209536:    2400        .$      MOVS     r4,#0
        0x00209538:    70f4        .p      STRB     r4,[r6,#3]
;;;214                passkey.enable_input = false;
        0x0020953a:    7144        Dq      STRB     r4,[r0,#5]
;;;215    
;;;216                if (switch_into_ota_pending)
        0x0020953c:    78b0        .x      LDRB     r0,[r6,#2]
        0x0020953e:    b130        0.      CBZ      r0,0x20954e ; app_handle_conn_state_evt + 106
;;;217                {
;;;218                    switch_into_ota_pending = false;
        0x00209540:    70b4        .p      STRB     r4,[r6,#2]
;;;219                    dfu_switch_to_ota_mode();
        0x00209542:    f63efac8    >...    BL       dfu_switch_to_ota_mode ; 0x47ad6
;;;220                    WDG_SystemReset(RESET_ALL_EXCEPT_AON, DFU_SWITCH_TO_OTA);
        0x00209546:    21d2        .!      MOVS     r1,#0xd2
        0x00209548:    2001        .       MOVS     r0,#1
        0x0020954a:    f7fefcdb    ....    BL       WDG_SystemReset ; 0x207f04
;;;221                }
;;;222    
;;;223                if (resolv_list_exist == false)
        0x0020954e:    7930        0y      LDRB     r0,[r6,#4]
        0x00209550:    4f99        .O      LDR      r7,[pc,#612] ; [0x2097b8] = 0x20bcc4
        0x00209552:    b178        x.      CBZ      r0,0x209574 ; app_handle_conn_state_evt + 144
;;;224                {
;;;225                    start_pair_adv = true;
;;;226                }
;;;227    
;;;228                if (start_pair_adv)
        0x00209554:    7838        8x      LDRB     r0,[r7,#0]
        0x00209556:    b3a8        ..      CBZ      r0,0x2095c4 ; app_handle_conn_state_evt + 224
;;;229                {
;;;230                    APP_PRINT_INFO0("disconnect and start adv");
        0x00209558:    4990        .I      LDR      r1,[pc,#576] ; [0x20979c] = 0x88006a4
        0x0020955a:    2200        ."      MOVS     r2,#0
        0x0020955c:    3980        .9      SUBS     r1,r1,#0x80
        0x0020955e:    4640        @F      MOV      r0,r8
        0x00209560:    f5fefa7d    ..}.    BL       log_buffer ; 0x7a5e
;;;231                    start_pair_adv = false;
        0x00209564:    703c        <p      STRB     r4,[r7,#0]
;;;232                    keyboard_start_adv(ADV_UNDIRECT_PAIRING);
        0x00209566:    2002        .       MOVS     r0,#2
        0x00209568:    f001f8c4    ....    BL       keyboard_start_adv ; 0x20a6f4
;;;233                    start_adv_led_timer(false);
        0x0020956c:    2000        .       MOVS     r0,#0
        0x0020956e:    f001f84b    ..K.    BL       start_adv_led_timer ; 0x20a608
        0x00209572:    e027        '.      B        0x2095c4 ; app_handle_conn_state_evt + 224
        0x00209574:    2001        .       MOVS     r0,#1
        0x00209576:    7038        8p      STRB     r0,[r7,#0]
        0x00209578:    e7ee        ..      B        0x209558 ; app_handle_conn_state_evt + 116
;;;234                }
;;;235    
;;;236            }
;;;237            break;
;;;238    
;;;239        case GAP_CONN_STATE_CONNECTED:
;;;240            {
;;;241                keyboard_con_id = conn_id;
        0x0020957a:    7237        7r      STRB     r7,[r6,#8]
;;;242                uint16_t conn_interval;
;;;243                uint16_t conn_latency;
;;;244                uint16_t conn_supervision_timeout;
;;;245    
;;;246                le_get_conn_param(GAP_PARAM_CONN_INTERVAL, &conn_interval, conn_id);
        0x0020957c:    463a        :F      MOV      r2,r7
        0x0020957e:    a904        ..      ADD      r1,sp,#0x10
        0x00209580:    f2402072    @.r     MOV      r0,#0x272
        0x00209584:    f644fa7b    D.{.    BL       le_get_conn_param ; 0x4da7e
;;;247                le_get_conn_param(GAP_PARAM_CONN_LATENCY, &conn_latency, conn_id);
        0x00209588:    463a        :F      MOV      r2,r7
        0x0020958a:    a903        ..      ADD      r1,sp,#0xc
        0x0020958c:    f2402073    @.s     MOV      r0,#0x273
        0x00209590:    f644fa75    D.u.    BL       le_get_conn_param ; 0x4da7e
;;;248                le_get_conn_param(GAP_PARAM_CONN_TIMEOUT, &conn_supervision_timeout, conn_id);
        0x00209594:    463a        :F      MOV      r2,r7
        0x00209596:    a902        ..      ADD      r1,sp,#8
        0x00209598:    f44f701d    O..p    MOV      r0,#0x274
        0x0020959c:    f644fa6f    D.o.    BL       le_get_conn_param ; 0x4da7e
;;;249                APP_PRINT_INFO3("GAP_CONN_STATE_CONNECTED: conn_interval 0x%x, conn_latency 0x%x, conn_supervision_timeout 0x%x",
        0x002095a0:    f8bd1008    ....    LDRH     r1,[sp,#8]
        0x002095a4:    f8bd000c    ....    LDRH     r0,[sp,#0xc]
        0x002095a8:    e9cd0100    ....    STRD     r0,r1,[sp,#0]
        0x002095ac:    497b        {I      LDR      r1,[pc,#492] ; [0x20979c] = 0x88006a4
        0x002095ae:    f8bd3010    ...0    LDRH     r3,[sp,#0x10]
        0x002095b2:    2203        ."      MOVS     r2,#3
        0x002095b4:    3964        d9      SUBS     r1,r1,#0x64
        0x002095b6:    4640        @F      MOV      r0,r8
        0x002095b8:    f5fefa51    ..Q.    BL       log_buffer ; 0x7a5e
;;;250                                conn_interval, conn_latency, conn_supervision_timeout);
;;;251    
;;;252                stop_adv_led_timer();
        0x002095bc:    f001f83e    ..>.    BL       stop_adv_led_timer ; 0x20a63c
;;;253                start_con_update_timer();
        0x002095c0:    f001f93f    ..?.    BL       start_con_update_timer ; 0x20a842
;;;254            }
;;;255            break;
;;;256    
;;;257        default:
;;;258            break;
;;;259        }
;;;260        gap_conn_state = new_state;
        0x002095c4:    7075        up      STRB     r5,[r6,#1]
;;;261    }
        0x002095c6:    b006        ..      ADD      sp,sp,#0x18
        0x002095c8:    e8bd81f0    ....    POP      {r4-r8,pc}
    app_handle_dev_state_evt
        0x002095cc:    e92d41fc    -..A    PUSH     {r2-r8,lr}
        0x002095d0:    b2c4        ..      UXTB     r4,r0
;;; ..\..\..\src\app\keyboard\keyboard_app.c (150)
        0x002095d2:    f3c40581    ....    UBFX     r5,r4,#2,#2
        0x002095d6:    e9cd5100    ...Q    STRD     r5,r1,[sp,#0]
        0x002095da:    4975        uI      LDR      r1,[pc,#468] ; [0x2097b0] = 0x8800594
        0x002095dc:    f8df81c0    ....    LDR      r8,[pc,#448] ; [0x2097a0] = 0x21103002
        0x002095e0:    f0040601    ....    AND      r6,r4,#1
        0x002095e4:    4633        3F      MOV      r3,r6
        0x002095e6:    2203        ."      MOVS     r2,#3
        0x002095e8:    39b4        .9      SUBS     r1,r1,#0xb4
        0x002095ea:    4640        @F      MOV      r0,r8
        0x002095ec:    f5fefa37    ..7.    BL       log_buffer ; 0x7a5e
;;;151                        new_state.gap_init_state, new_state.gap_adv_state, cause);
;;;152        if (gap_dev_state.gap_init_state != new_state.gap_init_state)
        0x002095f0:    4f6d        mO      LDR      r7,[pc,#436] ; [0x2097a8] = 0x20bc80
        0x002095f2:    7838        8x      LDRB     r0,[r7,#0]
        0x002095f4:    f0000001    ....    AND      r0,r0,#1
        0x002095f8:    42b0        .B      CMP      r0,r6
        0x002095fa:    d00a        ..      BEQ      0x209612 ; app_handle_dev_state_evt + 70
;;;153        {
;;;154            if (new_state.gap_init_state == GAP_INIT_STATE_STACK_READY)
        0x002095fc:    07e0        ..      LSLS     r0,r4,#31
        0x002095fe:    d008        ..      BEQ      0x209612 ; app_handle_dev_state_evt + 70
;;;155            {
;;;156                APP_PRINT_INFO0("GAP stack ready");
        0x00209600:    496b        kI      LDR      r1,[pc,#428] ; [0x2097b0] = 0x8800594
        0x00209602:    2200        ."      MOVS     r2,#0
        0x00209604:    396c        l9      SUBS     r1,r1,#0x6c
        0x00209606:    4640        @F      MOV      r0,r8
        0x00209608:    f5fefa29    ..).    BL       log_buffer ; 0x7a5e
;;;157                privacy_init(true);
        0x0020960c:    2001        .       MOVS     r0,#1
        0x0020960e:    f001fa46    ..F.    BL       privacy_init ; 0x20aa9e
;;;158            }
;;;159        }
;;;160    
;;;161        if (gap_dev_state.gap_adv_state != new_state.gap_adv_state)
        0x00209612:    7838        8x      LDRB     r0,[r7,#0]
        0x00209614:    f3c00081    ....    UBFX     r0,r0,#2,#2
        0x00209618:    42a8        .B      CMP      r0,r5
        0x0020961a:    d022        ".      BEQ      0x209662 ; app_handle_dev_state_evt + 150
;;;162        {
;;;163            if (new_state.gap_adv_state == GAP_ADV_STATE_IDLE)
        0x0020961c:    f0140f0c    ....    TST      r4,#0xc
        0x00209620:    d002        ..      BEQ      0x209628 ; app_handle_dev_state_evt + 92
        0x00209622:    2d02        .-      CMP      r5,#2
        0x00209624:    d017        ..      BEQ      0x209656 ; app_handle_dev_state_evt + 138
        0x00209626:    e01c        ..      B        0x209662 ; app_handle_dev_state_evt + 150
;;;164            {
;;;165                if (new_state.gap_adv_sub_state == GAP_ADV_TO_IDLE_CAUSE_CONN)
        0x00209628:    07a0        ..      LSLS     r0,r4,#30
        0x0020962a:    f04f0200    O...    MOV      r2,#0
        0x0020962e:    d502        ..      BPL      0x209636 ; app_handle_dev_state_evt + 106
;;;166                {
;;;167                    APP_PRINT_INFO0("GAP adv stoped: because connection created");
        0x00209630:    495f        _I      LDR      r1,[pc,#380] ; [0x2097b0] = 0x8800594
        0x00209632:    3958        X9      SUBS     r1,r1,#0x58
        0x00209634:    e012        ..      B        0x20965c ; app_handle_dev_state_evt + 144
;;;168                }
;;;169                else
;;;170                {
;;;171                    APP_PRINT_INFO0("GAP adv stoped");
        0x00209636:    495e        ^I      LDR      r1,[pc,#376] ; [0x2097b0] = 0x8800594
        0x00209638:    4640        @F      MOV      r0,r8
        0x0020963a:    3928        (9      SUBS     r1,r1,#0x28
        0x0020963c:    f5fefa0f    ....    BL       log_buffer ; 0x7a5e
;;;172                    if (start_pair_adv)
        0x00209640:    485d        ]H      LDR      r0,[pc,#372] ; [0x2097b8] = 0x20bcc4
        0x00209642:    7801        .x      LDRB     r1,[r0,#0]
        0x00209644:    b169        i.      CBZ      r1,0x209662 ; app_handle_dev_state_evt + 150
;;;173                    {
;;;174                        start_pair_adv = false;
        0x00209646:    2100        .!      MOVS     r1,#0
        0x00209648:    7001        .p      STRB     r1,[r0,#0]
;;;175                        le_privacy_set_addr_resolution(false);
        0x0020964a:    4608        .F      MOV      r0,r1
        0x0020964c:    f648fad3    H...    BL       le_privacy_set_addr_resolution ; 0x51bf6
;;;176                        le_bond_clear_all_keys();//maybe move this to privacy_handle_le_privacy_resolution_status_info
        0x00209650:    f642fd7e    B.~.    BL       le_bond_clear_all_keys ; 0x4c150
        0x00209654:    e005        ..      B        0x209662 ; app_handle_dev_state_evt + 150
;;;177                    }
;;;178                }
;;;179            }
;;;180            else if (new_state.gap_adv_state == GAP_ADV_STATE_ADVERTISING)
;;;181            {
;;;182                APP_PRINT_INFO0("GAP adv start");
        0x00209656:    4956        VI      LDR      r1,[pc,#344] ; [0x2097b0] = 0x8800594
        0x00209658:    2200        ."      MOVS     r2,#0
        0x0020965a:    3914        .9      SUBS     r1,r1,#0x14
        0x0020965c:    4640        @F      MOV      r0,r8
        0x0020965e:    f5fef9fe    ....    BL       log_buffer ; 0x7a5e
;;;183            }
;;;184        }
;;;185    
;;;186        gap_dev_state = new_state;
        0x00209662:    4851        QH      LDR      r0,[pc,#324] ; [0x2097a8] = 0x20bc80
        0x00209664:    7004        .p      STRB     r4,[r0,#0]
;;;187    }
        0x00209666:    e8bd81fc    ....    POP      {r2-r8,pc}
    app_handle_gap_msg
;;;188    
;;;189    /**
;;;190     * @brief    Handle msg GAP_MSG_LE_CONN_STATE_CHANGE
;;;191     * @note     All the gap conn state events are pre-handled in this function.
;;;192     *           Then the event handling function shall be called according to the new_state
;;;193     * @param[in] conn_id Connection ID
;;;194     * @param[in] new_state  New gap connection state
;;;195     * @param[in] disc_cause Use this cause when new_state is GAP_CONN_STATE_DISCONNECTED
;;;196     * @return   void
;;;197     */
;;;198    void app_handle_conn_state_evt(uint8_t conn_id, T_GAP_CONN_STATE new_state, uint16_t disc_cause)
;;;199    {
;;;200        APP_PRINT_INFO4("app_handle_conn_state_evt: conn_id %d old_state %d new_state %d, disc_cause 0x%x",
;;;201                        conn_id, gap_conn_state, new_state, disc_cause);
;;;202        switch (new_state)
;;;203        {
;;;204        case GAP_CONN_STATE_DISCONNECTED:
;;;205            {
;;;206                if ((disc_cause != (HCI_ERR | HCI_ERR_REMOTE_USER_TERMINATE))
;;;207                    && (disc_cause != (HCI_ERR | HCI_ERR_LOCAL_HOST_TERMINATE)))
;;;208                {
;;;209                    APP_PRINT_ERROR1("app_handle_conn_state_evt: connection lost cause 0x%x", disc_cause);
;;;210                }
;;;211    
;;;212                stop_con_update_timer();
;;;213                report_cccd_enable = false;
;;;214                passkey.enable_input = false;
;;;215    
;;;216                if (switch_into_ota_pending)
;;;217                {
;;;218                    switch_into_ota_pending = false;
;;;219                    dfu_switch_to_ota_mode();
;;;220                    WDG_SystemReset(RESET_ALL_EXCEPT_AON, DFU_SWITCH_TO_OTA);
;;;221                }
;;;222    
;;;223                if (resolv_list_exist == false)
;;;224                {
;;;225                    start_pair_adv = true;
;;;226                }
;;;227    
;;;228                if (start_pair_adv)
;;;229                {
;;;230                    APP_PRINT_INFO0("disconnect and start adv");
;;;231                    start_pair_adv = false;
;;;232                    keyboard_start_adv(ADV_UNDIRECT_PAIRING);
;;;233                    start_adv_led_timer(false);
;;;234                }
;;;235    
;;;236            }
;;;237            break;
;;;238    
;;;239        case GAP_CONN_STATE_CONNECTED:
;;;240            {
;;;241                keyboard_con_id = conn_id;
;;;242                uint16_t conn_interval;
;;;243                uint16_t conn_latency;
;;;244                uint16_t conn_supervision_timeout;
;;;245    
;;;246                le_get_conn_param(GAP_PARAM_CONN_INTERVAL, &conn_interval, conn_id);
;;;247                le_get_conn_param(GAP_PARAM_CONN_LATENCY, &conn_latency, conn_id);
;;;248                le_get_conn_param(GAP_PARAM_CONN_TIMEOUT, &conn_supervision_timeout, conn_id);
;;;249                APP_PRINT_INFO3("GAP_CONN_STATE_CONNECTED: conn_interval 0x%x, conn_latency 0x%x, conn_supervision_timeout 0x%x",
;;;250                                conn_interval, conn_latency, conn_supervision_timeout);
;;;251    
;;;252                stop_adv_led_timer();
;;;253                start_con_update_timer();
;;;254            }
;;;255            break;
;;;256    
;;;257        default:
;;;258            break;
;;;259        }
;;;260        gap_conn_state = new_state;
;;;261    }
;;;262    
;;;263    /**
;;;264     * @brief    Handle msg GAP_MSG_LE_AUTHEN_STATE_CHANGE
;;;265     * @note     All the gap authentication state events are pre-handled in this function.
;;;266     *           Then the event handling function shall be called according to the new_state
;;;267     * @param[in] conn_id Connection ID
;;;268     * @param[in] new_state  New authentication state
;;;269     * @param[in] cause Use this cause when new_state is GAP_AUTHEN_STATE_COMPLETE
;;;270     * @return   void
;;;271     */
;;;272    void app_handle_authen_state_evt(uint8_t conn_id, uint8_t new_state, uint16_t cause)
;;;273    {
;;;274        APP_PRINT_INFO2("app_handle_authen_state_evt:conn_id %d, cause 0x%x", conn_id, cause);
;;;275    
;;;276        switch (new_state)
;;;277        {
;;;278        case GAP_AUTHEN_STATE_STARTED:
;;;279            {
;;;280                APP_PRINT_INFO0("app_handle_authen_state_evt: GAP_AUTHEN_STATE_STARTED");
;;;281            }
;;;282            break;
;;;283    
;;;284        case GAP_AUTHEN_STATE_COMPLETE:
;;;285            {
;;;286                if (cause == GAP_SUCCESS)
;;;287                {
;;;288                    APP_PRINT_INFO0("app_handle_authen_state_evt: GAP_AUTHEN_STATE_COMPLETE pair success");
;;;289                    if (resolv_list_exist == false)
;;;290                    {
;;;291                        T_LE_KEY_ENTRY *p_entry;
;;;292                        p_entry = le_get_high_priority_bond();
;;;293                        if ((p_entry != NULL) && (p_entry->is_used))
;;;294                        {
;;;295                            privacy_add_device(p_entry);
;;;296                        }
;;;297                    }
;;;298                }
;;;299                else
;;;300                {
;;;301                    APP_PRINT_INFO0("app_handle_authen_state_evt: GAP_AUTHEN_STATE_COMPLETE pair failed");
;;;302                }
;;;303            }
;;;304            break;
;;;305    
;;;306        default:
;;;307            {
;;;308                APP_PRINT_ERROR1("app_handle_authen_state_evt: unknown newstate %d", new_state);
;;;309            }
;;;310            break;
;;;311        }
;;;312    }
;;;313    
;;;314    /**
;;;315     * @brief    Handle msg GAP_MSG_LE_CONN_MTU_INFO
;;;316     * @note     This msg is used to inform APP that exchange mtu procedure is completed.
;;;317     * @param[in] conn_id Connection ID
;;;318     * @param[in] mtu_size  New mtu size
;;;319     * @return   void
;;;320     */
;;;321    void app_handle_conn_mtu_info_evt(uint8_t conn_id, uint16_t mtu_size)
;;;322    {
;;;323        APP_PRINT_INFO2("app_handle_conn_mtu_info_evt: conn_id %d, mtu_size %d", conn_id, mtu_size);
;;;324    }
;;;325    
;;;326    /**
;;;327     * @brief    Handle msg GAP_MSG_LE_CONN_PARAM_UPDATE
;;;328     * @note     All the connection parameter update change  events are pre-handled in this function.
;;;329     * @param[in] conn_id Connection ID
;;;330     * @param[in] status  New update state
;;;331     * @param[in] cause Use this cause when status is GAP_CONN_PARAM_UPDATE_STATUS_FAIL
;;;332     * @return   void
;;;333     */
;;;334    void app_handle_conn_param_update_evt(uint8_t conn_id, uint8_t status, uint16_t cause)
;;;335    {
;;;336        switch (status)
;;;337        {
;;;338        case GAP_CONN_PARAM_UPDATE_STATUS_SUCCESS:
;;;339            {
;;;340                uint16_t conn_interval;
;;;341                uint16_t conn_slave_latency;
;;;342                uint16_t conn_supervision_timeout;
;;;343    
;;;344                le_get_conn_param(GAP_PARAM_CONN_INTERVAL, &conn_interval, conn_id);
;;;345                le_get_conn_param(GAP_PARAM_CONN_LATENCY, &conn_slave_latency, conn_id);
;;;346                le_get_conn_param(GAP_PARAM_CONN_TIMEOUT, &conn_supervision_timeout, conn_id);
;;;347                APP_PRINT_INFO3("app_handle_conn_param_update_evt update success:conn_interval 0x%x, conn_slave_latency 0x%x, conn_supervision_timeout 0x%x",
;;;348                                conn_interval, conn_slave_latency, conn_supervision_timeout);
;;;349                if (((conn_slave_latency + 1) * conn_interval < 16) || (conn_slave_latency == 0))
;;;350                {
;;;351                    APP_PRINT_INFO0("reupdate the connection parameter");
;;;352                    start_con_update_timer();
;;;353                }
;;;354                else
;;;355                {
;;;356                    APP_PRINT_INFO0("stop update the connection parameter");
;;;357                    stop_con_update_timer();
;;;358                }
;;;359            }
;;;360            break;
;;;361    
;;;362        case GAP_CONN_PARAM_UPDATE_STATUS_FAIL:
;;;363            {
;;;364                APP_PRINT_ERROR1("app_handle_conn_param_update_evt update failed: cause 0x%x", cause);
;;;365            }
;;;366            break;
;;;367    
;;;368        case GAP_CONN_PARAM_UPDATE_STATUS_PENDING:
;;;369            {
;;;370                APP_PRINT_INFO0("app_handle_conn_param_update_evt update pending.");
;;;371            }
;;;372            break;
;;;373    
;;;374        default:
;;;375            break;
;;;376        }
;;;377    }
;;;378    
;;;379    /**
;;;380     * @brief    All the BT GAP MSG are pre-handled in this function.
;;;381     * @note     Then the event handling function shall be called according to the
;;;382     *           subtype of T_IO_MSG
;;;383     * @param[in] p_gap_msg Pointer to GAP msg
;;;384     * @return   void
;;;385     */
;;;386    void app_handle_gap_msg(T_IO_MSG *p_gap_msg)
;;;387    {
        0x0020966a:    b57f        ..      PUSH     {r0-r6,lr}
        0x0020966c:    4605        .F      MOV      r5,r0
;;;388        T_LE_GAP_MSG gap_msg;
;;;389        uint8_t conn_id;
;;;390        memcpy(&gap_msg, &p_gap_msg->u.param, sizeof(p_gap_msg->u.param));
;;;391    
;;;392        APP_PRINT_TRACE1("app_handle_gap_msg: subtype %d", p_gap_msg->subtype);
        0x0020966e:    8843        C.      LDRH     r3,[r0,#2]
        0x00209670:    6844        Dh      LDR      r4,[r0,#4]
        0x00209672:    494e        NI      LDR      r1,[pc,#312] ; [0x2097ac] = 0x8800928
        0x00209674:    484a        JH      LDR      r0,[pc,#296] ; [0x2097a0] = 0x21103002
        0x00209676:    2201        ."      MOVS     r2,#1
        0x00209678:    3134        41      ADDS     r1,r1,#0x34
        0x0020967a:    1c40        @.      ADDS     r0,r0,#1
        0x0020967c:    f5fef9ef    ....    BL       log_buffer ; 0x7a5e
;;;393        switch (p_gap_msg->subtype)
        0x00209680:    886b        k.      LDRH     r3,[r5,#2]
        0x00209682:    2000        .       MOVS     r0,#0
        0x00209684:    4d46        FM      LDR      r5,[pc,#280] ; [0x2097a0] = 0x21103002
        0x00209686:    2b0b        .+      CMP      r3,#0xb
        0x00209688:    d27d        }.      BCS      0x209786 ; app_handle_gap_msg + 284
        0x0020968a:    e8dff003    ....    TBB      [pc,r3]
    $d
        0x0020968e:    067c        |.      DCW    1660
        0x00209690:    22141a0c    ..."    DCD    571742732
        0x00209694:    49665b37    7[fI    DCD    1231444791
        0x00209698:    002a        *.      DCW    42
    $t
;;;394        {
;;;395        case GAP_MSG_LE_DEV_STATE_CHANGE:
;;;396            {
;;;397                app_handle_dev_state_evt(gap_msg.msg_data.gap_dev_state_change.new_state,
        0x0020969a:    b004        ..      ADD      sp,sp,#0x10
        0x0020969c:    4620         F      MOV      r0,r4
        0x0020969e:    0c21        !.      LSRS     r1,r4,#16
        0x002096a0:    e8bd4070    ..p@    POP      {r4-r6,lr}
        0x002096a4:    e792        ..      B        app_handle_dev_state_evt ; 0x2095cc
        0x002096a6:    b004        ..      ADD      sp,sp,#0x10
        0x002096a8:    0c22        ".      LSRS     r2,r4,#16
        0x002096aa:    f3c42107    ...!    UBFX     r1,r4,#8,#8
        0x002096ae:    b2e0        ..      UXTB     r0,r4
;;;398                                         gap_msg.msg_data.gap_dev_state_change.cause);
;;;399            }
;;;400            break;
;;;401    
;;;402        case GAP_MSG_LE_CONN_STATE_CHANGE:
;;;403            {
;;;404                app_handle_conn_state_evt(gap_msg.msg_data.gap_conn_state_change.conn_id,
        0x002096b0:    e8bd4070    ..p@    POP      {r4-r6,lr}
        0x002096b4:    e716        ..      B        app_handle_conn_state_evt ; 0x2094e4
        0x002096b6:    b004        ..      ADD      sp,sp,#0x10
        0x002096b8:    0c21        !.      LSRS     r1,r4,#16
        0x002096ba:    b2e0        ..      UXTB     r0,r4
;;;405                                          (T_GAP_CONN_STATE)gap_msg.msg_data.gap_conn_state_change.new_state,
;;;406                                          gap_msg.msg_data.gap_conn_state_change.disc_cause);
;;;407            }
;;;408            break;
;;;409    
;;;410        case GAP_MSG_LE_CONN_MTU_INFO:
;;;411            {
;;;412                app_handle_conn_mtu_info_evt(gap_msg.msg_data.gap_conn_mtu_info.conn_id,
        0x002096bc:    e8bd4070    ..p@    POP      {r4-r6,lr}
        0x002096c0:    e706        ..      B        app_handle_conn_mtu_info_evt ; 0x2094d0
        0x002096c2:    b004        ..      ADD      sp,sp,#0x10
        0x002096c4:    0c22        ".      LSRS     r2,r4,#16
        0x002096c6:    f3c42107    ...!    UBFX     r1,r4,#8,#8
        0x002096ca:    b2e0        ..      UXTB     r0,r4
;;;413                                             gap_msg.msg_data.gap_conn_mtu_info.mtu_size);
;;;414            }
;;;415            break;
;;;416    
;;;417        case GAP_MSG_LE_CONN_PARAM_UPDATE:
;;;418            {
;;;419                app_handle_conn_param_update_evt(gap_msg.msg_data.gap_conn_param_update.conn_id,
        0x002096cc:    e8bd4070    ..p@    POP      {r4-r6,lr}
        0x002096d0:    e6a6        ..      B        app_handle_conn_param_update_evt ; 0x209420
        0x002096d2:    b004        ..      ADD      sp,sp,#0x10
        0x002096d4:    0c22        ".      LSRS     r2,r4,#16
        0x002096d6:    f3c42107    ...!    UBFX     r1,r4,#8,#8
        0x002096da:    b2e0        ..      UXTB     r0,r4
;;;420                                                 gap_msg.msg_data.gap_conn_param_update.status,
;;;421                                                 gap_msg.msg_data.gap_conn_param_update.cause);
;;;422            }
;;;423            break;
;;;424    
;;;425        case GAP_MSG_LE_AUTHEN_STATE_CHANGE:
;;;426            {
;;;427                app_handle_authen_state_evt(gap_msg.msg_data.gap_authen_state.conn_id,
        0x002096dc:    e8bd4070    ..p@    POP      {r4-r6,lr}
        0x002096e0:    e664        d.      B        app_handle_authen_state_evt ; 0x2093ac
        0x002096e2:    b2e0        ..      UXTB     r0,r4
;;;428                                            gap_msg.msg_data.gap_authen_state.new_state,
;;;429                                            gap_msg.msg_data.gap_authen_state.status);
;;;430            }
;;;431            break;
;;;432    
;;;433        case GAP_MSG_LE_BOND_JUST_WORK:
;;;434            {
;;;435                conn_id = gap_msg.msg_data.gap_bond_just_work_conf.conn_id;
;;;436                le_bond_just_work_confirm(conn_id, GAP_CFM_CAUSE_ACCEPT);
        0x002096e4:    2101        .!      MOVS     r1,#1
        0x002096e6:    f001face    ....    BL       le_bond_just_work_confirm ; 0x20ac86
;;;437                APP_PRINT_INFO0("GAP_MSG_LE_BOND_JUST_WORK");
        0x002096ea:    b004        ..      ADD      sp,sp,#0x10
        0x002096ec:    4628        (F      MOV      r0,r5
        0x002096ee:    e8bd4070    ..p@    POP      {r4-r6,lr}
        0x002096f2:    492e        .I      LDR      r1,[pc,#184] ; [0x2097ac] = 0x8800928
        0x002096f4:    2200        ."      MOVS     r2,#0
        0x002096f6:    3154        T1      ADDS     r1,r1,#0x54
        0x002096f8:    f5feb9b1    ....    B        log_buffer ; 0x7a5e
;;;438            }
;;;439            break;
;;;440    
;;;441        case GAP_MSG_LE_BOND_PASSKEY_DISPLAY:
;;;442            {
;;;443                uint32_t display_value = 0;
        0x002096fc:    b2e4        ..      UXTB     r4,r4
;;;444                conn_id = gap_msg.msg_data.gap_bond_passkey_display.conn_id;
;;;445                le_bond_get_display_key(conn_id, &display_value);
        0x002096fe:    9000        ..      STR      r0,[sp,#0]
        0x00209700:    4669        iF      MOV      r1,sp
        0x00209702:    4620         F      MOV      r0,r4
        0x00209704:    f642fe71    B.q.    BL       le_bond_get_display_key ; 0x4c3ea
;;;446                APP_PRINT_INFO1("GAP_MSG_LE_BOND_PASSKEY_DISPLAY:passkey %d", display_value);
        0x00209708:    4928        (I      LDR      r1,[pc,#160] ; [0x2097ac] = 0x8800928
        0x0020970a:    2201        ."      MOVS     r2,#1
        0x0020970c:    3174        t1      ADDS     r1,r1,#0x74
        0x0020970e:    4628        (F      MOV      r0,r5
        0x00209710:    9b00        ..      LDR      r3,[sp,#0]
        0x00209712:    f5fef9a4    ....    BL       log_buffer ; 0x7a5e
;;;447                le_bond_passkey_display_confirm(conn_id, GAP_CFM_CAUSE_ACCEPT);
        0x00209716:    2101        .!      MOVS     r1,#1
        0x00209718:    4620         F      MOV      r0,r4
        0x0020971a:    f642feab    B...    BL       le_bond_passkey_display_confirm ; 0x4c474
        0x0020971e:    bd7f        ..      POP      {r0-r6,pc}
;;;448            }
;;;449            break;
;;;450    
;;;451        case GAP_MSG_LE_BOND_USER_CONFIRMATION:
;;;452            {
;;;453                uint32_t display_value = 0;
        0x00209720:    b2e4        ..      UXTB     r4,r4
;;;454                conn_id = gap_msg.msg_data.gap_bond_user_conf.conn_id;
;;;455                le_bond_get_display_key(conn_id, &display_value);
        0x00209722:    9000        ..      STR      r0,[sp,#0]
        0x00209724:    4669        iF      MOV      r1,sp
        0x00209726:    4620         F      MOV      r0,r4
        0x00209728:    f642fe5f    B._.    BL       le_bond_get_display_key ; 0x4c3ea
;;;456                APP_PRINT_INFO1("GAP_MSG_LE_BOND_USER_CONFIRMATION: passkey %d", display_value);
        0x0020972c:    491f        .I      LDR      r1,[pc,#124] ; [0x2097ac] = 0x8800928
        0x0020972e:    2201        ."      MOVS     r2,#1
        0x00209730:    31a4        .1      ADDS     r1,r1,#0xa4
        0x00209732:    4628        (F      MOV      r0,r5
        0x00209734:    9b00        ..      LDR      r3,[sp,#0]
        0x00209736:    f5fef992    ....    BL       log_buffer ; 0x7a5e
;;;457                le_bond_user_confirm(conn_id, GAP_CFM_CAUSE_ACCEPT);
        0x0020973a:    2101        .!      MOVS     r1,#1
        0x0020973c:    4620         F      MOV      r0,r4
        0x0020973e:    f642fe69    B.i.    BL       le_bond_user_confirm ; 0x4c414
        0x00209742:    bd7f        ..      POP      {r0-r6,pc}
;;;458            }
;;;459            break;
;;;460    
;;;461        case GAP_MSG_LE_BOND_PASSKEY_INPUT:
;;;462            {
;;;463                conn_id = gap_msg.msg_data.gap_bond_passkey_input.conn_id;
;;;464                APP_PRINT_INFO1("GAP_MSG_LE_BOND_PASSKEY_INPUT: conn_id %d", conn_id);
        0x00209744:    4919        .I      LDR      r1,[pc,#100] ; [0x2097ac] = 0x8800928
        0x00209746:    b2e3        ..      UXTB     r3,r4
        0x00209748:    2201        ."      MOVS     r2,#1
        0x0020974a:    31d8        .1      ADDS     r1,r1,#0xd8
        0x0020974c:    4628        (F      MOV      r0,r5
        0x0020974e:    f5fef986    ....    BL       log_buffer ; 0x7a5e
;;;465                passkey.enable_input = true;
        0x00209752:    4918        .I      LDR      r1,[pc,#96] ; [0x2097b4] = 0x20bcbc
        0x00209754:    2001        .       MOVS     r0,#1
        0x00209756:    7148        Hq      STRB     r0,[r1,#5]
        0x00209758:    bd7f        ..      POP      {r0-r6,pc}
;;;466            }
;;;467            break;
;;;468    
;;;469        case GAP_MSG_LE_BOND_OOB_INPUT:
;;;470            {
;;;471                uint8_t oob_data[GAP_OOB_LEN] = {0, 0, 0, 0, 0, 0, 0, 0, 0, 0, 0, 0, 0, 0, 0, 0};
        0x0020975a:    9000        ..      STR      r0,[sp,#0]
        0x0020975c:    9001        ..      STR      r0,[sp,#4]
        0x0020975e:    9002        ..      STR      r0,[sp,#8]
        0x00209760:    9003        ..      STR      r0,[sp,#0xc]
        0x00209762:    b2e4        ..      UXTB     r4,r4
;;;472                conn_id = gap_msg.msg_data.gap_bond_oob_input.conn_id;
;;;473                APP_PRINT_INFO0("GAP_MSG_LE_BOND_OOB_INPUT");
        0x00209764:    2200        ."      MOVS     r2,#0
        0x00209766:    4915        .I      LDR      r1,[pc,#84] ; [0x2097bc] = 0x8800a30
        0x00209768:    4628        (F      MOV      r0,r5
        0x0020976a:    f5fef978    ..x.    BL       log_buffer ; 0x7a5e
;;;474                le_bond_set_param(GAP_PARAM_BOND_OOB_DATA, GAP_OOB_LEN, oob_data);
        0x0020976e:    466a        jF      MOV      r2,sp
        0x00209770:    2110        .!      MOVS     r1,#0x10
        0x00209772:    f44f7004    O..p    MOV      r0,#0x210
        0x00209776:    f642fd3a    B.:.    BL       le_bond_set_param ; 0x4c1ee
;;;475                le_bond_oob_input_confirm(conn_id, GAP_CFM_CAUSE_ACCEPT);
        0x0020977a:    2101        .!      MOVS     r1,#1
        0x0020977c:    4620         F      MOV      r0,r4
        0x0020977e:    f642fe1a    B...    BL       le_bond_oob_input_confirm ; 0x4c3b6
        0x00209782:    bd7f        ..      POP      {r0-r6,pc}
        0x00209784:    e7ff        ..      B        0x209786 ; app_handle_gap_msg + 284
;;;476            }
;;;477            break;
;;;478    
;;;479        default:
;;;480            APP_PRINT_ERROR1("app_handle_gap_msg: unknown subtype %d", p_gap_msg->subtype);
        0x00209786:    b004        ..      ADD      sp,sp,#0x10
        0x00209788:    490c        .I      LDR      r1,[pc,#48] ; [0x2097bc] = 0x8800a30
        0x0020978a:    e8bd4070    ..p@    POP      {r4-r6,lr}
        0x0020978e:    4804        .H      LDR      r0,[pc,#16] ; [0x2097a0] = 0x21103002
        0x00209790:    2201        ."      MOVS     r2,#1
        0x00209792:    3120         1      ADDS     r1,r1,#0x20
        0x00209794:    1e80        ..      SUBS     r0,r0,#2
        0x00209796:    f5feb962    ..b.    B        log_buffer ; 0x7a5e
    $d
        0x0020979a:    0000        ..      DCW    0
        0x0020979c:    088006a4    ....    DCD    142608036
        0x002097a0:    21103002    .0.!    DCD    554708994
        0x002097a4:    088007a8    ....    DCD    142608296
        0x002097a8:    0020bc80    .. .    DCD    2145408
        0x002097ac:    08800928    (...    DCD    142608680
        0x002097b0:    08800594    ....    DCD    142607764
        0x002097b4:    0020bcbc    .. .    DCD    2145468
        0x002097b8:    0020bcc4    .. .    DCD    2145476
        0x002097bc:    08800a30    0...    DCD    142608944
    $t
    app_handle_io_msg
;;; ..\..\..\src\app\keyboard\keyboard_app.c (81)
        0x002097c0:    e92d41f3    -..A    PUSH     {r0,r1,r4-r8,lr}
        0x002097c4:    f8bd0000    ....    LDRH     r0,[sp,#0]
;;; ..\..\..\src\app\keyboard\keyboard_app.c (81)
        0x002097c8:    b140        @.      CBZ      r0,0x2097dc ; app_handle_io_msg + 28
;;;82         uint16_t msg_type = io_msg.type;
;;;83     
;;;84         switch (msg_type)
        0x002097ca:    2801        .(      CMP      r0,#1
        0x002097cc:    d00a        ..      BEQ      0x2097e4 ; app_handle_io_msg + 36
        0x002097ce:    280b        .(      CMP      r0,#0xb
        0x002097d0:    d103        ..      BNE      0x2097da ; app_handle_io_msg + 26
        0x002097d2:    e9dd0100    ....    LDRD     r0,r1,[sp,#0]
        0x002097d6:    f000fe82    ....    BL       handle_pair_button_event ; 0x20a4de
        0x002097da:    e744        D.      B        0x209666 ; app_handle_dev_state_evt + 154
;;;85         {
;;;86         case IO_MSG_TYPE_BT_STATUS:
;;;87             {
;;;88                 app_handle_gap_msg(&io_msg);
        0x002097dc:    4668        hF      MOV      r0,sp
        0x002097de:    f7ffff44    ..D.    BL       app_handle_gap_msg ; 0x20966a
        0x002097e2:    e740        @.      B        0x209666 ; app_handle_dev_state_evt + 154
;;;89             }
;;;90             break;
;;;91         case IO_MSG_TYPE_GPIO:
;;;92             {
;;;93                 handle_pair_button_event(io_msg);
;;;94             }
;;;95             break;
;;;96         case IO_MSG_TYPE_KEYSCAN:
;;;97             {
;;;98                 if (io_msg.subtype == IO_MSG_KEYSCAN_RX_PKT)
        0x002097e4:    f8bd1002    ....    LDRH     r1,[sp,#2]
        0x002097e8:    4d9d        .M      LDR      r5,[pc,#628] ; [0x209a60] = 0x20bcbc
        0x002097ea:    489e        .H      LDR      r0,[pc,#632] ; [0x209a64] = 0x21103002
        0x002097ec:    4c9e        .L      LDR      r4,[pc,#632] ; [0x209a68] = 0x20bc80
        0x002097ee:    2901        .)      CMP      r1,#1
        0x002097f0:    d00e        ..      BEQ      0x209810 ; app_handle_io_msg + 80
;;;99                 {
;;;100                    T_KEYSCAN_FIFIO_DATA *p_key_data = io_msg.u.buf;
;;;101                    APP_PRINT_INFO0("KeyScan MSG, Sub type Scan end.");
;;;102                    if (passkey.enable_input)
;;;103                    {
;;;104                        keyboard_handle_pair_event(p_key_data);
;;;105                    }
;;;106                    else if (report_cccd_enable)
;;;107                    {
;;;108                        keyboard_handle_press_event(p_key_data);
;;;109                    }
;;;110                    else
;;;111                    {
;;;112                        if (gap_conn_state == GAP_CONN_STATE_DISCONNECTED && \
;;;113                            gap_dev_state.gap_adv_state == GAP_ADV_STATE_IDLE)
;;;114                        {
;;;115                            APP_PRINT_INFO1("keyscan trigger adv, resolv_list_exist = %d", resolv_list_exist);
;;;116                            if (resolv_list_exist)
;;;117                            {
;;;118                                keyboard_start_adv(ADV_RECONECT);
;;;119                                start_adv_led_timer(true);
;;;120                            }
;;;121                        }
;;;122                    }
;;;123                }
;;;124                else if (io_msg.subtype == IO_MSG_KEYSCAN_ALLKEYRELEASE)
        0x002097f2:    2903        .)      CMP      r1,#3
        0x002097f4:    d1f1        ..      BNE      0x2097da ; app_handle_io_msg + 26
;;;125                {
;;;126                    APP_PRINT_INFO0("KeyScan MSG, Sub type All realse.");
        0x002097f6:    2200        ."      MOVS     r2,#0
        0x002097f8:    499c        .I      LDR      r1,[pc,#624] ; [0x209a6c] = 0x88004b8
        0x002097fa:    f5fef930    ..0.    BL       log_buffer ; 0x7a5e
;;;127                    if (passkey.enable_input == false && report_cccd_enable)
        0x002097fe:    7968        hy      LDRB     r0,[r5,#5]
        0x00209800:    2800        .(      CMP      r0,#0
        0x00209802:    d1ea        ..      BNE      0x2097da ; app_handle_io_msg + 26
        0x00209804:    78e0        .x      LDRB     r0,[r4,#3]
        0x00209806:    2800        .(      CMP      r0,#0
        0x00209808:    d0e7        ..      BEQ      0x2097da ; app_handle_io_msg + 26
;;;128                    {
;;;129                        keyboard_handle_release_event();
        0x0020980a:    f000fd2a    ..*.    BL       keyboard_handle_release_event ; 0x20a262
;;;130                    }
;;;131                }
;;;132    
;;;133            }
;;;134            break;
;;;135        default:
;;;136            break;
;;;137        }
;;;138    }
        0x0020980e:    e72a        *.      B        0x209666 ; app_handle_dev_state_evt + 154
        0x00209810:    4996        .I      LDR      r1,[pc,#600] ; [0x209a6c] = 0x88004b8
        0x00209812:    2200        ."      MOVS     r2,#0
        0x00209814:    3954        T9      SUBS     r1,r1,#0x54
        0x00209816:    4606        .F      MOV      r6,r0
        0x00209818:    9f01        ..      LDR      r7,[sp,#4]
        0x0020981a:    f5fef920    .. .    BL       log_buffer ; 0x7a5e
        0x0020981e:    7968        hy      LDRB     r0,[r5,#5]
        0x00209820:    b118        ..      CBZ      r0,0x20982a ; app_handle_io_msg + 106
        0x00209822:    4638        8F      MOV      r0,r7
        0x00209824:    f000fc04    ....    BL       keyboard_handle_pair_event ; 0x20a030
        0x00209828:    e71d        ..      B        0x209666 ; app_handle_dev_state_evt + 154
        0x0020982a:    78e0        .x      LDRB     r0,[r4,#3]
        0x0020982c:    b118        ..      CBZ      r0,0x209836 ; app_handle_io_msg + 118
        0x0020982e:    4638        8F      MOV      r0,r7
        0x00209830:    f000fcc9    ....    BL       keyboard_handle_press_event ; 0x20a1c6
        0x00209834:    e717        ..      B        0x209666 ; app_handle_dev_state_evt + 154
        0x00209836:    7860        `x      LDRB     r0,[r4,#1]
        0x00209838:    2800        .(      CMP      r0,#0
        0x0020983a:    d1ce        ..      BNE      0x2097da ; app_handle_io_msg + 26
        0x0020983c:    488a        .H      LDR      r0,[pc,#552] ; [0x209a68] = 0x20bc80
        0x0020983e:    7800        .x      LDRB     r0,[r0,#0]
        0x00209840:    f0100f0c    ....    TST      r0,#0xc
        0x00209844:    d1c9        ..      BNE      0x2097da ; app_handle_io_msg + 26
        0x00209846:    4989        .I      LDR      r1,[pc,#548] ; [0x209a6c] = 0x88004b8
        0x00209848:    7923        #y      LDRB     r3,[r4,#4]
        0x0020984a:    2201        ."      MOVS     r2,#1
        0x0020984c:    3930        09      SUBS     r1,r1,#0x30
        0x0020984e:    4630        0F      MOV      r0,r6
        0x00209850:    f5fef905    ....    BL       log_buffer ; 0x7a5e
        0x00209854:    7920         y      LDRB     r0,[r4,#4]
        0x00209856:    2800        .(      CMP      r0,#0
        0x00209858:    d0bf        ..      BEQ      0x2097da ; app_handle_io_msg + 26
        0x0020985a:    2001        .       MOVS     r0,#1
        0x0020985c:    f000ff4a    ..J.    BL       keyboard_start_adv ; 0x20a6f4
        0x00209860:    2001        .       MOVS     r0,#1
        0x00209862:    f000fed1    ....    BL       start_adv_led_timer ; 0x20a608
        0x00209866:    e6fe        ..      B        0x209666 ; app_handle_dev_state_evt + 154
    app_gap_callback
;;;139    
;;;140    /**
;;;141     * @brief    Handle msg GAP_MSG_LE_DEV_STATE_CHANGE
;;;142     * @note     All the gap device state events are pre-handled in this function.
;;;143     *           Then the event handling function shall be called according to the new_state
;;;144     * @param[in] new_state  New gap device state
;;;145     * @param[in] cause GAP device state change cause
;;;146     * @return   void
;;;147     */
;;;148    void app_handle_dev_state_evt(T_GAP_DEV_STATE new_state, uint16_t cause)
;;;149    {
;;;150        APP_PRINT_INFO3("app_handle_dev_state_evt: init state %d, adv state %d, cause 0x%x",
;;;151                        new_state.gap_init_state, new_state.gap_adv_state, cause);
;;;152        if (gap_dev_state.gap_init_state != new_state.gap_init_state)
;;;153        {
;;;154            if (new_state.gap_init_state == GAP_INIT_STATE_STACK_READY)
;;;155            {
;;;156                APP_PRINT_INFO0("GAP stack ready");
;;;157                privacy_init(true);
;;;158            }
;;;159        }
;;;160    
;;;161        if (gap_dev_state.gap_adv_state != new_state.gap_adv_state)
;;;162        {
;;;163            if (new_state.gap_adv_state == GAP_ADV_STATE_IDLE)
;;;164            {
;;;165                if (new_state.gap_adv_sub_state == GAP_ADV_TO_IDLE_CAUSE_CONN)
;;;166                {
;;;167                    APP_PRINT_INFO0("GAP adv stoped: because connection created");
;;;168                }
;;;169                else
;;;170                {
;;;171                    APP_PRINT_INFO0("GAP adv stoped");
;;;172                    if (start_pair_adv)
;;;173                    {
;;;174                        start_pair_adv = false;
;;;175                        le_privacy_set_addr_resolution(false);
;;;176                        le_bond_clear_all_keys();//maybe move this to privacy_handle_le_privacy_resolution_status_info
;;;177                    }
;;;178                }
;;;179            }
;;;180            else if (new_state.gap_adv_state == GAP_ADV_STATE_ADVERTISING)
;;;181            {
;;;182                APP_PRINT_INFO0("GAP adv start");
;;;183            }
;;;184        }
;;;185    
;;;186        gap_dev_state = new_state;
;;;187    }
;;;188    
;;;189    /**
;;;190     * @brief    Handle msg GAP_MSG_LE_CONN_STATE_CHANGE
;;;191     * @note     All the gap conn state events are pre-handled in this function.
;;;192     *           Then the event handling function shall be called according to the new_state
;;;193     * @param[in] conn_id Connection ID
;;;194     * @param[in] new_state  New gap connection state
;;;195     * @param[in] disc_cause Use this cause when new_state is GAP_CONN_STATE_DISCONNECTED
;;;196     * @return   void
;;;197     */
;;;198    void app_handle_conn_state_evt(uint8_t conn_id, T_GAP_CONN_STATE new_state, uint16_t disc_cause)
;;;199    {
;;;200        APP_PRINT_INFO4("app_handle_conn_state_evt: conn_id %d old_state %d new_state %d, disc_cause 0x%x",
;;;201                        conn_id, gap_conn_state, new_state, disc_cause);
;;;202        switch (new_state)
;;;203        {
;;;204        case GAP_CONN_STATE_DISCONNECTED:
;;;205            {
;;;206                if ((disc_cause != (HCI_ERR | HCI_ERR_REMOTE_USER_TERMINATE))
;;;207                    && (disc_cause != (HCI_ERR | HCI_ERR_LOCAL_HOST_TERMINATE)))
;;;208                {
;;;209                    APP_PRINT_ERROR1("app_handle_conn_state_evt: connection lost cause 0x%x", disc_cause);
;;;210                }
;;;211    
;;;212                stop_con_update_timer();
;;;213                report_cccd_enable = false;
;;;214                passkey.enable_input = false;
;;;215    
;;;216                if (switch_into_ota_pending)
;;;217                {
;;;218                    switch_into_ota_pending = false;
;;;219                    dfu_switch_to_ota_mode();
;;;220                    WDG_SystemReset(RESET_ALL_EXCEPT_AON, DFU_SWITCH_TO_OTA);
;;;221                }
;;;222    
;;;223                if (resolv_list_exist == false)
;;;224                {
;;;225                    start_pair_adv = true;
;;;226                }
;;;227    
;;;228                if (start_pair_adv)
;;;229                {
;;;230                    APP_PRINT_INFO0("disconnect and start adv");
;;;231                    start_pair_adv = false;
;;;232                    keyboard_start_adv(ADV_UNDIRECT_PAIRING);
;;;233                    start_adv_led_timer(false);
;;;234                }
;;;235    
;;;236            }
;;;237            break;
;;;238    
;;;239        case GAP_CONN_STATE_CONNECTED:
;;;240            {
;;;241                keyboard_con_id = conn_id;
;;;242                uint16_t conn_interval;
;;;243                uint16_t conn_latency;
;;;244                uint16_t conn_supervision_timeout;
;;;245    
;;;246                le_get_conn_param(GAP_PARAM_CONN_INTERVAL, &conn_interval, conn_id);
;;;247                le_get_conn_param(GAP_PARAM_CONN_LATENCY, &conn_latency, conn_id);
;;;248                le_get_conn_param(GAP_PARAM_CONN_TIMEOUT, &conn_supervision_timeout, conn_id);
;;;249                APP_PRINT_INFO3("GAP_CONN_STATE_CONNECTED: conn_interval 0x%x, conn_latency 0x%x, conn_supervision_timeout 0x%x",
;;;250                                conn_interval, conn_latency, conn_supervision_timeout);
;;;251    
;;;252                stop_adv_led_timer();
;;;253                start_con_update_timer();
;;;254            }
;;;255            break;
;;;256    
;;;257        default:
;;;258            break;
;;;259        }
;;;260        gap_conn_state = new_state;
;;;261    }
;;;262    
;;;263    /**
;;;264     * @brief    Handle msg GAP_MSG_LE_AUTHEN_STATE_CHANGE
;;;265     * @note     All the gap authentication state events are pre-handled in this function.
;;;266     *           Then the event handling function shall be called according to the new_state
;;;267     * @param[in] conn_id Connection ID
;;;268     * @param[in] new_state  New authentication state
;;;269     * @param[in] cause Use this cause when new_state is GAP_AUTHEN_STATE_COMPLETE
;;;270     * @return   void
;;;271     */
;;;272    void app_handle_authen_state_evt(uint8_t conn_id, uint8_t new_state, uint16_t cause)
;;;273    {
;;;274        APP_PRINT_INFO2("app_handle_authen_state_evt:conn_id %d, cause 0x%x", conn_id, cause);
;;;275    
;;;276        switch (new_state)
;;;277        {
;;;278        case GAP_AUTHEN_STATE_STARTED:
;;;279            {
;;;280                APP_PRINT_INFO0("app_handle_authen_state_evt: GAP_AUTHEN_STATE_STARTED");
;;;281            }
;;;282            break;
;;;283    
;;;284        case GAP_AUTHEN_STATE_COMPLETE:
;;;285            {
;;;286                if (cause == GAP_SUCCESS)
;;;287                {
;;;288                    APP_PRINT_INFO0("app_handle_authen_state_evt: GAP_AUTHEN_STATE_COMPLETE pair success");
;;;289                    if (resolv_list_exist == false)
;;;290                    {
;;;291                        T_LE_KEY_ENTRY *p_entry;
;;;292                        p_entry = le_get_high_priority_bond();
;;;293                        if ((p_entry != NULL) && (p_entry->is_used))
;;;294                        {
;;;295                            privacy_add_device(p_entry);
;;;296                        }
;;;297                    }
;;;298                }
;;;299                else
;;;300                {
;;;301                    APP_PRINT_INFO0("app_handle_authen_state_evt: GAP_AUTHEN_STATE_COMPLETE pair failed");
;;;302                }
;;;303            }
;;;304            break;
;;;305    
;;;306        default:
;;;307            {
;;;308                APP_PRINT_ERROR1("app_handle_authen_state_evt: unknown newstate %d", new_state);
;;;309            }
;;;310            break;
;;;311        }
;;;312    }
;;;313    
;;;314    /**
;;;315     * @brief    Handle msg GAP_MSG_LE_CONN_MTU_INFO
;;;316     * @note     This msg is used to inform APP that exchange mtu procedure is completed.
;;;317     * @param[in] conn_id Connection ID
;;;318     * @param[in] mtu_size  New mtu size
;;;319     * @return   void
;;;320     */
;;;321    void app_handle_conn_mtu_info_evt(uint8_t conn_id, uint16_t mtu_size)
;;;322    {
;;;323        APP_PRINT_INFO2("app_handle_conn_mtu_info_evt: conn_id %d, mtu_size %d", conn_id, mtu_size);
;;;324    }
;;;325    
;;;326    /**
;;;327     * @brief    Handle msg GAP_MSG_LE_CONN_PARAM_UPDATE
;;;328     * @note     All the connection parameter update change  events are pre-handled in this function.
;;;329     * @param[in] conn_id Connection ID
;;;330     * @param[in] status  New update state
;;;331     * @param[in] cause Use this cause when status is GAP_CONN_PARAM_UPDATE_STATUS_FAIL
;;;332     * @return   void
;;;333     */
;;;334    void app_handle_conn_param_update_evt(uint8_t conn_id, uint8_t status, uint16_t cause)
;;;335    {
;;;336        switch (status)
;;;337        {
;;;338        case GAP_CONN_PARAM_UPDATE_STATUS_SUCCESS:
;;;339            {
;;;340                uint16_t conn_interval;
;;;341                uint16_t conn_slave_latency;
;;;342                uint16_t conn_supervision_timeout;
;;;343    
;;;344                le_get_conn_param(GAP_PARAM_CONN_INTERVAL, &conn_interval, conn_id);
;;;345                le_get_conn_param(GAP_PARAM_CONN_LATENCY, &conn_slave_latency, conn_id);
;;;346                le_get_conn_param(GAP_PARAM_CONN_TIMEOUT, &conn_supervision_timeout, conn_id);
;;;347                APP_PRINT_INFO3("app_handle_conn_param_update_evt update success:conn_interval 0x%x, conn_slave_latency 0x%x, conn_supervision_timeout 0x%x",
;;;348                                conn_interval, conn_slave_latency, conn_supervision_timeout);
;;;349                if (((conn_slave_latency + 1) * conn_interval < 16) || (conn_slave_latency == 0))
;;;350                {
;;;351                    APP_PRINT_INFO0("reupdate the connection parameter");
;;;352                    start_con_update_timer();
;;;353                }
;;;354                else
;;;355                {
;;;356                    APP_PRINT_INFO0("stop update the connection parameter");
;;;357                    stop_con_update_timer();
;;;358                }
;;;359            }
;;;360            break;
;;;361    
;;;362        case GAP_CONN_PARAM_UPDATE_STATUS_FAIL:
;;;363            {
;;;364                APP_PRINT_ERROR1("app_handle_conn_param_update_evt update failed: cause 0x%x", cause);
;;;365            }
;;;366            break;
;;;367    
;;;368        case GAP_CONN_PARAM_UPDATE_STATUS_PENDING:
;;;369            {
;;;370                APP_PRINT_INFO0("app_handle_conn_param_update_evt update pending.");
;;;371            }
;;;372            break;
;;;373    
;;;374        default:
;;;375            break;
;;;376        }
;;;377    }
;;;378    
;;;379    /**
;;;380     * @brief    All the BT GAP MSG are pre-handled in this function.
;;;381     * @note     Then the event handling function shall be called according to the
;;;382     *           subtype of T_IO_MSG
;;;383     * @param[in] p_gap_msg Pointer to GAP msg
;;;384     * @return   void
;;;385     */
;;;386    void app_handle_gap_msg(T_IO_MSG *p_gap_msg)
;;;387    {
;;;388        T_LE_GAP_MSG gap_msg;
;;;389        uint8_t conn_id;
;;;390        memcpy(&gap_msg, &p_gap_msg->u.param, sizeof(p_gap_msg->u.param));
;;;391    
;;;392        APP_PRINT_TRACE1("app_handle_gap_msg: subtype %d", p_gap_msg->subtype);
;;;393        switch (p_gap_msg->subtype)
;;;394        {
;;;395        case GAP_MSG_LE_DEV_STATE_CHANGE:
;;;396            {
;;;397                app_handle_dev_state_evt(gap_msg.msg_data.gap_dev_state_change.new_state,
;;;398                                         gap_msg.msg_data.gap_dev_state_change.cause);
;;;399            }
;;;400            break;
;;;401    
;;;402        case GAP_MSG_LE_CONN_STATE_CHANGE:
;;;403            {
;;;404                app_handle_conn_state_evt(gap_msg.msg_data.gap_conn_state_change.conn_id,
;;;405                                          (T_GAP_CONN_STATE)gap_msg.msg_data.gap_conn_state_change.new_state,
;;;406                                          gap_msg.msg_data.gap_conn_state_change.disc_cause);
;;;407            }
;;;408            break;
;;;409    
;;;410        case GAP_MSG_LE_CONN_MTU_INFO:
;;;411            {
;;;412                app_handle_conn_mtu_info_evt(gap_msg.msg_data.gap_conn_mtu_info.conn_id,
;;;413                                             gap_msg.msg_data.gap_conn_mtu_info.mtu_size);
;;;414            }
;;;415            break;
;;;416    
;;;417        case GAP_MSG_LE_CONN_PARAM_UPDATE:
;;;418            {
;;;419                app_handle_conn_param_update_evt(gap_msg.msg_data.gap_conn_param_update.conn_id,
;;;420                                                 gap_msg.msg_data.gap_conn_param_update.status,
;;;421                                                 gap_msg.msg_data.gap_conn_param_update.cause);
;;;422            }
;;;423            break;
;;;424    
;;;425        case GAP_MSG_LE_AUTHEN_STATE_CHANGE:
;;;426            {
;;;427                app_handle_authen_state_evt(gap_msg.msg_data.gap_authen_state.conn_id,
;;;428                                            gap_msg.msg_data.gap_authen_state.new_state,
;;;429                                            gap_msg.msg_data.gap_authen_state.status);
;;;430            }
;;;431            break;
;;;432    
;;;433        case GAP_MSG_LE_BOND_JUST_WORK:
;;;434            {
;;;435                conn_id = gap_msg.msg_data.gap_bond_just_work_conf.conn_id;
;;;436                le_bond_just_work_confirm(conn_id, GAP_CFM_CAUSE_ACCEPT);
;;;437                APP_PRINT_INFO0("GAP_MSG_LE_BOND_JUST_WORK");
;;;438            }
;;;439            break;
;;;440    
;;;441        case GAP_MSG_LE_BOND_PASSKEY_DISPLAY:
;;;442            {
;;;443                uint32_t display_value = 0;
;;;444                conn_id = gap_msg.msg_data.gap_bond_passkey_display.conn_id;
;;;445                le_bond_get_display_key(conn_id, &display_value);
;;;446                APP_PRINT_INFO1("GAP_MSG_LE_BOND_PASSKEY_DISPLAY:passkey %d", display_value);
;;;447                le_bond_passkey_display_confirm(conn_id, GAP_CFM_CAUSE_ACCEPT);
;;;448            }
;;;449            break;
;;;450    
;;;451        case GAP_MSG_LE_BOND_USER_CONFIRMATION:
;;;452            {
;;;453                uint32_t display_value = 0;
;;;454                conn_id = gap_msg.msg_data.gap_bond_user_conf.conn_id;
;;;455                le_bond_get_display_key(conn_id, &display_value);
;;;456                APP_PRINT_INFO1("GAP_MSG_LE_BOND_USER_CONFIRMATION: passkey %d", display_value);
;;;457                le_bond_user_confirm(conn_id, GAP_CFM_CAUSE_ACCEPT);
;;;458            }
;;;459            break;
;;;460    
;;;461        case GAP_MSG_LE_BOND_PASSKEY_INPUT:
;;;462            {
;;;463                conn_id = gap_msg.msg_data.gap_bond_passkey_input.conn_id;
;;;464                APP_PRINT_INFO1("GAP_MSG_LE_BOND_PASSKEY_INPUT: conn_id %d", conn_id);
;;;465                passkey.enable_input = true;
;;;466            }
;;;467            break;
;;;468    
;;;469        case GAP_MSG_LE_BOND_OOB_INPUT:
;;;470            {
;;;471                uint8_t oob_data[GAP_OOB_LEN] = {0, 0, 0, 0, 0, 0, 0, 0, 0, 0, 0, 0, 0, 0, 0, 0};
;;;472                conn_id = gap_msg.msg_data.gap_bond_oob_input.conn_id;
;;;473                APP_PRINT_INFO0("GAP_MSG_LE_BOND_OOB_INPUT");
;;;474                le_bond_set_param(GAP_PARAM_BOND_OOB_DATA, GAP_OOB_LEN, oob_data);
;;;475                le_bond_oob_input_confirm(conn_id, GAP_CFM_CAUSE_ACCEPT);
;;;476            }
;;;477            break;
;;;478    
;;;479        default:
;;;480            APP_PRINT_ERROR1("app_handle_gap_msg: unknown subtype %d", p_gap_msg->subtype);
;;;481            break;
;;;482        }
;;;483    }
;;;484    /** @} */ /* End of group PERIPH_GAP_MSG */
;;;485    
;;;486    /** @defgroup  PERIPH_GAP_CALLBACK GAP Callback Event Handler
;;;487        * @brief Handle GAP callback event
;;;488        * @{
;;;489        */
;;;490    /**
;;;491      * @brief Callback for gap le to notify app
;;;492      * @param[in] cb_type callback msy type @ref GAP_LE_MSG_Types.
;;;493      * @param[in] p_cb_data point to callback data @ref T_LE_CB_DATA.
;;;494      * @retval result @ref T_APP_RESULT
;;;495      */
;;;496    T_APP_RESULT app_gap_callback(uint8_t cb_type, void *p_cb_data)
;;;497    {
        0x00209868:    e92d41fc    -..A    PUSH     {r2-r8,lr}
        0x0020986c:    2600        .&      MOVS     r6,#0
        0x0020986e:    4f7d        }O      LDR      r7,[pc,#500] ; [0x209a64] = 0x21103002
;;; ..\..\..\src\app\keyboard\keyboard_app.c (497)
        0x00209870:    4605        .F      MOV      r5,r0
        0x00209872:    460c        .F      MOV      r4,r1
        0x00209874:    2801        .(      CMP      r0,#1
        0x00209876:    d010        ..      BEQ      0x20989a ; app_gap_callback + 50
;;;498        T_APP_RESULT result = APP_RESULT_SUCCESS;
;;;499        T_LE_CB_DATA *p_data = (T_LE_CB_DATA *)p_cb_data;
;;;500    
;;;501        switch (cb_type)
        0x00209878:    2d14        .-      CMP      r5,#0x14
        0x0020987a:    d002        ..      BEQ      0x209882 ; app_gap_callback + 26
        0x0020987c:    2d20         -      CMP      r5,#0x20
        0x0020987e:    d147        G.      BNE      0x209910 ; app_gap_callback + 168
        0x00209880:    e039        9.      B        0x2098f6 ; app_gap_callback + 142
;;;502        {
;;;503        case GAP_MSG_LE_DATA_LEN_CHANGE_INFO:
;;;504            APP_PRINT_INFO3("GAP_MSG_LE_DATA_LEN_CHANGE_INFO: conn_id %d, tx octets 0x%x, max_tx_time 0x%x",
        0x00209882:    6808        .h      LDR      r0,[r1,#0]
        0x00209884:    8882        ..      LDRH     r2,[r0,#4]
        0x00209886:    8841        A.      LDRH     r1,[r0,#2]
        0x00209888:    e9cd1200    ....    STRD     r1,r2,[sp,#0]
        0x0020988c:    7803        .x      LDRB     r3,[r0,#0]
        0x0020988e:    2203        ."      MOVS     r2,#3
        0x00209890:    4977        wI      LDR      r1,[pc,#476] ; [0x209a70] = 0x8800a7c
        0x00209892:    4638        8F      MOV      r0,r7
        0x00209894:    f5fef8e3    ....    BL       log_buffer ; 0x7a5e
;;;505                            p_data->p_le_data_len_change_info->conn_id,
;;;506                            p_data->p_le_data_len_change_info->max_tx_octets,
;;;507                            p_data->p_le_data_len_change_info->max_tx_time);
;;;508            break;
        0x00209898:    e042        B.      B        0x209920 ; app_gap_callback + 184
;;;509    
;;;510        case GAP_MSG_LE_MODIFY_WHITE_LIST:
;;;511            APP_PRINT_INFO2("GAP_MSG_LE_MODIFY_WHITE_LIST: operation %d, cause 0x%x",
        0x0020989a:    6820         h      LDR      r0,[r4,#0]
        0x0020989c:    2202        ."      MOVS     r2,#2
        0x0020989e:    8841        A.      LDRH     r1,[r0,#2]
        0x002098a0:    9100        ..      STR      r1,[sp,#0]
        0x002098a2:    4973        sI      LDR      r1,[pc,#460] ; [0x209a70] = 0x8800a7c
        0x002098a4:    7803        .x      LDRB     r3,[r0,#0]
        0x002098a6:    3154        T1      ADDS     r1,r1,#0x54
        0x002098a8:    4638        8F      MOV      r0,r7
        0x002098aa:    f5fef8d8    ....    BL       log_buffer ; 0x7a5e
;;;512                            p_data->p_le_modify_white_list_rsp->operation,
;;;513                            p_data->p_le_modify_white_list_rsp->cause);
;;;514            if (p_data->p_le_modify_white_list_rsp->operation == GAP_WHITE_LIST_OP_CLEAR)
        0x002098ae:    6820         h      LDR      r0,[r4,#0]
        0x002098b0:    7800        .x      LDRB     r0,[r0,#0]
        0x002098b2:    b9f8        ..      CBNZ     r0,0x2098f4 ; app_gap_callback + 140
;;;515            {
;;;516                if (gap_conn_state == GAP_CONN_STATE_DISCONNECTED)
        0x002098b4:    496c        lI      LDR      r1,[pc,#432] ; [0x209a68] = 0x20bc80
        0x002098b6:    7848        Hx      LDRB     r0,[r1,#1]
        0x002098b8:    b110        ..      CBZ      r0,0x2098c0 ; app_gap_callback + 88
        0x002098ba:    2802        .(      CMP      r0,#2
        0x002098bc:    d014        ..      BEQ      0x2098e8 ; app_gap_callback + 128
        0x002098be:    e02f        /.      B        0x209920 ; app_gap_callback + 184
;;;517                {
;;;518                    if (gap_dev_state.gap_adv_state == GAP_ADV_STATE_IDLE)
        0x002098c0:    4869        iH      LDR      r0,[pc,#420] ; [0x209a68] = 0x20bc80
        0x002098c2:    7800        .x      LDRB     r0,[r0,#0]
        0x002098c4:    f0100f0c    ....    TST      r0,#0xc
        0x002098c8:    d004        ..      BEQ      0x2098d4 ; app_gap_callback + 108
        0x002098ca:    f3c00081    ....    UBFX     r0,r0,#2,#2
        0x002098ce:    2802        .(      CMP      r0,#2
        0x002098d0:    d007        ..      BEQ      0x2098e2 ; app_gap_callback + 122
        0x002098d2:    e025        %.      B        0x209920 ; app_gap_callback + 184
;;;519                    {
;;;520                        keyboard_start_adv(ADV_UNDIRECT_PAIRING);
        0x002098d4:    2002        .       MOVS     r0,#2
        0x002098d6:    f000ff0d    ....    BL       keyboard_start_adv ; 0x20a6f4
;;;521                        start_adv_led_timer(false);
        0x002098da:    2000        .       MOVS     r0,#0
        0x002098dc:    f000fe94    ....    BL       start_adv_led_timer ; 0x20a608
        0x002098e0:    e01e        ..      B        0x209920 ; app_gap_callback + 184
;;;522                    }
;;;523                    else if (gap_dev_state.gap_adv_state == GAP_ADV_STATE_ADVERTISING)
;;;524                    {
;;;525                        reset_adv_count();
        0x002098e2:    f000febf    ....    BL       reset_adv_count ; 0x20a664
        0x002098e6:    e01b        ..      B        0x209920 ; app_gap_callback + 184
;;;526                    }
;;;527                }
;;;528                else if (gap_conn_state == GAP_CONN_STATE_CONNECTED)
;;;529                {
;;;530                    le_disconnect(keyboard_con_id);
        0x002098e8:    7a08        .z      LDRB     r0,[r1,#8]
        0x002098ea:    f644f99b    D...    BL       le_disconnect ; 0x4dc24
;;;531                    start_pair_adv = true;
        0x002098ee:    4961        aI      LDR      r1,[pc,#388] ; [0x209a74] = 0x20bcc4
        0x002098f0:    2001        .       MOVS     r0,#1
        0x002098f2:    7008        .p      STRB     r0,[r1,#0]
        0x002098f4:    e014        ..      B        0x209920 ; app_gap_callback + 184
;;;532                }
;;;533            }
;;;534            break;
;;;535    
;;;536        case GAP_MSG_LE_BOND_MODIFY_INFO:
;;;537            APP_PRINT_INFO1("GAP_MSG_LE_BOND_MODIFY_INFO: type 0x%x",
        0x002098f6:    6820         h      LDR      r0,[r4,#0]
        0x002098f8:    495d        ]I      LDR      r1,[pc,#372] ; [0x209a70] = 0x8800a7c
        0x002098fa:    2201        ."      MOVS     r2,#1
        0x002098fc:    7803        .x      LDRB     r3,[r0,#0]
        0x002098fe:    3190        .1      ADDS     r1,r1,#0x90
        0x00209900:    4638        8F      MOV      r0,r7
        0x00209902:    f5fef8ac    ....    BL       log_buffer ; 0x7a5e
;;;538                            p_data->p_le_bond_modify_info->type);
;;;539            privacy_handle_bond_modify_msg(p_data->p_le_bond_modify_info->type,
        0x00209906:    6820         h      LDR      r0,[r4,#0]
        0x00209908:    6841        Ah      LDR      r1,[r0,#4]
        0x0020990a:    7800        .x      LDRB     r0,[r0,#0]
        0x0020990c:    f001f8e1    ....    BL       privacy_handle_bond_modify_msg ; 0x20aad2
;;;540                                           p_data->p_le_bond_modify_info->p_entry);
;;;541        default:
;;;542            APP_PRINT_ERROR1("app_gap_callback: unhandled cb_type 0x%x", cb_type);
        0x00209910:    4957        WI      LDR      r1,[pc,#348] ; [0x209a70] = 0x8800a7c
        0x00209912:    4854        TH      LDR      r0,[pc,#336] ; [0x209a64] = 0x21103002
        0x00209914:    462b        +F      MOV      r3,r5
        0x00209916:    2201        ."      MOVS     r2,#1
        0x00209918:    31bc        .1      ADDS     r1,r1,#0xbc
        0x0020991a:    1e80        ..      SUBS     r0,r0,#2
        0x0020991c:    f5fef89f    ....    BL       log_buffer ; 0x7a5e
;;;543            break;
;;;544        }
;;;545        return result;
        0x00209920:    4630        0F      MOV      r0,r6
;;;546    }
        0x00209922:    e6a0        ..      B        0x209666 ; app_handle_dev_state_evt + 154
    app_profile_callback
;;;547    /** @} */ /* End of group PERIPH_GAP_CALLBACK */
;;;548    
;;;549    /** @defgroup  PERIPH_SEVER_CALLBACK Profile Server Callback Event Handler
;;;550        * @brief Handle profile server callback event
;;;551        * @{
;;;552        */
;;;553    /**
;;;554        * @brief    All the BT Profile service callback events are handled in this function
;;;555        * @note     Then the event handling function shall be called according to the
;;;556        *           service_id
;;;557        * @param    service_id  Profile service ID
;;;558        * @param    p_data      Pointer to callback data
;;;559        * @return   T_APP_RESULT, which indicates the function call is successful or not
;;;560        * @retval   APP_RESULT_SUCCESS  Function run successfully
;;;561        * @retval   others              Function run failed, and return number indicates the reason
;;;562        */
;;;563    T_APP_RESULT app_profile_callback(T_SERVER_ID service_id, void *p_data)
;;;564    {
        0x00209924:    e92d41ff    -..A    PUSH     {r0-r8,lr}
        0x00209928:    4602        .F      MOV      r2,r0
        0x0020992a:    2700        .'      MOVS     r7,#0
        0x0020992c:    484d        MH      LDR      r0,[pc,#308] ; [0x209a64] = 0x21103002
        0x0020992e:    2aff        .*      CMP      r2,#0xff
;;; ..\..\..\src\app\keyboard\keyboard_app.c (564)
        0x00209930:    d00b        ..      BEQ      0x20994a ; app_profile_callback + 38
        0x00209932:    4d4d        MM      LDR      r5,[pc,#308] ; [0x209a68] = 0x20bc80
        0x00209934:    2601        .&      MOVS     r6,#1
        0x00209936:    796b        ky      LDRB     r3,[r5,#5]
        0x00209938:    429a        .B      CMP      r2,r3
        0x0020993a:    d150        P.      BNE      0x2099de ; app_profile_callback + 186
        0x0020993c:    460c        .F      MOV      r4,r1
        0x0020993e:    7849        Ix      LDRB     r1,[r1,#1]
        0x00209940:    2901        .)      CMP      r1,#1
        0x00209942:    d026        &.      BEQ      0x209992 ; app_profile_callback + 110
        0x00209944:    2903        .)      CMP      r1,#3
        0x00209946:    d12b        +.      BNE      0x2099a0 ; app_profile_callback + 124
        0x00209948:    e02d        -.      B        0x2099a6 ; app_profile_callback + 130
;;;565        T_APP_RESULT app_result = APP_RESULT_SUCCESS;
;;;566        if (service_id == SERVICE_PROFILE_GENERAL_ID)
;;;567        {
;;;568            T_SERVER_APP_CB_DATA *p_param = (T_SERVER_APP_CB_DATA *)p_data;
        0x0020994a:    460c        .F      MOV      r4,r1
;;;569            switch (p_param->eventId)
        0x0020994c:    7809        .x      LDRB     r1,[r1,#0]
        0x0020994e:    b111        ..      CBZ      r1,0x209956 ; app_profile_callback + 50
        0x00209950:    2901        .)      CMP      r1,#1
        0x00209952:    d125        %.      BNE      0x2099a0 ; app_profile_callback + 124
        0x00209954:    e004        ..      B        0x209960 ; app_profile_callback + 60
;;;570            {
;;;571            case PROFILE_EVT_SRV_REG_COMPLETE:// srv register result event.
;;;572                APP_PRINT_INFO1("PROFILE_EVT_SRV_REG_COMPLETE: result %d",
        0x00209956:    4946        FI      LDR      r1,[pc,#280] ; [0x209a70] = 0x8800a7c
        0x00209958:    2201        ."      MOVS     r2,#1
        0x0020995a:    78a3        .x      LDRB     r3,[r4,#2]
        0x0020995c:    31e8        .1      ADDS     r1,r1,#0xe8
;;;573                                p_param->event_data.service_reg_result);
;;;574                break;
        0x0020995e:    e02c        ,.      B        0x2099ba ; app_profile_callback + 150
;;;575    
;;;576            case PROFILE_EVT_SEND_DATA_COMPLETE:
;;;577                APP_PRINT_INFO5("PROFILE_EVT_SEND_DATA_COMPLETE: conn_id %d, cause 0x%x, service_id %d, attrib_idx 0x%x, credits %d",
        0x00209960:    8921        !.      LDRH     r1,[r4,#8]
        0x00209962:    8865        e.      LDRH     r5,[r4,#2]
        0x00209964:    88e3        ..      LDRH     r3,[r4,#6]
        0x00209966:    7962        by      LDRB     r2,[r4,#5]
        0x00209968:    e88d002e    ....    STM      sp,{r1-r3,r5}
        0x0020996c:    7923        #y      LDRB     r3,[r4,#4]
        0x0020996e:    2205        ."      MOVS     r2,#5
        0x00209970:    4941        AI      LDR      r1,[pc,#260] ; [0x209a78] = 0x8800b90
        0x00209972:    4605        .F      MOV      r5,r0
        0x00209974:    f5fef873    ..s.    BL       log_buffer ; 0x7a5e
;;;578                                p_param->event_data.send_data_result.conn_id,
;;;579                                p_param->event_data.send_data_result.cause,
;;;580                                p_param->event_data.send_data_result.service_id,
;;;581                                p_param->event_data.send_data_result.attrib_idx,
;;;582                                p_param->event_data.send_data_result.credits);
;;;583                if (p_param->event_data.send_data_result.cause == GAP_SUCCESS)
        0x00209978:    8920         .      LDRH     r0,[r4,#8]
        0x0020997a:    f04f0200    O...    MOV      r2,#0
        0x0020997e:    b120         .      CBZ      r0,0x20998a ; app_profile_callback + 102
        0x00209980:    493d        =I      LDR      r1,[pc,#244] ; [0x209a78] = 0x8800b90
        0x00209982:    4838        8H      LDR      r0,[pc,#224] ; [0x209a64] = 0x21103002
        0x00209984:    3194        .1      ADDS     r1,r1,#0x94
        0x00209986:    1e80        ..      SUBS     r0,r0,#2
        0x00209988:    e03e        >.      B        0x209a08 ; app_profile_callback + 228
;;;584                {
;;;585                    APP_PRINT_INFO0("PROFILE_EVT_SEND_DATA_COMPLETE success");
        0x0020998a:    493b        ;I      LDR      r1,[pc,#236] ; [0x209a78] = 0x8800b90
        0x0020998c:    4628        (F      MOV      r0,r5
        0x0020998e:    3168        h1      ADDS     r1,r1,#0x68
        0x00209990:    e03a        :.      B        0x209a08 ; app_profile_callback + 228
;;;586                }
;;;587                else
;;;588                {
;;;589                    APP_PRINT_ERROR0("PROFILE_EVT_SEND_DATA_COMPLETE failed");
;;;590                }
;;;591                break;
;;;592    
;;;593            default:
;;;594                break;
;;;595            }
;;;596        }
;;;597        else  if (service_id == hid_srv_id)
;;;598        {
;;;599            T_HID_CALLBACK_DATA *p_hid_cb_data = (T_HID_CALLBACK_DATA *)p_data;
;;;600    
;;;601            switch (p_hid_cb_data->msg_type)
;;;602            {
;;;603            case SERVICE_CALLBACK_TYPE_INDIFICATION_NOTIFICATION:
;;;604                {
;;;605                    switch (p_hid_cb_data->msg_data.not_ind_data.index)
        0x00209992:    7d20         }      LDRB     r0,[r4,#0x14]
        0x00209994:    2805        .(      CMP      r0,#5
        0x00209996:    d160        `.      BNE      0x209a5a ; app_profile_callback + 310
;;;606                    {
;;;607                    case GATT_SVC_HID_REPORT_INPUT_CCCD_INDEX:
;;;608                        {
;;;609                            if (p_hid_cb_data->msg_data.not_ind_data.value == NOTIFY_ENABLE)
        0x00209998:    7d60        `}      LDRB     r0,[r4,#0x15]
        0x0020999a:    b110        ..      CBZ      r0,0x2099a2 ; app_profile_callback + 126
        0x0020999c:    2000        .       MOVS     r0,#0
        0x0020999e:    70e8        .p      STRB     r0,[r5,#3]
        0x002099a0:    e05b        [.      B        0x209a5a ; app_profile_callback + 310
;;;610                            {
;;;611                                report_cccd_enable = true;
        0x002099a2:    70ee        .p      STRB     r6,[r5,#3]
        0x002099a4:    e059        Y.      B        0x209a5a ; app_profile_callback + 310
;;;612                            }
;;;613                            else
;;;614                            {
;;;615                                report_cccd_enable = false;
;;;616                            }
;;;617                        }
;;;618                        break;
;;;619                    case GATT_SVC_HID_BOOT_KB_IN_REPORT_CCCD_INDEX:
;;;620                        {
;;;621    
;;;622                        }
;;;623                        break;
;;;624                    default:
;;;625                        break;
;;;626                    }
;;;627                }
;;;628                break;
;;;629            case SERVICE_CALLBACK_TYPE_WRITE_CHAR_VALUE:
;;;630                {
;;;631                    switch (p_hid_cb_data->msg_data.read_value_index)
        0x002099a6:    7921        !y      LDRB     r1,[r4,#4]
        0x002099a8:    2902        .)      CMP      r1,#2
        0x002099aa:    d002        ..      BEQ      0x2099b2 ; app_profile_callback + 142
        0x002099ac:    2908        .)      CMP      r1,#8
        0x002099ae:    d154        T.      BNE      0x209a5a ; app_profile_callback + 310
        0x002099b0:    e006        ..      B        0x2099c0 ; app_profile_callback + 156
;;;632                    {
;;;633                    case GATT_SVC_HID_PROTOCOL_MODE_INDEX:
;;;634                        {
;;;635                            APP_PRINT_INFO1("HID_WRITE_PROTOCOL MODE %d\n",
        0x002099b2:    4931        1I      LDR      r1,[pc,#196] ; [0x209a78] = 0x8800b90
        0x002099b4:    7b23        #{      LDRB     r3,[r4,#0xc]
        0x002099b6:    2201        ."      MOVS     r2,#1
        0x002099b8:    31c0        .1      ADDS     r1,r1,#0xc0
        0x002099ba:    f5fef850    ..P.    BL       log_buffer ; 0x7a5e
        0x002099be:    e04c        L.      B        0x209a5a ; app_profile_callback + 310
;;;636                                            p_hid_cb_data->msg_data.write_msg.write_parameter.protocol_mode);
;;;637                            break;
;;;638                        }
;;;639                    case GATT_SVC_HID_REPORT_OUTPUT_INDEX:
;;;640                        {
;;;641                            //callback data definition need to modify.
;;;642                            APP_PRINT_INFO1("HID_OUTPUT value %d\n", p_hid_cb_data->msg_data.write_msg.write_parameter.output);
        0x002099c0:    492d        -I      LDR      r1,[pc,#180] ; [0x209a78] = 0x8800b90
        0x002099c2:    7b23        #{      LDRB     r3,[r4,#0xc]
        0x002099c4:    2201        ."      MOVS     r2,#1
        0x002099c6:    31e0        .1      ADDS     r1,r1,#0xe0
        0x002099c8:    f5fef849    ..I.    BL       log_buffer ; 0x7a5e
;;;643                            if (p_hid_cb_data->msg_data.write_msg.write_parameter.output & 0x02)
        0x002099cc:    7b20         {      LDRB     r0,[r4,#0xc]
        0x002099ce:    0780        ..      LSLS     r0,r0,#30
        0x002099d0:    d502        ..      BPL      0x2099d8 ; app_profile_callback + 180
;;;644                            {
;;;645                                capslock_led_on();
        0x002099d2:    f000fe6a    ..j.    BL       capslock_led_on ; 0x20a6aa
        0x002099d6:    e040        @.      B        0x209a5a ; app_profile_callback + 310
;;;646                            }
;;;647                            else
;;;648                            {
;;;649                                capslock_led_off();
        0x002099d8:    f000fe72    ..r.    BL       capslock_led_off ; 0x20a6c0
        0x002099dc:    e03d        =.      B        0x209a5a ; app_profile_callback + 310
;;;650                            }
;;;651                            break;
;;;652                        }
;;;653                    default:
;;;654                        break;
;;;655                    }
;;;656                }
;;;657                break;
;;;658            default:
;;;659                break;
;;;660            }
;;;661        }
;;;662        else if (service_id == bas_srv_id)
        0x002099de:    79ab        .y      LDRB     r3,[r5,#6]
        0x002099e0:    429a        .B      CMP      r2,r3
        0x002099e2:    d125        %.      BNE      0x209a30 ; app_profile_callback + 268
;;;663        {
;;;664            T_BAS_CALLBACK_DATA *p_bas_cb_data = (T_BAS_CALLBACK_DATA *)p_data;
;;;665            switch (p_bas_cb_data->msg_type)
        0x002099e4:    784a        Jx      LDRB     r2,[r1,#1]
        0x002099e6:    2a01        .*      CMP      r2,#1
        0x002099e8:    d002        ..      BEQ      0x2099f0 ; app_profile_callback + 204
        0x002099ea:    2a02        .*      CMP      r2,#2
        0x002099ec:    d135        5.      BNE      0x209a5a ; app_profile_callback + 310
        0x002099ee:    e00e        ..      B        0x209a0e ; app_profile_callback + 234
;;;666            {
;;;667            case SERVICE_CALLBACK_TYPE_INDIFICATION_NOTIFICATION:
;;;668                {
;;;669                    switch (p_bas_cb_data->msg_data.notification_indification_index)
        0x002099f0:    7889        .x      LDRB     r1,[r1,#2]
        0x002099f2:    2901        .)      CMP      r1,#1
        0x002099f4:    d002        ..      BEQ      0x2099fc ; app_profile_callback + 216
        0x002099f6:    2902        .)      CMP      r1,#2
        0x002099f8:    d12f        /.      BNE      0x209a5a ; app_profile_callback + 310
        0x002099fa:    e003        ..      B        0x209a04 ; app_profile_callback + 224
;;;670                    {
;;;671                    case BAS_NOTIFY_BATTERY_LEVEL_ENABLE:
;;;672                        {
;;;673                            APP_PRINT_INFO0("BAS_NOTIFY_BATTERY_LEVEL_ENABLE");
        0x002099fc:    491e        .I      LDR      r1,[pc,#120] ; [0x209a78] = 0x8800b90
        0x002099fe:    2200        ."      MOVS     r2,#0
        0x00209a00:    31f8        .1      ADDS     r1,r1,#0xf8
        0x00209a02:    e001        ..      B        0x209a08 ; app_profile_callback + 228
        0x00209a04:    2200        ."      MOVS     r2,#0
        0x00209a06:    491d        .I      LDR      r1,[pc,#116] ; [0x209a7c] = 0x8800cac
        0x00209a08:    f5fef829    ..).    BL       log_buffer ; 0x7a5e
        0x00209a0c:    e025        %.      B        0x209a5a ; app_profile_callback + 310
;;;674                        }
;;;675                        break;
;;;676    
;;;677                    case BAS_NOTIFY_BATTERY_LEVEL_DISABLE:
;;;678                        {
;;;679                            APP_PRINT_INFO0("BAS_NOTIFY_BATTERY_LEVEL_DISABLE");
;;;680                        }
;;;681                        break;
;;;682                    default:
;;;683                        break;
;;;684                    }
;;;685                }
;;;686                break;
;;;687    
;;;688            case SERVICE_CALLBACK_TYPE_READ_CHAR_VALUE:
;;;689                {
;;;690                    if (p_bas_cb_data->msg_data.read_value_index == BAS_READ_BATTERY_LEVEL)
        0x00209a0e:    7889        .x      LDRB     r1,[r1,#2]
        0x00209a10:    2901        .)      CMP      r1,#1
        0x00209a12:    d122        ".      BNE      0x209a5a ; app_profile_callback + 310
        0x00209a14:    4919        .I      LDR      r1,[pc,#100] ; [0x209a7c] = 0x8800cac
;;;691                    {
;;;692                        uint8_t battery_level = 90;
        0x00209a16:    235a        Z#      MOVS     r3,#0x5a
        0x00209a18:    f88d3000    ...0    STRB     r3,[sp,#0]
;;;693                        APP_PRINT_INFO1("BAS_READ_BATTERY_LEVEL: battery_level %d", battery_level);
        0x00209a1c:    2201        ."      MOVS     r2,#1
        0x00209a1e:    3124        $1      ADDS     r1,r1,#0x24
        0x00209a20:    f5fef81d    ....    BL       log_buffer ; 0x7a5e
;;;694                        bas_set_parameter(BAS_PARAM_BATTERY_LEVEL, 1, &battery_level);
        0x00209a24:    2101        .!      MOVS     r1,#1
        0x00209a26:    466a        jF      MOV      r2,sp
        0x00209a28:    4608        .F      MOV      r0,r1
        0x00209a2a:    f7fefbd9    ....    BL       bas_set_parameter ; 0x2081e0
;;;695                    }
        0x00209a2e:    e014        ..      B        0x209a5a ; app_profile_callback + 310
;;;696                }
;;;697                break;
;;;698    
;;;699            default:
;;;700                break;
;;;701            }
;;;702        }
;;;703        else if (service_id == ota_srv_id)
        0x00209a30:    79eb        .y      LDRB     r3,[r5,#7]
        0x00209a32:    429a        .B      CMP      r2,r3
        0x00209a34:    d111        ..      BNE      0x209a5a ; app_profile_callback + 310
;;;704        {
;;;705    
;;;706            TOTA_CALLBACK_DATA *pOTACallbackData = (TOTA_CALLBACK_DATA *)p_data;
;;;707            switch (pOTACallbackData->msg_type)
        0x00209a36:    780a        .x      LDRB     r2,[r1,#0]
        0x00209a38:    2a03        .*      CMP      r2,#3
        0x00209a3a:    d10e        ..      BNE      0x209a5a ; app_profile_callback + 310
;;;708            {
;;;709            case SERVICE_CALLBACK_TYPE_WRITE_CHAR_VALUE:
;;;710    
;;;711                if (OTA_WRITE_CHAR_VAL == pOTACallbackData->msg_data.write.opcode &&
        0x00209a3c:    788a        .x      LDRB     r2,[r1,#2]
        0x00209a3e:    2a01        .*      CMP      r2,#1
        0x00209a40:    d10b        ..      BNE      0x209a5a ; app_profile_callback + 310
;;;712                    OTA_VALUE_ENTER == pOTACallbackData->msg_data.write.u.value)
        0x00209a42:    7909        .y      LDRB     r1,[r1,#4]
        0x00209a44:    2901        .)      CMP      r1,#1
        0x00209a46:    d108        ..      BNE      0x209a5a ; app_profile_callback + 310
;;;713                {
;;;714    
;;;715                    /*battery level is above 60 percent*/
;;;716                    APP_PRINT_INFO0("Preparing switch into OTA mode\n");
        0x00209a48:    490c        .I      LDR      r1,[pc,#48] ; [0x209a7c] = 0x8800cac
        0x00209a4a:    2200        ."      MOVS     r2,#0
        0x00209a4c:    3150        P1      ADDS     r1,r1,#0x50
        0x00209a4e:    f5fef806    ....    BL       log_buffer ; 0x7a5e
;;;717                    /*prepare to enter OTA mode, before switch action, we should disconnect first.*/
;;;718                    switch_into_ota_pending = true;
        0x00209a52:    70ae        .p      STRB     r6,[r5,#2]
;;;719                    le_disconnect(keyboard_con_id);
        0x00209a54:    7a28        (z      LDRB     r0,[r5,#8]
        0x00209a56:    f644f8e5    D...    BL       le_disconnect ; 0x4dc24
;;;720                }
;;;721                else if (OTA_WRITE_IMAGE_COUNT_VAL == pOTACallbackData->msg_data.write.opcode)
;;;722                {
;;;723    
;;;724                }
;;;725    
;;;726                break;
;;;727    
;;;728            default:
;;;729    
;;;730                break;
;;;731            }
;;;732        }
;;;733    
;;;734        return app_result;
        0x00209a5a:    4638        8F      MOV      r0,r7
;;;735    }
        0x00209a5c:    b004        ..      ADD      sp,sp,#0x10
        0x00209a5e:    e5b3        ..      B        0x2095c8 ; app_handle_conn_state_evt + 228
    $d
        0x00209a60:    0020bcbc    .. .    DCD    2145468
        0x00209a64:    21103002    .0.!    DCD    554708994
        0x00209a68:    0020bc80    .. .    DCD    2145408
        0x00209a6c:    088004b8    ....    DCD    142607544
        0x00209a70:    08800a7c    |...    DCD    142609020
        0x00209a74:    0020bcc4    .. .    DCD    2145476
        0x00209a78:    08800b90    ....    DCD    142609296
        0x00209a7c:    08800cac    ....    DCD    142609580
    $t
    .text
    keyscan_pad_config
;;; ..\..\..\src\app\keyboard\keyscan.c
;;;46     {
        0x00209a80:    b51c        ..      PUSH     {r2-r4,lr}
;;;47         Pad_Config(ROW0, PAD_PINMUX_MODE, PAD_IS_PWRON, PAD_PULL_UP, PAD_OUT_DISABLE, PAD_OUT_LOW);
        0x00209a82:    2400        .$      MOVS     r4,#0
        0x00209a84:    2301        .#      MOVS     r3,#1
        0x00209a86:    9400        ..      STR      r4,[sp,#0]
        0x00209a88:    461a        .F      MOV      r2,r3
        0x00209a8a:    4619        .F      MOV      r1,r3
        0x00209a8c:    201a        .       MOVS     r0,#0x1a
        0x00209a8e:    9401        ..      STR      r4,[sp,#4]
        0x00209a90:    f607fca4    ....    BL       Pad_Config ; 0x113dc
;;;48         Pad_Config(ROW1, PAD_PINMUX_MODE, PAD_IS_PWRON, PAD_PULL_UP, PAD_OUT_DISABLE, PAD_OUT_LOW);
        0x00209a94:    2301        .#      MOVS     r3,#1
        0x00209a96:    9400        ..      STR      r4,[sp,#0]
        0x00209a98:    461a        .F      MOV      r2,r3
        0x00209a9a:    4619        .F      MOV      r1,r3
        0x00209a9c:    201b        .       MOVS     r0,#0x1b
        0x00209a9e:    9401        ..      STR      r4,[sp,#4]
        0x00209aa0:    f607fc9c    ....    BL       Pad_Config ; 0x113dc
;;;49         Pad_Config(ROW2, PAD_PINMUX_MODE, PAD_IS_PWRON, PAD_PULL_UP, PAD_OUT_DISABLE, PAD_OUT_LOW);
        0x00209aa4:    2301        .#      MOVS     r3,#1
        0x00209aa6:    9400        ..      STR      r4,[sp,#0]
        0x00209aa8:    461a        .F      MOV      r2,r3
        0x00209aaa:    4619        .F      MOV      r1,r3
        0x00209aac:    201c        .       MOVS     r0,#0x1c
        0x00209aae:    9401        ..      STR      r4,[sp,#4]
        0x00209ab0:    f607fc94    ....    BL       Pad_Config ; 0x113dc
;;;50         Pad_Config(ROW3, PAD_PINMUX_MODE, PAD_IS_PWRON, PAD_PULL_UP, PAD_OUT_DISABLE, PAD_OUT_LOW);
        0x00209ab4:    2301        .#      MOVS     r3,#1
        0x00209ab6:    9400        ..      STR      r4,[sp,#0]
        0x00209ab8:    461a        .F      MOV      r2,r3
        0x00209aba:    4619        .F      MOV      r1,r3
        0x00209abc:    2019        .       MOVS     r0,#0x19
        0x00209abe:    9401        ..      STR      r4,[sp,#4]
        0x00209ac0:    f607fc8c    ....    BL       Pad_Config ; 0x113dc
;;;51     
;;;52         Pad_Config(COLUMN0, PAD_PINMUX_MODE, PAD_IS_PWRON, PAD_PULL_NONE, PAD_OUT_DISABLE, PAD_OUT_LOW);
        0x00209ac4:    2201        ."      MOVS     r2,#1
        0x00209ac6:    9400        ..      STR      r4,[sp,#0]
        0x00209ac8:    2300        .#      MOVS     r3,#0
        0x00209aca:    4611        .F      MOV      r1,r2
        0x00209acc:    2020                MOVS     r0,#0x20
        0x00209ace:    9401        ..      STR      r4,[sp,#4]
        0x00209ad0:    f607fc84    ....    BL       Pad_Config ; 0x113dc
;;;53         Pad_Config(COLUMN1, PAD_PINMUX_MODE, PAD_IS_PWRON, PAD_PULL_NONE, PAD_OUT_DISABLE, PAD_OUT_LOW);
        0x00209ad4:    2201        ."      MOVS     r2,#1
        0x00209ad6:    9400        ..      STR      r4,[sp,#0]
        0x00209ad8:    2300        .#      MOVS     r3,#0
        0x00209ada:    4611        .F      MOV      r1,r2
        0x00209adc:    2021        !       MOVS     r0,#0x21
        0x00209ade:    9401        ..      STR      r4,[sp,#4]
        0x00209ae0:    f607fc7c    ..|.    BL       Pad_Config ; 0x113dc
;;;54         Pad_Config(COLUMN2, PAD_PINMUX_MODE, PAD_IS_PWRON, PAD_PULL_NONE, PAD_OUT_DISABLE, PAD_OUT_LOW);
        0x00209ae4:    2201        ."      MOVS     r2,#1
        0x00209ae6:    9400        ..      STR      r4,[sp,#0]
        0x00209ae8:    2300        .#      MOVS     r3,#0
        0x00209aea:    4611        .F      MOV      r1,r2
        0x00209aec:    2022        "       MOVS     r0,#0x22
        0x00209aee:    9401        ..      STR      r4,[sp,#4]
        0x00209af0:    f607fc74    ..t.    BL       Pad_Config ; 0x113dc
;;;55         Pad_Config(COLUMN3, PAD_PINMUX_MODE, PAD_IS_PWRON, PAD_PULL_NONE, PAD_OUT_DISABLE, PAD_OUT_LOW);
        0x00209af4:    2201        ."      MOVS     r2,#1
        0x00209af6:    9400        ..      STR      r4,[sp,#0]
        0x00209af8:    2300        .#      MOVS     r3,#0
        0x00209afa:    4611        .F      MOV      r1,r2
        0x00209afc:    2023        #       MOVS     r0,#0x23
        0x00209afe:    9401        ..      STR      r4,[sp,#4]
        0x00209b00:    f607fc6c    ..l.    BL       Pad_Config ; 0x113dc
;;;56     }
        0x00209b04:    bd1c        ..      POP      {r2-r4,pc}
    keyscan_pinmux_config
;;;57     
;;;58     void keyscan_pinmux_config(void)
;;;59     {
        0x00209b06:    b510        ..      PUSH     {r4,lr}
;;;60         Pinmux_Config(ROW0, KEY_ROW_0);
        0x00209b08:    214e        N!      MOVS     r1,#0x4e
        0x00209b0a:    201a        .       MOVS     r0,#0x1a
        0x00209b0c:    f607fc32    ..2.    BL       Pinmux_Config ; 0x11374
;;;61         Pinmux_Config(ROW1, KEY_ROW_1);
        0x00209b10:    214f        O!      MOVS     r1,#0x4f
        0x00209b12:    201b        .       MOVS     r0,#0x1b
        0x00209b14:    f607fc2e    ....    BL       Pinmux_Config ; 0x11374
;;;62         Pinmux_Config(ROW2, KEY_ROW_2);
        0x00209b18:    2150        P!      MOVS     r1,#0x50
        0x00209b1a:    201c        .       MOVS     r0,#0x1c
        0x00209b1c:    f607fc2a    ..*.    BL       Pinmux_Config ; 0x11374
;;;63         Pinmux_Config(ROW3, KEY_ROW_3);
        0x00209b20:    2151        Q!      MOVS     r1,#0x51
        0x00209b22:    2019        .       MOVS     r0,#0x19
        0x00209b24:    f607fc26    ..&.    BL       Pinmux_Config ; 0x11374
;;;64     
;;;65         Pinmux_Config(COLUMN0, KEY_COL_0);
        0x00209b28:    213a        :!      MOVS     r1,#0x3a
        0x00209b2a:    2020                MOVS     r0,#0x20
        0x00209b2c:    f607fc22    ..".    BL       Pinmux_Config ; 0x11374
;;;66         Pinmux_Config(COLUMN1, KEY_COL_1);
        0x00209b30:    213b        ;!      MOVS     r1,#0x3b
        0x00209b32:    2021        !       MOVS     r0,#0x21
        0x00209b34:    f607fc1e    ....    BL       Pinmux_Config ; 0x11374
;;;67         Pinmux_Config(COLUMN2, KEY_COL_2);
        0x00209b38:    213c        <!      MOVS     r1,#0x3c
        0x00209b3a:    2022        "       MOVS     r0,#0x22
        0x00209b3c:    f607fc1a    ....    BL       Pinmux_Config ; 0x11374
;;;68         Pinmux_Config(COLUMN3, KEY_COL_3);
        0x00209b40:    213d        =!      MOVS     r1,#0x3d
        0x00209b42:    e8bd4010    ...@    POP      {r4,lr}
        0x00209b46:    2023        #       MOVS     r0,#0x23
        0x00209b48:    f607bc14    ....    B        Pinmux_Config ; 0x11374
    keyscan_enable_wakeup_config
;;;69     }
;;;70     
;;;71     /******************************************************************
;;;72      * @brief    keyscan enable wakeup config function
;;;73      */
;;;74     void keyscan_enable_wakeup_config(void)
;;;75     {
        0x00209b4c:    b510        ..      PUSH     {r4,lr}
;;;76         /* @note: no key is pressed, use PAD wake up function with debounce,
;;;77         but pad debunce time should be smaller than ble connect interval */
;;;78         System_WakeUpDebounceTime(8);
        0x00209b4e:    2008        .       MOVS     r0,#8
        0x00209b50:    f607fc8b    ....    BL       System_WakeUpDebounceTime ; 0x1146a
;;;79     
;;;80         System_WakeUpPinEnable(ROW0, PAD_WAKEUP_POL_LOW, PAD_WK_DEBOUNCE_ENABLE);
        0x00209b54:    2201        ."      MOVS     r2,#1
        0x00209b56:    4611        .F      MOV      r1,r2
        0x00209b58:    201a        .       MOVS     r0,#0x1a
        0x00209b5a:    f607fcd0    ....    BL       System_WakeUpPinEnable ; 0x114fe
;;;81         System_WakeUpPinEnable(ROW1, PAD_WAKEUP_POL_LOW, PAD_WK_DEBOUNCE_ENABLE);
        0x00209b5e:    2201        ."      MOVS     r2,#1
        0x00209b60:    4611        .F      MOV      r1,r2
        0x00209b62:    201b        .       MOVS     r0,#0x1b
        0x00209b64:    f607fccb    ....    BL       System_WakeUpPinEnable ; 0x114fe
;;;82         System_WakeUpPinEnable(ROW2, PAD_WAKEUP_POL_LOW, PAD_WK_DEBOUNCE_ENABLE);
        0x00209b68:    2201        ."      MOVS     r2,#1
        0x00209b6a:    4611        .F      MOV      r1,r2
        0x00209b6c:    201c        .       MOVS     r0,#0x1c
        0x00209b6e:    f607fcc6    ....    BL       System_WakeUpPinEnable ; 0x114fe
;;;83         System_WakeUpPinEnable(ROW3, PAD_WAKEUP_POL_LOW, PAD_WK_DEBOUNCE_ENABLE);
        0x00209b72:    2201        ."      MOVS     r2,#1
        0x00209b74:    e8bd4010    ...@    POP      {r4,lr}
        0x00209b78:    4611        .F      MOV      r1,r2
        0x00209b7a:    2019        .       MOVS     r0,#0x19
        0x00209b7c:    f607bcbf    ....    B        System_WakeUpPinEnable ; 0x114fe
    keyscan_disable_wakeup_config
;;;84     }
;;;85     
;;;86     /******************************************************************
;;;87      * @brief    keyscan disable wakeup config function
;;;88      */
;;;89     void keyscan_disable_wakeup_config(void)
;;;90     {
        0x00209b80:    b510        ..      PUSH     {r4,lr}
;;;91         System_WakeUpPinDisable(ROW0);
        0x00209b82:    201a        .       MOVS     r0,#0x1a
        0x00209b84:    f607fcd4    ....    BL       System_WakeUpPinDisable ; 0x11530
;;;92         System_WakeUpPinDisable(ROW1);
        0x00209b88:    201b        .       MOVS     r0,#0x1b
        0x00209b8a:    f607fcd1    ....    BL       System_WakeUpPinDisable ; 0x11530
;;;93         System_WakeUpPinDisable(ROW2);
        0x00209b8e:    201c        .       MOVS     r0,#0x1c
        0x00209b90:    f607fcce    ....    BL       System_WakeUpPinDisable ; 0x11530
;;;94         System_WakeUpPinDisable(ROW3);
        0x00209b94:    e8bd4010    ...@    POP      {r4,lr}
        0x00209b98:    2019        .       MOVS     r0,#0x19
        0x00209b9a:    f607bcc9    ....    B        System_WakeUpPinDisable ; 0x11530
    keyscan_enter_dlps_config
;;;95     }
;;;96     
;;;97     
;;;98     /******************************************************************
;;;99      * @brief    keyscan enter DLPS config
;;;100     */
;;;101    void keyscan_enter_dlps_config(void)
;;;102    {
        0x00209b9e:    b57c        |.      PUSH     {r2-r6,lr}
;;;103        Pad_Config(COLUMN0, PAD_SW_MODE, PAD_IS_PWRON, PAD_PULL_NONE, PAD_OUT_ENABLE, PAD_OUT_LOW);
        0x00209ba0:    2400        .$      MOVS     r4,#0
        0x00209ba2:    2501        .%      MOVS     r5,#1
        0x00209ba4:    e9cd5400    ...T    STRD     r5,r4,[sp,#0]
        0x00209ba8:    4623        #F      MOV      r3,r4
        0x00209baa:    462a        *F      MOV      r2,r5
        0x00209bac:    4621        !F      MOV      r1,r4
        0x00209bae:    2020                MOVS     r0,#0x20
        0x00209bb0:    f607fc14    ....    BL       Pad_Config ; 0x113dc
;;;104        Pad_Config(COLUMN1, PAD_SW_MODE, PAD_IS_PWRON, PAD_PULL_NONE, PAD_OUT_ENABLE, PAD_OUT_LOW);
        0x00209bb4:    e9cd5400    ...T    STRD     r5,r4,[sp,#0]
        0x00209bb8:    2300        .#      MOVS     r3,#0
        0x00209bba:    2201        ."      MOVS     r2,#1
        0x00209bbc:    4619        .F      MOV      r1,r3
        0x00209bbe:    2021        !       MOVS     r0,#0x21
        0x00209bc0:    f607fc0c    ....    BL       Pad_Config ; 0x113dc
;;;105        Pad_Config(COLUMN2, PAD_SW_MODE, PAD_IS_PWRON, PAD_PULL_NONE, PAD_OUT_ENABLE, PAD_OUT_LOW);
        0x00209bc4:    e9cd5400    ...T    STRD     r5,r4,[sp,#0]
        0x00209bc8:    2300        .#      MOVS     r3,#0
        0x00209bca:    2201        ."      MOVS     r2,#1
        0x00209bcc:    4619        .F      MOV      r1,r3
        0x00209bce:    2022        "       MOVS     r0,#0x22
        0x00209bd0:    f607fc04    ....    BL       Pad_Config ; 0x113dc
;;;106        Pad_Config(COLUMN3, PAD_SW_MODE, PAD_IS_PWRON, PAD_PULL_NONE, PAD_OUT_ENABLE, PAD_OUT_LOW);
        0x00209bd4:    e9cd5400    ...T    STRD     r5,r4,[sp,#0]
        0x00209bd8:    2300        .#      MOVS     r3,#0
        0x00209bda:    2201        ."      MOVS     r2,#1
        0x00209bdc:    4619        .F      MOV      r1,r3
        0x00209bde:    2023        #       MOVS     r0,#0x23
        0x00209be0:    f607fbfc    ....    BL       Pad_Config ; 0x113dc
;;;107    
;;;108        if (keyscan_global_data.is_all_key_released == true)
        0x00209be4:    48f8        .H      LDR      r0,[pc,#992] ; [0x209fc8] = 0x20bc90
        0x00209be6:    78c0        .x      LDRB     r0,[r0,#3]
        0x00209be8:    2801        .(      CMP      r0,#1
        0x00209bea:    d022        ".      BEQ      0x209c32 ; keyscan_enter_dlps_config + 148
        0x00209bec:    f7ffffc8    ....    BL       keyscan_disable_wakeup_config ; 0x209b80
        0x00209bf0:    9400        ..      STR      r4,[sp,#0]
        0x00209bf2:    2302        .#      MOVS     r3,#2
        0x00209bf4:    2201        ."      MOVS     r2,#1
        0x00209bf6:    2100        .!      MOVS     r1,#0
        0x00209bf8:    201a        .       MOVS     r0,#0x1a
        0x00209bfa:    9401        ..      STR      r4,[sp,#4]
        0x00209bfc:    f607fbee    ....    BL       Pad_Config ; 0x113dc
        0x00209c00:    9400        ..      STR      r4,[sp,#0]
        0x00209c02:    2302        .#      MOVS     r3,#2
        0x00209c04:    2201        ."      MOVS     r2,#1
        0x00209c06:    2100        .!      MOVS     r1,#0
        0x00209c08:    201b        .       MOVS     r0,#0x1b
        0x00209c0a:    9401        ..      STR      r4,[sp,#4]
        0x00209c0c:    f607fbe6    ....    BL       Pad_Config ; 0x113dc
        0x00209c10:    9400        ..      STR      r4,[sp,#0]
        0x00209c12:    2302        .#      MOVS     r3,#2
        0x00209c14:    2201        ."      MOVS     r2,#1
        0x00209c16:    2100        .!      MOVS     r1,#0
        0x00209c18:    201c        .       MOVS     r0,#0x1c
        0x00209c1a:    9401        ..      STR      r4,[sp,#4]
        0x00209c1c:    f607fbde    ....    BL       Pad_Config ; 0x113dc
        0x00209c20:    9400        ..      STR      r4,[sp,#0]
        0x00209c22:    2302        .#      MOVS     r3,#2
        0x00209c24:    9401        ..      STR      r4,[sp,#4]
        0x00209c26:    2201        ."      MOVS     r2,#1
        0x00209c28:    2100        .!      MOVS     r1,#0
        0x00209c2a:    2019        .       MOVS     r0,#0x19
        0x00209c2c:    f607fbd6    ....    BL       Pad_Config ; 0x113dc
        0x00209c30:    bd7c        |.      POP      {r2-r6,pc}
;;;109        {
;;;110            keyscan_enable_wakeup_config();
        0x00209c32:    f7ffff8b    ....    BL       keyscan_enable_wakeup_config ; 0x209b4c
;;;111            Pad_Config(ROW0, PAD_SW_MODE, PAD_IS_PWRON, PAD_PULL_UP, PAD_OUT_DISABLE, PAD_OUT_LOW);
        0x00209c36:    2301        .#      MOVS     r3,#1
        0x00209c38:    9400        ..      STR      r4,[sp,#0]
        0x00209c3a:    461a        .F      MOV      r2,r3
        0x00209c3c:    2100        .!      MOVS     r1,#0
        0x00209c3e:    201a        .       MOVS     r0,#0x1a
        0x00209c40:    9401        ..      STR      r4,[sp,#4]
        0x00209c42:    f607fbcb    ....    BL       Pad_Config ; 0x113dc
;;;112            Pad_Config(ROW1, PAD_SW_MODE, PAD_IS_PWRON, PAD_PULL_UP, PAD_OUT_DISABLE, PAD_OUT_LOW);
        0x00209c46:    2301        .#      MOVS     r3,#1
        0x00209c48:    9400        ..      STR      r4,[sp,#0]
        0x00209c4a:    461a        .F      MOV      r2,r3
        0x00209c4c:    2100        .!      MOVS     r1,#0
        0x00209c4e:    201b        .       MOVS     r0,#0x1b
        0x00209c50:    9401        ..      STR      r4,[sp,#4]
        0x00209c52:    f607fbc3    ....    BL       Pad_Config ; 0x113dc
;;;113            Pad_Config(ROW2, PAD_SW_MODE, PAD_IS_PWRON, PAD_PULL_UP, PAD_OUT_DISABLE, PAD_OUT_LOW);
        0x00209c56:    2301        .#      MOVS     r3,#1
        0x00209c58:    9400        ..      STR      r4,[sp,#0]
        0x00209c5a:    461a        .F      MOV      r2,r3
        0x00209c5c:    2100        .!      MOVS     r1,#0
        0x00209c5e:    201c        .       MOVS     r0,#0x1c
        0x00209c60:    9401        ..      STR      r4,[sp,#4]
        0x00209c62:    f607fbbb    ....    BL       Pad_Config ; 0x113dc
;;;114            Pad_Config(ROW3, PAD_SW_MODE, PAD_IS_PWRON, PAD_PULL_UP, PAD_OUT_DISABLE, PAD_OUT_LOW);
        0x00209c66:    9400        ..      STR      r4,[sp,#0]
        0x00209c68:    2301        .#      MOVS     r3,#1
        0x00209c6a:    9401        ..      STR      r4,[sp,#4]
        0x00209c6c:    e7db        ..      B        0x209c26 ; keyscan_enter_dlps_config + 136
    keyscan_init_driver
;;;115        }
;;;116        else
;;;117        {
;;;118            /* any key is pressed, disable key row pins, just wait keyscan sw timer to wake */
;;;119            keyscan_disable_wakeup_config();
;;;120            Pad_Config(ROW0, PAD_SW_MODE, PAD_IS_PWRON, PAD_PULL_DOWN, PAD_OUT_DISABLE, PAD_OUT_LOW);
;;;121            Pad_Config(ROW1, PAD_SW_MODE, PAD_IS_PWRON, PAD_PULL_DOWN, PAD_OUT_DISABLE, PAD_OUT_LOW);
;;;122            Pad_Config(ROW2, PAD_SW_MODE, PAD_IS_PWRON, PAD_PULL_DOWN, PAD_OUT_DISABLE, PAD_OUT_LOW);
;;;123            Pad_Config(ROW3, PAD_SW_MODE, PAD_IS_PWRON, PAD_PULL_DOWN, PAD_OUT_DISABLE, PAD_OUT_LOW);
;;;124        }
;;;125    }
;;;126    
;;;127    /******************************************************************
;;;128     * @brief    keyscan exit DLPS config
;;;129     */
;;;130    void keyscan_exit_dlps_config(void)
;;;131    {
;;;132        keyscan_pad_config();
;;;133    
;;;134        if (true == keyscan_global_data.is_all_key_released)
;;;135        {
;;;136            keyscan_init_driver(KeyScan_Debounce_Enable);
;;;137        }
;;;138    }
;;;139    
;;;140    
;;;141    /******************************************************************
;;;142     * @fn       keyscan_init_driver
;;;143     * @brief    keyscan module initial
;;;144     *
;;;145     * @param    uint32_t is_debounce
;;;146     * @return   void
;;;147     * @note     when system in dlsp mode, keyscan debunce time should be smaller
;;;148     *           than wake up interval time (like ble interval), which can be modified
;;;149     *           through KeyScan_InitStruct.debouncecnt.
;;;150     */
;;;151    void keyscan_init_driver(uint32_t is_debounce)
;;;152    {
        0x00209c6e:    b570        p.      PUSH     {r4-r6,lr}
        0x00209c70:    4cd6        .L      LDR      r4,[pc,#856] ; [0x209fcc] = 0x60000040
        0x00209c72:    4ed7        .N      LDR      r6,[pc,#860] ; [0x209fd0] = 0x8080000
        0x00209c74:    4605        .F      MOV      r5,r0
        0x00209c76:    b08e        ..      SUB      sp,sp,#0x38
;;;153        RCC_PeriphClockCmd(APBPeriph_KEYSCAN, APBPeriph_KEYSCAN_CLOCK, DISABLE);
        0x00209c78:    2200        ."      MOVS     r2,#0
        0x00209c7a:    4621        !F      MOV      r1,r4
        0x00209c7c:    4630        0F      MOV      r0,r6
        0x00209c7e:    f7fefe89    ....    BL       RCC_PeriphClockCmd ; 0x208994
;;;154        /* turn on keyscan clock */
;;;155        RCC_PeriphClockCmd(APBPeriph_KEYSCAN, APBPeriph_KEYSCAN_CLOCK, ENABLE);
        0x00209c82:    2201        ."      MOVS     r2,#1
        0x00209c84:    4621        !F      MOV      r1,r4
        0x00209c86:    4630        0F      MOV      r0,r6
        0x00209c88:    f7fefe84    ....    BL       RCC_PeriphClockCmd ; 0x208994
;;;156    
;;;157        keyscan_global_data.is_allowed_to_repeat_report = false;
        0x00209c8c:    48ce        .H      LDR      r0,[pc,#824] ; [0x209fc8] = 0x20bc90
        0x00209c8e:    2400        .$      MOVS     r4,#0
        0x00209c90:    7004        .p      STRB     r4,[r0,#0]
;;;158        KEYSCAN_InitTypeDef  KeyScan_InitStruct;
;;;159        KeyScan_StructInit(&KeyScan_InitStruct);
        0x00209c92:    4668        hF      MOV      r0,sp
        0x00209c94:    f7fff942    ..B.    BL       KeyScan_StructInit ; 0x208f1c
;;;160        KeyScan_InitStruct.colSize         = KEYPAD_COLUMN_SIZE;
        0x00209c98:    2104        .!      MOVS     r1,#4
        0x00209c9a:    2026        &       MOVS     r0,#0x26
        0x00209c9c:    f8ad1002    ....    STRH     r1,[sp,#2]
        0x00209ca0:    f8ad002c    ..,.    STRH     r0,[sp,#0x2c]
;;;161        KeyScan_InitStruct.rowSize         = KEYPAD_ROW_SIZE;
        0x00209ca4:    f8ad1000    ....    STRH     r1,[sp,#0]
        0x00209ca8:    200f        .       MOVS     r0,#0xf
        0x00209caa:    f88d002e    ....    STRB     r0,[sp,#0x2e]
;;;162        KeyScan_InitStruct.scanmode        = KeyScan_Manual_Scan_Mode;
;;;163    
;;;164        KeyScan_InitStruct.clockdiv         = 0x26;  /* 128kHz = 5MHz/(clockdiv+1) */
        0x00209cae:    940a        ..      STR      r4,[sp,#0x28]
;;;165        KeyScan_InitStruct.delayclk         = 0x0f;  /* 8kHz = 5MHz/(clockdiv+1)/(delayclk+1) */
        0x00209cb0:    e9cd5403    ...T    STRD     r5,r4,[sp,#0xc]
;;;166    
;;;167        KeyScan_InitStruct.debounceEn       = is_debounce;
;;;168        KeyScan_InitStruct.scantimerEn      = KeyScan_ScanInterval_Disable;//KeyScan_ScanInterval_Enable;
;;;169        KeyScan_InitStruct.detecttimerEn    = KeyScan_Release_Detect_Disable;
;;;170    
;;;171        KeyScan_InitStruct.scanInterval     = 0x190;  /* 50ms = scanInterval/8kHz */
        0x00209cb4:    f44f70c8    O..p    MOV      r0,#0x190
        0x00209cb8:    f8ad000a    ....    STRH     r0,[sp,#0xa]
        0x00209cbc:    2040        @       MOVS     r0,#0x40
        0x00209cbe:    9405        ..      STR      r4,[sp,#0x14]
;;;172        KeyScan_InitStruct.debouncecnt      = 0x40;   //8ms = debouncecnt/8kHz
        0x00209cc0:    f88d0032    ..2.    STRB     r0,[sp,#0x32]
;;;173        KeyScan_InitStruct.releasecnt       = 0x01;   //0.125ms = releasecnt/8kHz
        0x00209cc4:    2001        .       MOVS     r0,#1
        0x00209cc6:    4cc3        .L      LDR      r4,[pc,#780] ; [0x209fd4] = 0x40005000
        0x00209cc8:    f88d0033    ..3.    STRB     r0,[sp,#0x33]
;;;174    
;;;175        KeyScan_Init(KEYSCAN, &KeyScan_InitStruct);
        0x00209ccc:    4669        iF      MOV      r1,sp
        0x00209cce:    4620         F      MOV      r0,r4
        0x00209cd0:    f7fff8cc    ....    BL       KeyScan_Init ; 0x208e6c
;;;176        KeyScan_INTConfig(KEYSCAN, KEYSCAN_INT_SCAN_END, ENABLE);
        0x00209cd4:    2201        ."      MOVS     r2,#1
        0x00209cd6:    2104        .!      MOVS     r1,#4
        0x00209cd8:    4620         F      MOV      r0,r4
        0x00209cda:    f7fff93e    ..>.    BL       KeyScan_INTConfig ; 0x208f5a
;;; ..\..\..\inc\peripheral\rtl876x_keyscan.h
;;;404        KeyScan->INTCLR |= KeyScan_IT;
        0x00209cde:    69e0        .i      LDR      r0,[r4,#0x1c]
        0x00209ce0:    f0400004    @...    ORR      r0,r0,#4
        0x00209ce4:    61e0        .a      STR      r0,[r4,#0x1c]
;;; ..\..\..\src\app\keyboard\keyscan.c
;;;178        KeyScan_INTMask(KEYSCAN, KEYSCAN_INT_SCAN_END, DISABLE);  /* Mask keyscan interrupt */
        0x00209ce6:    2200        ."      MOVS     r2,#0
        0x00209ce8:    2104        .!      MOVS     r1,#4
        0x00209cea:    4620         F      MOV      r0,r4
        0x00209cec:    f7fff93d    ..=.    BL       KeyScan_INTMask ; 0x208f6a
;;;179        KeyScan_Cmd(KEYSCAN, ENABLE);
        0x00209cf0:    2101        .!      MOVS     r1,#1
        0x00209cf2:    4620         F      MOV      r0,r4
        0x00209cf4:    f7fff94c    ..L.    BL       KeyScan_Cmd ; 0x208f90
;;;180    }
        0x00209cf8:    b00e        ..      ADD      sp,sp,#0x38
        0x00209cfa:    bd70        p.      POP      {r4-r6,pc}
    keyscan_exit_dlps_config
;;; ..\..\..\src\app\keyboard\keyscan.c (131)
        0x00209cfc:    b510        ..      PUSH     {r4,lr}
;;;132        keyscan_pad_config();
        0x00209cfe:    f7fffebf    ....    BL       keyscan_pad_config ; 0x209a80
;;;133    
;;;134        if (true == keyscan_global_data.is_all_key_released)
        0x00209d02:    48b1        .H      LDR      r0,[pc,#708] ; [0x209fc8] = 0x20bc90
        0x00209d04:    78c0        .x      LDRB     r0,[r0,#3]
        0x00209d06:    2801        .(      CMP      r0,#1
        0x00209d08:    d103        ..      BNE      0x209d12 ; keyscan_exit_dlps_config + 22
;;;135        {
;;;136            keyscan_init_driver(KeyScan_Debounce_Enable);
        0x00209d0a:    e8bd4010    ...@    POP      {r4,lr}
        0x00209d0e:    07c0        ..      LSLS     r0,r0,#31
        0x00209d10:    e7ad        ..      B        keyscan_init_driver ; 0x209c6e
;;;137        }
;;;138    }
        0x00209d12:    bd10        ..      POP      {r4,pc}
    keyscan_nvic_config
;;;139    
;;;140    
;;;141    /******************************************************************
;;;142     * @fn       keyscan_init_driver
;;;143     * @brief    keyscan module initial
;;;144     *
;;;145     * @param    uint32_t is_debounce
;;;146     * @return   void
;;;147     * @note     when system in dlsp mode, keyscan debunce time should be smaller
;;;148     *           than wake up interval time (like ble interval), which can be modified
;;;149     *           through KeyScan_InitStruct.debouncecnt.
;;;150     */
;;;151    void keyscan_init_driver(uint32_t is_debounce)
;;;152    {
;;;153        RCC_PeriphClockCmd(APBPeriph_KEYSCAN, APBPeriph_KEYSCAN_CLOCK, DISABLE);
;;;154        /* turn on keyscan clock */
;;;155        RCC_PeriphClockCmd(APBPeriph_KEYSCAN, APBPeriph_KEYSCAN_CLOCK, ENABLE);
;;;156    
;;;157        keyscan_global_data.is_allowed_to_repeat_report = false;
;;;158        KEYSCAN_InitTypeDef  KeyScan_InitStruct;
;;;159        KeyScan_StructInit(&KeyScan_InitStruct);
;;;160        KeyScan_InitStruct.colSize         = KEYPAD_COLUMN_SIZE;
;;;161        KeyScan_InitStruct.rowSize         = KEYPAD_ROW_SIZE;
;;;162        KeyScan_InitStruct.scanmode        = KeyScan_Manual_Scan_Mode;
;;;163    
;;;164        KeyScan_InitStruct.clockdiv         = 0x26;  /* 128kHz = 5MHz/(clockdiv+1) */
;;;165        KeyScan_InitStruct.delayclk         = 0x0f;  /* 8kHz = 5MHz/(clockdiv+1)/(delayclk+1) */
;;;166    
;;;167        KeyScan_InitStruct.debounceEn       = is_debounce;
;;;168        KeyScan_InitStruct.scantimerEn      = KeyScan_ScanInterval_Disable;//KeyScan_ScanInterval_Enable;
;;;169        KeyScan_InitStruct.detecttimerEn    = KeyScan_Release_Detect_Disable;
;;;170    
;;;171        KeyScan_InitStruct.scanInterval     = 0x190;  /* 50ms = scanInterval/8kHz */
;;;172        KeyScan_InitStruct.debouncecnt      = 0x40;   //8ms = debouncecnt/8kHz
;;;173        KeyScan_InitStruct.releasecnt       = 0x01;   //0.125ms = releasecnt/8kHz
;;;174    
;;;175        KeyScan_Init(KEYSCAN, &KeyScan_InitStruct);
;;;176        KeyScan_INTConfig(KEYSCAN, KEYSCAN_INT_SCAN_END, ENABLE);
;;;177        KeyScan_ClearINTPendingBit(KEYSCAN, KEYSCAN_INT_SCAN_END);
;;;178        KeyScan_INTMask(KEYSCAN, KEYSCAN_INT_SCAN_END, DISABLE);  /* Mask keyscan interrupt */
;;;179        KeyScan_Cmd(KEYSCAN, ENABLE);
;;;180    }
;;;181    
;;;182    /******************************************************************
;;;183     * @brief    keyscan nvic config
;;;184     */
;;;185    void keyscan_nvic_config(void)
;;;186    {
        0x00209d14:    b50e        ..      PUSH     {r1-r3,lr}
;;;187        NVIC_InitTypeDef NVIC_InitStruct;
;;;188    
;;;189        NVIC_InitStruct.NVIC_IRQChannel = KeyScan_IRQn;
        0x00209d16:    2036        6       MOVS     r0,#0x36
        0x00209d18:    f88d0000    ....    STRB     r0,[sp,#0]
;;;190        NVIC_InitStruct.NVIC_IRQChannelPriority = 3;
        0x00209d1c:    2003        .       MOVS     r0,#3
;;;191        NVIC_InitStruct.NVIC_IRQChannelCmd = ENABLE;
        0x00209d1e:    9001        ..      STR      r0,[sp,#4]
        0x00209d20:    2001        .       MOVS     r0,#1
        0x00209d22:    f88d0008    ....    STRB     r0,[sp,#8]
;;;192    
;;;193        NVIC_Init(&NVIC_InitStruct);
        0x00209d26:    4668        hF      MOV      r0,sp
        0x00209d28:    f607faca    ....    BL       NVIC_Init ; 0x112c0
;;;194    }
        0x00209d2c:    bd0e        ..      POP      {r1-r3,pc}
    keyscan_init_data
;;;195    
;;;196    
;;;197    /**
;;;198    * @fn  keyscan_init_data
;;;199    * @brief  Initialize Keyscan driver data
;;;200    */
;;;201    void keyscan_init_data(void)
;;;202    {
        0x00209d2e:    b510        ..      PUSH     {r4,lr}
;;;203        APP_PRINT_INFO0("[keyscan_init_data] init data");
        0x00209d30:    2200        ."      MOVS     r2,#0
        0x00209d32:    49a9        .I      LDR      r1,[pc,#676] ; [0x209fd8] = 0x8800d20
        0x00209d34:    48a9        .H      LDR      r0,[pc,#676] ; [0x209fdc] = 0x21103002
        0x00209d36:    f5fdfe92    ....    BL       log_buffer ; 0x7a5e
;;;204        memset(&keyscan_global_data, 0, sizeof(keyscan_global_data));
        0x00209d3a:    212c        ,!      MOVS     r1,#0x2c
        0x00209d3c:    48a2        .H      LDR      r0,[pc,#648] ; [0x209fc8] = 0x20bc90
        0x00209d3e:    f650f98f    P...    BL       __aeabi_memclr4 ; 0x5a060
;;;205        keyscan_global_data.is_allowed_to_enter_dlps = true;
        0x00209d42:    48a1        .H      LDR      r0,[pc,#644] ; [0x209fc8] = 0x20bc90
        0x00209d44:    2101        .!      MOVS     r1,#1
        0x00209d46:    7041        Ap      STRB     r1,[r0,#1]
;;;206        keyscan_global_data.is_all_key_released = true;
        0x00209d48:    70c1        .p      STRB     r1,[r0,#3]
;;;207    }
        0x00209d4a:    bd10        ..      POP      {r4,pc}
    Keyscan_Handler
;;;208    
;;;209    
;;;210    /******************************************************************
;;;211     * @brief    keyscan interrupt handler
;;;212     *
;;;213     * If use Manual Scan Mode, it shall clear KEYSCAN_INT_SCAN_END to start next keyscan,
;;;214     * otherwise, keyscan will not start.
;;;215     */
;;;216    void keyscan_interrupt_handler(void)
;;;217    {
        0x00209d4c:    e92d47ff    -..G    PUSH     {r0-r10,lr}
;;;218        APP_PRINT_INFO0("[keyscan_interrupt_handler] interrupt handler");
        0x00209d50:    49a1        .I      LDR      r1,[pc,#644] ; [0x209fd8] = 0x8800d20
        0x00209d52:    4fa2        .O      LDR      r7,[pc,#648] ; [0x209fdc] = 0x21103002
        0x00209d54:    2200        ."      MOVS     r2,#0
        0x00209d56:    3124        $1      ADDS     r1,r1,#0x24
        0x00209d58:    4638        8F      MOV      r0,r7
        0x00209d5a:    f5fdfe80    ....    BL       log_buffer ; 0x7a5e
;;; ..\..\..\inc\peripheral\rtl876x_keyscan.h
;;;468        if ((KeyScan->STATUS & KeyScan_FLAG) != 0)
        0x00209d5e:    4e9d        .N      LDR      r6,[pc,#628] ; [0x209fd4] = 0x40005000
        0x00209d60:    6a30        0j      LDR      r0,[r6,#0x20]
        0x00209d62:    f04f4900    O..I    MOV      r9,#0x80000000
;;; ..\..\..\inc\peripheral\rtl876x_keyscan.h (468)
        0x00209d66:    f4103f00    ...?    TST      r0,#0x20000
        0x00209d6a:    d06d        m.      BEQ      0x209e48 ; Keyscan_Handler + 252
;;; ..\..\..\src\app\keyboard\keyscan.c
;;;224            keyscan_global_data.is_allowed_to_enter_dlps = true;
        0x00209d6c:    4c96        .L      LDR      r4,[pc,#600] ; [0x209fc8] = 0x20bc90
        0x00209d6e:    2501        .%      MOVS     r5,#1
        0x00209d70:    462a        *F      MOV      r2,r5
        0x00209d72:    7065        ep      STRB     r5,[r4,#1]
;;;225            KeyScan_INTMask(KEYSCAN, KEYSCAN_INT_SCAN_END, ENABLE);  /* Mask keyscan interrupt */
        0x00209d74:    2104        .!      MOVS     r1,#4
        0x00209d76:    4630        0F      MOV      r0,r6
        0x00209d78:    f7fff8f7    ....    BL       KeyScan_INTMask ; 0x208f6a
;;; ..\..\..\inc\peripheral\rtl876x_keyscan.h
;;;382        return (uint16_t)((KeyScan->STATUS & STATUS_FIFO_DATA_NUM_MASK) >> 4);
        0x00209d7c:    6a30        0j      LDR      r0,[r6,#0x20]
        0x00209d7e:    f1a70802    ....    SUB      r8,r7,#2
;;; ..\..\..\inc\peripheral\rtl876x_keyscan.h (382)
        0x00209d82:    f3c01205    ....    UBFX     r2,r0,#4,#6
;;; ..\..\..\src\app\keyboard\keyscan.c
;;;228            if (keyscan_global_data.cur_fifo_data.len != 0)
        0x00209d86:    61a2        .a      STR      r2,[r4,#0x18]
        0x00209d88:    b3d2        ..      CBZ      r2,0x209e00 ; Keyscan_Handler + 180
;;;229            {
;;;230                /* read keyscan fifo data */
;;;231                KeyScan_Read(KEYSCAN, (uint16_t *) & (keyscan_global_data.cur_fifo_data.key[0]),
        0x00209d8a:    f104011c    ....    ADD      r1,r4,#0x1c
        0x00209d8e:    4630        0F      MOV      r0,r6
        0x00209d90:    f7fff8f3    ....    BL       KeyScan_Read ; 0x208f7a
;;;232                             keyscan_global_data.cur_fifo_data.len);
;;;233                keyscan_global_data.is_key_pressed = true;
        0x00209d94:    70a5        .p      STRB     r5,[r4,#2]
;;;234                keyscan_global_data.is_all_key_released = false;
        0x00209d96:    2000        .       MOVS     r0,#0
        0x00209d98:    70e0        .p      STRB     r0,[r4,#3]
;;;235    
;;;236                /* start sw timer to check press status */
;;;237                if (!os_timer_restart(&keyscan_timer, KEYSCAN_SW_INTERVAL))
        0x00209d9a:    2132        2!      MOVS     r1,#0x32
        0x00209d9c:    1f20         .      SUBS     r0,r4,#4
        0x00209d9e:    f61cff4e    ..N.    BL       os_timer_restart ; 0x26c3e
        0x00209da2:    b110        ..      CBZ      r0,0x209daa ; Keyscan_Handler + 94
        0x00209da4:    7820         x      LDRB     r0,[r4,#0]
        0x00209da6:    b120         .      CBZ      r0,0x209db2 ; Keyscan_Handler + 102
        0x00209da8:    e011        ..      B        0x209dce ; Keyscan_Handler + 130
;;;238                {
;;;239                    APP_PRINT_ERROR0("[keyscan_interrupt_handler] restart xTimersKeyScan failed!");
        0x00209daa:    498b        .I      LDR      r1,[pc,#556] ; [0x209fd8] = 0x8800d20
        0x00209dac:    2200        ."      MOVS     r2,#0
        0x00209dae:    3158        X1      ADDS     r1,r1,#0x58
;;;240                    /* set flag to default status and reinit keyscan module with debounce enabled */
;;;241                    keyscan_init_data();
;;;242                    keyscan_init_driver(KeyScan_Debounce_Enable);
;;;243                    return;
        0x00209db0:    e048        H.      B        0x209e44 ; Keyscan_Handler + 248
;;;244                }
;;;245    
;;;246                if (false == keyscan_global_data.is_allowed_to_repeat_report)
;;;247                {
;;;248                    if (!memcmp(&keyscan_global_data.cur_fifo_data, &keyscan_global_data.pre_fifo_data,
        0x00209db2:    4885        .H      LDR      r0,[pc,#532] ; [0x209fc8] = 0x20bc90
        0x00209db4:    2214        ."      MOVS     r2,#0x14
        0x00209db6:    3018        .0      ADDS     r0,r0,#0x18
        0x00209db8:    1d21        !.      ADDS     r1,r4,#4
        0x00209dba:    4606        .F      MOV      r6,r0
        0x00209dbc:    f650f822    P.".    BL       memcmp ; 0x59e04
        0x00209dc0:    2800        .(      CMP      r0,#0
        0x00209dc2:    d03a        :.      BEQ      0x209e3a ; Keyscan_Handler + 238
;;;249                                sizeof(T_KEYSCAN_FIFIO_DATA)))
;;;250                    {
;;;251                        /* some keyscan FIFO data, just return */
;;;252                        return;
;;;253                    }
;;;254                    else
;;;255                    {
;;;256                        /* updata previous keyscan FIFO data */
;;;257                        memcpy(&keyscan_global_data.pre_fifo_data, &keyscan_global_data.cur_fifo_data,
        0x00209dc4:    2214        ."      MOVS     r2,#0x14
        0x00209dc6:    4631        1F      MOV      r1,r6
        0x00209dc8:    1d20         .      ADDS     r0,r4,#4
        0x00209dca:    f650f8ed    P...    BL       __aeabi_memcpy4 ; 0x59fa8
        0x00209dce:    487e        ~H      LDR      r0,[pc,#504] ; [0x209fc8] = 0x20bc90
;;;258                               sizeof(T_KEYSCAN_FIFIO_DATA));
;;;259                    }
;;;260                }
;;;261    
;;;262                bee_io_msg.type = IO_MSG_TYPE_KEYSCAN;
        0x00209dd0:    f8ad5000    ...P    STRH     r5,[sp,#0]
        0x00209dd4:    1d00        ..      ADDS     r0,r0,#4
        0x00209dd6:    9001        ..      STR      r0,[sp,#4]
;;;263                bee_io_msg.subtype = IO_MSG_KEYSCAN_RX_PKT;
        0x00209dd8:    f8ad5002    ...P    STRH     r5,[sp,#2]
;;;264                bee_io_msg.u.buf   = (void *)(&keyscan_global_data.pre_fifo_data);
;;;265                if (false == app_send_msg_to_apptask(&bee_io_msg))
        0x00209ddc:    4668        hF      MOV      r0,sp
        0x00209dde:    f7fffab2    ....    BL       app_send_msg_to_apptask ; 0x209346
        0x00209de2:    2800        .(      CMP      r0,#0
        0x00209de4:    d129        ).      BNE      0x209e3a ; Keyscan_Handler + 238
;;;266                {
;;;267                    APP_PRINT_ERROR0("[keyscan_interrupt_handler] send IO_MSG_KEYSCAN_RX_PKT message failed!");
        0x00209de6:    497c        |I      LDR      r1,[pc,#496] ; [0x209fd8] = 0x8800d20
        0x00209de8:    2200        ."      MOVS     r2,#0
        0x00209dea:    3198        .1      ADDS     r1,r1,#0x98
        0x00209dec:    4640        @F      MOV      r0,r8
        0x00209dee:    f5fdfe36    ..6.    BL       log_buffer ; 0x7a5e
;;;268                    /* set flag to default status and reinit keyscan module with debounce enabled */
;;;269                    keyscan_init_data();
        0x00209df2:    f7ffff9c    ....    BL       keyscan_init_data ; 0x209d2e
;;;270                    os_timer_stop(&keyscan_timer);
        0x00209df6:    4874        tH      LDR      r0,[pc,#464] ; [0x209fc8] = 0x20bc90
        0x00209df8:    1f00        ..      SUBS     r0,r0,#4
        0x00209dfa:    f61cff33    ..3.    BL       os_timer_stop ; 0x26c64
;;;271                    keyscan_init_driver(KeyScan_Debounce_Enable);
;;;272                    return;
        0x00209dfe:    e019        ..      B        0x209e34 ; Keyscan_Handler + 232
        0x00209e00:    e7ff        ..      B        0x209e02 ; Keyscan_Handler + 182
;;;273                }
;;;274            }
;;;275            else
;;;276            {
;;;277                if (false == keyscan_global_data.is_all_key_released)
        0x00209e02:    78e0        .x      LDRB     r0,[r4,#3]
        0x00209e04:    f04f0200    O...    MOV      r2,#0
        0x00209e08:    b120         .      CBZ      r0,0x209e14 ; Keyscan_Handler + 200
        0x00209e0a:    4975        uI      LDR      r1,[pc,#468] ; [0x209fe0] = 0x8800e8c
        0x00209e0c:    4638        8F      MOV      r0,r7
        0x00209e0e:    f5fdfe26    ..&.    BL       log_buffer ; 0x7a5e
        0x00209e12:    e00d        ..      B        0x209e30 ; Keyscan_Handler + 228
;;;278                {
;;;279                    /* keyscan release event detected */
;;;280                    APP_PRINT_INFO0("[keyscan_interrupt_handler] keyscan release event detected");
        0x00209e14:    4972        rI      LDR      r1,[pc,#456] ; [0x209fe0] = 0x8800e8c
        0x00209e16:    4638        8F      MOV      r0,r7
        0x00209e18:    3988        .9      SUBS     r1,r1,#0x88
        0x00209e1a:    f5fdfe20    .. .    BL       log_buffer ; 0x7a5e
;;;281                    T_IO_MSG bee_io_msg;
;;;282                    bee_io_msg.type = IO_MSG_TYPE_KEYSCAN;
        0x00209e1e:    f8ad5008    ...P    STRH     r5,[sp,#8]
;;;283                    bee_io_msg.subtype = IO_MSG_KEYSCAN_ALLKEYRELEASE;
        0x00209e22:    2003        .       MOVS     r0,#3
        0x00209e24:    f8ad000a    ....    STRH     r0,[sp,#0xa]
;;;284    
;;;285                    if (false == app_send_msg_to_apptask(&bee_io_msg))
        0x00209e28:    a802        ..      ADD      r0,sp,#8
        0x00209e2a:    f7fffa8c    ....    BL       app_send_msg_to_apptask ; 0x209346
        0x00209e2e:    b130        0.      CBZ      r0,0x209e3e ; Keyscan_Handler + 242
        0x00209e30:    f7ffff7d    ..}.    BL       keyscan_init_data ; 0x209d2e
        0x00209e34:    4648        HF      MOV      r0,r9
        0x00209e36:    f7ffff1a    ....    BL       keyscan_init_driver ; 0x209c6e
        0x00209e3a:    e8bd87ff    ....    POP      {r0-r10,pc}
;;;286                    {
;;;287                        APP_PRINT_ERROR0("[keyscan_interrupt_handler] Send IO_MSG_TYPE_KEYSCAN message failed!");
        0x00209e3e:    4968        hI      LDR      r1,[pc,#416] ; [0x209fe0] = 0x8800e8c
        0x00209e40:    2200        ."      MOVS     r2,#0
        0x00209e42:    3948        H9      SUBS     r1,r1,#0x48
        0x00209e44:    4640        @F      MOV      r0,r8
        0x00209e46:    e7e2        ..      B        0x209e0e ; Keyscan_Handler + 194
;;;288                    }
;;;289    
;;;290                    keyscan_init_data();
;;;291                    keyscan_init_driver(KeyScan_Debounce_Enable);
;;;292                }
;;;293                else
;;;294                {
;;;295                    /*if system active, keyscan no debounce can arrive here*/
;;;296                    APP_PRINT_INFO0("[keyscan_interrupt_handler] if system active, keyscan no debounce can arrive here");
;;;297                    keyscan_init_data();
;;;298                    keyscan_init_driver(KeyScan_Debounce_Enable);
;;;299                    return;
;;;300                }
;;;301            }
;;;302        }
;;;303        else
;;;304        {
;;;305            /* if not KEYSCAN_INT_FLAG_SCAN_END interrupt */
;;;306            APP_PRINT_INFO0("[keyscan_interrupt_handler] not KEYSCAN_INT_FLAG_SCAN_END interrupt");
        0x00209e48:    4965        eI      LDR      r1,[pc,#404] ; [0x209fe0] = 0x8800e8c
        0x00209e4a:    2200        ."      MOVS     r2,#0
        0x00209e4c:    3158        X1      ADDS     r1,r1,#0x58
;;;307            keyscan_init_data();
;;;308            keyscan_init_driver(KeyScan_Debounce_Enable);
;;;309            return;
        0x00209e4e:    e7dd        ..      B        0x209e0c ; Keyscan_Handler + 192
    keyscan_timer_callback
;;;310        }
;;;311    }
;;;312    
;;;313    
;;;314    /******************************************************************
;;;315     * @brief    keyscan init timer
;;;316     */
;;;317    void keyscan_init_timer(void)
;;;318    {
;;;319        APP_PRINT_INFO0("[keyscan_init_timer] init timer");
;;;320        /*xTimersKeyScan is used for keyscan dlps*/
;;;321        if (false == os_timer_create(&keyscan_timer, "keyscan_timer",  1, \
;;;322                                     KEYSCAN_SW_INTERVAL, false, keyscan_timer_callback))
;;;323        {
;;;324            APP_PRINT_ERROR0("[keyscan_init_timer] timer creat failed!");
;;;325        }
;;;326    }
;;;327    
;;;328    /******************************************************************
;;;329     * @brief    keyscan timer callback
;;;330     */
;;;331    void keyscan_timer_callback(void *pxTimer)
;;;332    {
        0x00209e50:    b511        ..      PUSH     {r0,r4,lr}
        0x00209e52:    4c5d        ]L      LDR      r4,[pc,#372] ; [0x209fc8] = 0x20bc90
        0x00209e54:    4861        aH      LDR      r0,[pc,#388] ; [0x209fdc] = 0x21103002
;;; ..\..\..\src\app\keyboard\keyscan.c (332)
        0x00209e56:    b083        ..      SUB      sp,sp,#0xc
        0x00209e58:    78a1        .x      LDRB     r1,[r4,#2]
        0x00209e5a:    f04f0200    O...    MOV      r2,#0
        0x00209e5e:    2901        .)      CMP      r1,#1
        0x00209e60:    d00d        ..      BEQ      0x209e7e ; keyscan_timer_callback + 46
        0x00209e62:    4960        `I      LDR      r1,[pc,#384] ; [0x209fe4] = 0x8800fac
        0x00209e64:    f5fdfdfb    ....    BL       log_buffer ; 0x7a5e
        0x00209e68:    2001        .       MOVS     r0,#1
        0x00209e6a:    f8ad0000    ....    STRH     r0,[sp,#0]
        0x00209e6e:    2003        .       MOVS     r0,#3
        0x00209e70:    f8ad0002    ....    STRH     r0,[sp,#2]
        0x00209e74:    4668        hF      MOV      r0,sp
        0x00209e76:    f7fffa66    ..f.    BL       app_send_msg_to_apptask ; 0x209346
        0x00209e7a:    b170        p.      CBZ      r0,0x209e9a ; keyscan_timer_callback + 74
        0x00209e7c:    e014        ..      B        0x209ea8 ; keyscan_timer_callback + 88
;;;333        if (keyscan_global_data.is_key_pressed == true)
;;;334        {
;;;335            APP_PRINT_INFO0("[keyscan_timer_callback] start release timer");
        0x00209e7e:    4959        YI      LDR      r1,[pc,#356] ; [0x209fe4] = 0x8800fac
        0x00209e80:    3930        09      SUBS     r1,r1,#0x30
        0x00209e82:    f5fdfdec    ....    BL       log_buffer ; 0x7a5e
;;;336            keyscan_global_data.is_key_pressed = false;
        0x00209e86:    2000        .       MOVS     r0,#0
        0x00209e88:    70a0        .p      STRB     r0,[r4,#2]
;;;337            keyscan_global_data.is_allowed_to_enter_dlps = false;
        0x00209e8a:    7060        `p      STRB     r0,[r4,#1]
;;;338            keyscan_init_driver(KeyScan_Debounce_Disable);
        0x00209e8c:    f7fffeef    ....    BL       keyscan_init_driver ; 0x209c6e
;;;339            /* start timer to check key status */
;;;340            os_timer_restart(&pxTimer, KEYSCAN_SW_RELEASE_TIMEOUT);
        0x00209e90:    210a        .!      MOVS     r1,#0xa
        0x00209e92:    a803        ..      ADD      r0,sp,#0xc
        0x00209e94:    f61cfed3    ....    BL       os_timer_restart ; 0x26c3e
        0x00209e98:    bd1f        ..      POP      {r0-r4,pc}
;;;341        }
;;;342        else
;;;343        {
;;;344            /* keyscan release event detected */
;;;345            APP_PRINT_INFO0("[keyscan_timer_callback] keyscan release event detected");
;;;346            T_IO_MSG bee_io_msg;
;;;347            bee_io_msg.type = IO_MSG_TYPE_KEYSCAN;
;;;348            bee_io_msg.subtype = IO_MSG_KEYSCAN_ALLKEYRELEASE;
;;;349    
;;;350            if (false == app_send_msg_to_apptask(&bee_io_msg))
;;;351            {
;;;352                APP_PRINT_ERROR0("[keyscan_timer_callback] Send IO_MSG_TYPE_KEYSCAN message failed!");
        0x00209e9a:    4952        RI      LDR      r1,[pc,#328] ; [0x209fe4] = 0x8800fac
        0x00209e9c:    484f        OH      LDR      r0,[pc,#316] ; [0x209fdc] = 0x21103002
        0x00209e9e:    2200        ."      MOVS     r2,#0
        0x00209ea0:    313c        <1      ADDS     r1,r1,#0x3c
        0x00209ea2:    1e80        ..      SUBS     r0,r0,#2
        0x00209ea4:    f5fdfddb    ....    BL       log_buffer ; 0x7a5e
;;;353            }
;;;354    
;;;355            keyscan_init_data();
        0x00209ea8:    f7ffff41    ..A.    BL       keyscan_init_data ; 0x209d2e
;;;356            keyscan_init_driver(KeyScan_Debounce_Enable);
        0x00209eac:    f04f4000    O..@    MOV      r0,#0x80000000
        0x00209eb0:    f7fffedd    ....    BL       keyscan_init_driver ; 0x209c6e
;;;357        }
;;;358    }
        0x00209eb4:    bd1f        ..      POP      {r0-r4,pc}
    keyscan_init_timer
        0x00209eb6:    b51c        ..      PUSH     {r2-r4,lr}
;;; ..\..\..\src\app\keyboard\keyscan.c (319)
        0x00209eb8:    494a        JI      LDR      r1,[pc,#296] ; [0x209fe4] = 0x8800fac
        0x00209eba:    2200        ."      MOVS     r2,#0
        0x00209ebc:    3980        .9      SUBS     r1,r1,#0x80
        0x00209ebe:    4847        GH      LDR      r0,[pc,#284] ; [0x209fdc] = 0x21103002
        0x00209ec0:    f5fdfdcd    ....    BL       log_buffer ; 0x7a5e
;;;320        /*xTimersKeyScan is used for keyscan dlps*/
;;;321        if (false == os_timer_create(&keyscan_timer, "keyscan_timer",  1, \
        0x00209ec4:    f2af0177    ..w.    ADR      r1,{pc}-0x73 ; 0x209e51
        0x00209ec8:    2000        .       MOVS     r0,#0
        0x00209eca:    e9cd0100    ....    STRD     r0,r1,[sp,#0]
        0x00209ece:    483e        >H      LDR      r0,[pc,#248] ; [0x209fc8] = 0x20bc90
        0x00209ed0:    2332        2#      MOVS     r3,#0x32
        0x00209ed2:    2201        ."      MOVS     r2,#1
        0x00209ed4:    a144        D.      ADR      r1,{pc}+0x114 ; 0x209fe8
        0x00209ed6:    1f00        ..      SUBS     r0,r0,#4
        0x00209ed8:    f61cfe7d    ..}.    BL       os_timer_create ; 0x26bd6
        0x00209edc:    2800        .(      CMP      r0,#0
        0x00209ede:    d109        ..      BNE      0x209ef4 ; keyscan_init_timer + 62
;;;322                                     KEYSCAN_SW_INTERVAL, false, keyscan_timer_callback))
;;;323        {
;;;324            APP_PRINT_ERROR0("[keyscan_init_timer] timer creat failed!");
        0x00209ee0:    4940        @I      LDR      r1,[pc,#256] ; [0x209fe4] = 0x8800fac
        0x00209ee2:    b002        ..      ADD      sp,sp,#8
        0x00209ee4:    483d        =H      LDR      r0,[pc,#244] ; [0x209fdc] = 0x21103002
        0x00209ee6:    2200        ."      MOVS     r2,#0
        0x00209ee8:    395c        \9      SUBS     r1,r1,#0x5c
        0x00209eea:    e8bd4010    ...@    POP      {r4,lr}
        0x00209eee:    1e80        ..      SUBS     r0,r0,#2
        0x00209ef0:    f5fdbdb5    ....    B        log_buffer ; 0x7a5e
;;;325        }
;;;326    }
        0x00209ef4:    bd1c        ..      POP      {r2-r4,pc}
    handle_keyscan_wakeup
;;;327    
;;;328    /******************************************************************
;;;329     * @brief    keyscan timer callback
;;;330     */
;;;331    void keyscan_timer_callback(void *pxTimer)
;;;332    {
;;;333        if (keyscan_global_data.is_key_pressed == true)
;;;334        {
;;;335            APP_PRINT_INFO0("[keyscan_timer_callback] start release timer");
;;;336            keyscan_global_data.is_key_pressed = false;
;;;337            keyscan_global_data.is_allowed_to_enter_dlps = false;
;;;338            keyscan_init_driver(KeyScan_Debounce_Disable);
;;;339            /* start timer to check key status */
;;;340            os_timer_restart(&pxTimer, KEYSCAN_SW_RELEASE_TIMEOUT);
;;;341        }
;;;342        else
;;;343        {
;;;344            /* keyscan release event detected */
;;;345            APP_PRINT_INFO0("[keyscan_timer_callback] keyscan release event detected");
;;;346            T_IO_MSG bee_io_msg;
;;;347            bee_io_msg.type = IO_MSG_TYPE_KEYSCAN;
;;;348            bee_io_msg.subtype = IO_MSG_KEYSCAN_ALLKEYRELEASE;
;;;349    
;;;350            if (false == app_send_msg_to_apptask(&bee_io_msg))
;;;351            {
;;;352                APP_PRINT_ERROR0("[keyscan_timer_callback] Send IO_MSG_TYPE_KEYSCAN message failed!");
;;;353            }
;;;354    
;;;355            keyscan_init_data();
;;;356            keyscan_init_driver(KeyScan_Debounce_Enable);
;;;357        }
;;;358    }
;;;359    
;;;360    /**
;;;361    * @brief   keyscan wakeup handler
;;;362    * @return  void
;;;363    */
;;;364    void handle_keyscan_wakeup(void)
;;;365    {
        0x00209ef6:    b57c        |.      PUSH     {r2-r6,lr}
;;;366    
;;;367        Pinmux_Config(ROW0, DWGPIO);
        0x00209ef8:    215a        Z!      MOVS     r1,#0x5a
        0x00209efa:    201a        .       MOVS     r0,#0x1a
        0x00209efc:    f607fa3a    ..:.    BL       Pinmux_Config ; 0x11374
;;;368        Pinmux_Config(ROW1, DWGPIO);
        0x00209f00:    215a        Z!      MOVS     r1,#0x5a
        0x00209f02:    201b        .       MOVS     r0,#0x1b
        0x00209f04:    f607fa36    ..6.    BL       Pinmux_Config ; 0x11374
;;;369        Pinmux_Config(ROW2, DWGPIO);
        0x00209f08:    215a        Z!      MOVS     r1,#0x5a
        0x00209f0a:    201c        .       MOVS     r0,#0x1c
        0x00209f0c:    f607fa32    ..2.    BL       Pinmux_Config ; 0x11374
;;;370        Pinmux_Config(ROW3, DWGPIO);
        0x00209f10:    215a        Z!      MOVS     r1,#0x5a
        0x00209f12:    2019        .       MOVS     r0,#0x19
        0x00209f14:    f607fa2e    ....    BL       Pinmux_Config ; 0x11374
;;;371    
;;;372        Pad_Config(ROW0, PAD_PINMUX_MODE, PAD_IS_PWRON, PAD_PULL_UP, PAD_OUT_DISABLE, PAD_OUT_LOW);
        0x00209f18:    2400        .$      MOVS     r4,#0
        0x00209f1a:    2301        .#      MOVS     r3,#1
        0x00209f1c:    9400        ..      STR      r4,[sp,#0]
        0x00209f1e:    461a        .F      MOV      r2,r3
        0x00209f20:    4619        .F      MOV      r1,r3
        0x00209f22:    201a        .       MOVS     r0,#0x1a
        0x00209f24:    9401        ..      STR      r4,[sp,#4]
        0x00209f26:    f607fa59    ..Y.    BL       Pad_Config ; 0x113dc
;;;373        Pad_Config(ROW1, PAD_PINMUX_MODE, PAD_IS_PWRON, PAD_PULL_UP, PAD_OUT_DISABLE, PAD_OUT_LOW);
        0x00209f2a:    2301        .#      MOVS     r3,#1
        0x00209f2c:    9400        ..      STR      r4,[sp,#0]
        0x00209f2e:    461a        .F      MOV      r2,r3
        0x00209f30:    4619        .F      MOV      r1,r3
        0x00209f32:    201b        .       MOVS     r0,#0x1b
        0x00209f34:    9401        ..      STR      r4,[sp,#4]
        0x00209f36:    f607fa51    ..Q.    BL       Pad_Config ; 0x113dc
;;;374        Pad_Config(ROW2, PAD_PINMUX_MODE, PAD_IS_PWRON, PAD_PULL_UP, PAD_OUT_DISABLE, PAD_OUT_LOW);
        0x00209f3a:    2301        .#      MOVS     r3,#1
        0x00209f3c:    9400        ..      STR      r4,[sp,#0]
        0x00209f3e:    461a        .F      MOV      r2,r3
        0x00209f40:    4619        .F      MOV      r1,r3
        0x00209f42:    201c        .       MOVS     r0,#0x1c
        0x00209f44:    9401        ..      STR      r4,[sp,#4]
        0x00209f46:    f607fa49    ..I.    BL       Pad_Config ; 0x113dc
;;;375        Pad_Config(ROW3, PAD_PINMUX_MODE, PAD_IS_PWRON, PAD_PULL_UP, PAD_OUT_DISABLE, PAD_OUT_LOW);
        0x00209f4a:    2301        .#      MOVS     r3,#1
        0x00209f4c:    9400        ..      STR      r4,[sp,#0]
        0x00209f4e:    461a        .F      MOV      r2,r3
        0x00209f50:    4619        .F      MOV      r1,r3
        0x00209f52:    2019        .       MOVS     r0,#0x19
        0x00209f54:    9401        ..      STR      r4,[sp,#4]
        0x00209f56:    f607fa41    ..A.    BL       Pad_Config ; 0x113dc
;;; ..\..\..\inc\peripheral\rtl876x_gpio.h
;;;406        return GPIO->DATAIN;
        0x00209f5a:    4827        'H      LDR      r0,[pc,#156] ; [0x209ff8] = 0x40001000
        0x00209f5c:    6d05        .m      LDR      r5,[r0,#0x50]
;;; ..\..\..\src\app\keyboard\keyscan.c
;;;380        gpio_pin = GPIO_GetPin(ROW0) | GPIO_GetPin(ROW1) | GPIO_GetPin(ROW2) | GPIO_GetPin(ROW3);
        0x00209f5e:    201a        .       MOVS     r0,#0x1a
        0x00209f60:    f7feff49    ..I.    BL       GPIO_GetPin ; 0x208df6
        0x00209f64:    4606        .F      MOV      r6,r0
        0x00209f66:    201b        .       MOVS     r0,#0x1b
        0x00209f68:    f7feff45    ..E.    BL       GPIO_GetPin ; 0x208df6
        0x00209f6c:    4306        .C      ORRS     r6,r6,r0
        0x00209f6e:    201c        .       MOVS     r0,#0x1c
        0x00209f70:    f7feff41    ..A.    BL       GPIO_GetPin ; 0x208df6
        0x00209f74:    4306        .C      ORRS     r6,r6,r0
        0x00209f76:    2019        .       MOVS     r0,#0x19
        0x00209f78:    f7feff3d    ..=.    BL       GPIO_GetPin ; 0x208df6
        0x00209f7c:    4306        .C      ORRS     r6,r6,r0
;;;381    
;;;382        keyscan_pinmux_config();
        0x00209f7e:    f7fffdc2    ....    BL       keyscan_pinmux_config ; 0x209b06
;;;383        keyscan_pad_config();
        0x00209f82:    f7fffd7d    ..}.    BL       keyscan_pad_config ; 0x209a80
;;;384    
;;;385        if (gpio_pin != (gpio_pin & gpio_data))
        0x00209f86:    ea360005    6...    BICS     r0,r6,r5
        0x00209f8a:    d01c        ..      BEQ      0x209fc6 ; handle_keyscan_wakeup + 208
;;;386        {
;;;387            APP_PRINT_INFO2("wake up by keyscan, pin =0x%x, gpio input = 0x%x", gpio_pin, gpio_data);
        0x00209f8c:    4915        .I      LDR      r1,[pc,#84] ; [0x209fe4] = 0x8800fac
        0x00209f8e:    4633        3F      MOV      r3,r6
        0x00209f90:    2202        ."      MOVS     r2,#2
        0x00209f92:    3184        .1      ADDS     r1,r1,#0x84
        0x00209f94:    4811        .H      LDR      r0,[pc,#68] ; [0x209fdc] = 0x21103002
        0x00209f96:    9500        ..      STR      r5,[sp,#0]
        0x00209f98:    f5fdfd61    ..a.    BL       log_buffer ; 0x7a5e
;;;388            keyscan_init_driver(KeyScan_Debounce_Disable);
        0x00209f9c:    2000        .       MOVS     r0,#0
        0x00209f9e:    f7fffe66    ..f.    BL       keyscan_init_driver ; 0x209c6e
;;;389            keyscan_global_data.is_allowed_to_enter_dlps = false;
        0x00209fa2:    4d09        .M      LDR      r5,[pc,#36] ; [0x209fc8] = 0x20bc90
        0x00209fa4:    2132        2!      MOVS     r1,#0x32
        0x00209fa6:    1f28        (.      SUBS     r0,r5,#4
        0x00209fa8:    706c        lp      STRB     r4,[r5,#1]
;;;390            /* not allow to enter DLPS before interrupt or timeout */
;;;391            /* Set flag and start timer to handle unexpection condition:
;;;392               1. Not Keyscan row PAD wake up system;
;;;393               2. PAD wake up signal disappear before Keyscan works; */
;;;394            keyscan_global_data.is_key_pressed = true;
        0x00209faa:    2401        .$      MOVS     r4,#1
        0x00209fac:    70ac        .p      STRB     r4,[r5,#2]
;;;395            if (!os_timer_restart(&keyscan_timer, KEYSCAN_SW_INTERVAL))
        0x00209fae:    f61cfe46    ..F.    BL       os_timer_restart ; 0x26c3e
        0x00209fb2:    2800        .(      CMP      r0,#0
        0x00209fb4:    d107        ..      BNE      0x209fc6 ; handle_keyscan_wakeup + 208
;;;396            {
;;;397                APP_PRINT_ERROR0("[System_Handler] xTimersKeyScan restart failed!");
        0x00209fb6:    490b        .I      LDR      r1,[pc,#44] ; [0x209fe4] = 0x8800fac
        0x00209fb8:    4808        .H      LDR      r0,[pc,#32] ; [0x209fdc] = 0x21103002
        0x00209fba:    2200        ."      MOVS     r2,#0
        0x00209fbc:    31b8        .1      ADDS     r1,r1,#0xb8
        0x00209fbe:    1e80        ..      SUBS     r0,r0,#2
        0x00209fc0:    f5fdfd4d    ..M.    BL       log_buffer ; 0x7a5e
;;;398                keyscan_global_data.is_allowed_to_enter_dlps = true;
        0x00209fc4:    706c        lp      STRB     r4,[r5,#1]
;;;399            }
;;;400        }
;;;401    
;;;402    
;;;403    
;;;404    
;;;405    }
        0x00209fc6:    bd7c        |.      POP      {r2-r6,pc}
    $d
        0x00209fc8:    0020bc90    .. .    DCD    2145424
        0x00209fcc:    60000040    @..`    DCD    1610612800
        0x00209fd0:    08080000    ....    DCD    134742016
        0x00209fd4:    40005000    .P.@    DCD    1073762304
        0x00209fd8:    08800d20     ...    DCD    142609696
        0x00209fdc:    21103002    .0.!    DCD    554708994
        0x00209fe0:    08800e8c    ....    DCD    142610060
        0x00209fe4:    08800fac    ....    DCD    142610348
        0x00209fe8:    7379656b    keys    DCD    1937335659
        0x00209fec:    5f6e6163    can_    DCD    1601069411
        0x00209ff0:    656d6974    time    DCD    1701669236
        0x00209ff4:    00000072    r...    DCD    114
        0x00209ff8:    40001000    ...@    DCD    1073745920
    $t
    .text
    set_passkey
;;; ..\..\..\src\app\keyboard\key_handler.c
;;;38         if (key_num < 10)
        0x00209ffc:    280a        .(      CMP      r0,#0xa
        0x00209ffe:    d20b        ..      BCS      0x20a018 ; set_passkey + 28
;;;39         {
;;;40             if (p_passkey->count < 6)
        0x0020a000:    790a        .y      LDRB     r2,[r1,#4]
        0x0020a002:    2a06        .*      CMP      r2,#6
        0x0020a004:    d207        ..      BCS      0x20a016 ; set_passkey + 26
;;;41             {
;;;42                 p_passkey->value = p_passkey->value * 10;
        0x0020a006:    680b        .h      LDR      r3,[r1,#0]
        0x0020a008:    1c52        R.      ADDS     r2,r2,#1
        0x0020a00a:    eb030383    ....    ADD      r3,r3,r3,LSL #2
;;;43                 p_passkey->value += key_num;
        0x0020a00e:    eb000043    ..C.    ADD      r0,r0,r3,LSL #1
;;;44                 p_passkey->count++;
        0x0020a012:    6008        .`      STR      r0,[r1,#0]
        0x0020a014:    710a        .q      STRB     r2,[r1,#4]
        0x0020a016:    4770        pG      BX       lr
;;;45             }
;;;46         }
;;;47         else if (key_num == 10)
        0x0020a018:    d1fd        ..      BNE      0x20a016 ; set_passkey + 26
;;;48         {
;;;49             //delete the last input key value
;;;50             p_passkey->value = p_passkey->value / 10;
        0x0020a01a:    6808        .h      LDR      r0,[r1,#0]
        0x0020a01c:    220a        ."      MOVS     r2,#0xa
        0x0020a01e:    fbb0f0f2    ....    UDIV     r0,r0,r2
;;;51             if (p_passkey->count > 0)
        0x0020a022:    6008        .`      STR      r0,[r1,#0]
        0x0020a024:    7908        .y      LDRB     r0,[r1,#4]
        0x0020a026:    2800        .(      CMP      r0,#0
        0x0020a028:    d0f5        ..      BEQ      0x20a016 ; set_passkey + 26
        0x0020a02a:    1e40        @.      SUBS     r0,r0,#1
;;;52             {
;;;53                 p_passkey->count--;
        0x0020a02c:    7108        .q      STRB     r0,[r1,#4]
;;;54             }
;;;55         }
;;;56     }
        0x0020a02e:    4770        pG      BX       lr
    keyboard_handle_pair_event
;;;57     
;;;58     /******************************************************************
;;;59      * @brief    handle pair event
;;;60      */
;;;61     void keyboard_handle_pair_event(T_KEYSCAN_FIFIO_DATA *p_key_data)
;;;62     {
        0x0020a030:    e92d4ffe    -..O    PUSH     {r1-r11,lr}
        0x0020a034:    4f94        .O      LDR      r7,[pc,#592] ; [0x20a288] = 0x21103002
        0x0020a036:    2400        .$      MOVS     r4,#0
;;; ..\..\..\src\app\keyboard\key_handler.c (62)
        0x0020a038:    4606        .F      MOV      r6,r0
        0x0020a03a:    46a0        .F      MOV      r8,r4
        0x0020a03c:    f8df9244    ..D.    LDR      r9,[pc,#580] ; [0x20a284] = 0x20bcbc
        0x0020a040:    f1a70a02    ....    SUB      r10,r7,#2
        0x0020a044:    e0b9        ..      B        0x20a1ba ; keyboard_handle_pair_event + 394
;;;63         uint8_t usage_id;
;;;64     
;;;65         for (uint8_t i = 0; i < p_key_data->len; i++)
;;;66         {
;;;67             APP_PRINT_INFO4("No.%d,Total len=%d: (row, column) = (%d, %d)", i + 1, p_key_data->len,
        0x0020a046:    eb060544    ..D.    ADD      r5,r6,r4,LSL #1
        0x0020a04a:    1c63        c.      ADDS     r3,r4,#1
        0x0020a04c:    7928        (y      LDRB     r0,[r5,#4]
        0x0020a04e:    9100        ..      STR      r1,[sp,#0]
        0x0020a050:    f000021f    ....    AND      r2,r0,#0x1f
        0x0020a054:    0940        @.      LSRS     r0,r0,#5
        0x0020a056:    e9cd0201    ....    STRD     r0,r2,[sp,#4]
        0x0020a05a:    2204        ."      MOVS     r2,#4
        0x0020a05c:    498b        .I      LDR      r1,[pc,#556] ; [0x20a28c] = 0x8801098
        0x0020a05e:    4638        8F      MOV      r0,r7
        0x0020a060:    f5fdfcfd    ....    BL       log_buffer ; 0x7a5e
;;;68                             p_key_data->key[i].row, p_key_data->key[i].column);
;;;69             usage_id = key_map[p_key_data->key[i].row][p_key_data->key[i].column];
        0x0020a064:    7928        (y      LDRB     r0,[r5,#4]
        0x0020a066:    4a8a        .J      LDR      r2,[pc,#552] ; [0x20a290] = 0x20b7ce
        0x0020a068:    0941        A.      LSRS     r1,r0,#5
        0x0020a06a:    eb0201c1    ....    ADD      r1,r2,r1,LSL #3
        0x0020a06e:    f000001f    ....    AND      r0,r0,#0x1f
        0x0020a072:    f8113010    ...0    LDRB     r3,[r1,r0,LSL #1]
;;;70     
;;;71             switch (usage_id)
        0x0020a076:    f1a3001e    ....    SUB      r0,r3,#0x1e
        0x0020a07a:    280d        .(      CMP      r0,#0xd
        0x0020a07c:    d279        y.      BCS      0x20a172 ; keyboard_handle_pair_event + 322
        0x0020a07e:    e8dff000    ....    TBB      [pc,r0]
    $d
        0x0020a082:    1b10        ..      DCW    6928
        0x0020a084:    3f362d24    $-6?    DCD    1060515108
        0x0020a088:    075a5148    HQZ.    DCD    123359560
        0x0020a08c:    00899463    c...    DCD    9016419
    $t
;;;72             {
;;;73             case KB_0:
;;;74                 {
;;;75                     APP_PRINT_INFO0("passKey = KB_0");
        0x0020a090:    497e        ~I      LDR      r1,[pc,#504] ; [0x20a28c] = 0x8801098
        0x0020a092:    2200        ."      MOVS     r2,#0
        0x0020a094:    3130        01      ADDS     r1,r1,#0x30
        0x0020a096:    4638        8F      MOV      r0,r7
        0x0020a098:    f5fdfce1    ....    BL       log_buffer ; 0x7a5e
;;;76                     set_passkey(0, &passkey);
        0x0020a09c:    4979        yI      LDR      r1,[pc,#484] ; [0x20a284] = 0x20bcbc
        0x0020a09e:    2000        .       MOVS     r0,#0
;;;77                     break;
        0x0020a0a0:    e007        ..      B        0x20a0b2 ; keyboard_handle_pair_event + 130
;;;78                 }
;;;79             case KB_1:
;;;80                 {
;;;81                     APP_PRINT_INFO0("passKey = KB_1");
        0x0020a0a2:    497a        zI      LDR      r1,[pc,#488] ; [0x20a28c] = 0x8801098
        0x0020a0a4:    2200        ."      MOVS     r2,#0
        0x0020a0a6:    3144        D1      ADDS     r1,r1,#0x44
        0x0020a0a8:    4638        8F      MOV      r0,r7
        0x0020a0aa:    f5fdfcd8    ....    BL       log_buffer ; 0x7a5e
;;;82                     set_passkey(1, &passkey);
        0x0020a0ae:    4975        uI      LDR      r1,[pc,#468] ; [0x20a284] = 0x20bcbc
        0x0020a0b0:    2001        .       MOVS     r0,#1
        0x0020a0b2:    f7ffffa3    ....    BL       set_passkey ; 0x209ffc
        0x0020a0b6:    e07e        ~.      B        0x20a1b6 ; keyboard_handle_pair_event + 390
;;;83                     break;
;;;84                 }
;;;85             case KB_2:
;;;86                 {
;;;87                     APP_PRINT_INFO0("passKey = KB_2");
        0x0020a0b8:    4974        tI      LDR      r1,[pc,#464] ; [0x20a28c] = 0x8801098
        0x0020a0ba:    2200        ."      MOVS     r2,#0
        0x0020a0bc:    3158        X1      ADDS     r1,r1,#0x58
        0x0020a0be:    4638        8F      MOV      r0,r7
        0x0020a0c0:    f5fdfccd    ....    BL       log_buffer ; 0x7a5e
;;;88                     set_passkey(2, &passkey);
        0x0020a0c4:    496f        oI      LDR      r1,[pc,#444] ; [0x20a284] = 0x20bcbc
        0x0020a0c6:    2002        .       MOVS     r0,#2
;;;89                     break;
        0x0020a0c8:    e7f3        ..      B        0x20a0b2 ; keyboard_handle_pair_event + 130
;;;90                 }
;;;91             case KB_3:
;;;92                 {
;;;93                     APP_PRINT_INFO0("passKey = KB_3");
        0x0020a0ca:    4970        pI      LDR      r1,[pc,#448] ; [0x20a28c] = 0x8801098
        0x0020a0cc:    2200        ."      MOVS     r2,#0
        0x0020a0ce:    316c        l1      ADDS     r1,r1,#0x6c
        0x0020a0d0:    4638        8F      MOV      r0,r7
        0x0020a0d2:    f5fdfcc4    ....    BL       log_buffer ; 0x7a5e
;;;94                     set_passkey(3, &passkey);
        0x0020a0d6:    496b        kI      LDR      r1,[pc,#428] ; [0x20a284] = 0x20bcbc
        0x0020a0d8:    2003        .       MOVS     r0,#3
;;;95                     break;
        0x0020a0da:    e7ea        ..      B        0x20a0b2 ; keyboard_handle_pair_event + 130
;;;96                 }
;;;97             case KB_4:
;;;98                 {
;;;99                     APP_PRINT_INFO0("passKey = KB_4");
        0x0020a0dc:    496b        kI      LDR      r1,[pc,#428] ; [0x20a28c] = 0x8801098
        0x0020a0de:    2200        ."      MOVS     r2,#0
        0x0020a0e0:    3180        .1      ADDS     r1,r1,#0x80
        0x0020a0e2:    4638        8F      MOV      r0,r7
        0x0020a0e4:    f5fdfcbb    ....    BL       log_buffer ; 0x7a5e
;;;100                    set_passkey(4, &passkey);
        0x0020a0e8:    4966        fI      LDR      r1,[pc,#408] ; [0x20a284] = 0x20bcbc
        0x0020a0ea:    2004        .       MOVS     r0,#4
;;;101                    break;
        0x0020a0ec:    e7e1        ..      B        0x20a0b2 ; keyboard_handle_pair_event + 130
;;;102                }
;;;103            case KB_5:
;;;104                {
;;;105                    APP_PRINT_INFO0("passKey = KB_5");
        0x0020a0ee:    4967        gI      LDR      r1,[pc,#412] ; [0x20a28c] = 0x8801098
        0x0020a0f0:    2200        ."      MOVS     r2,#0
        0x0020a0f2:    3194        .1      ADDS     r1,r1,#0x94
        0x0020a0f4:    4638        8F      MOV      r0,r7
        0x0020a0f6:    f5fdfcb2    ....    BL       log_buffer ; 0x7a5e
;;;106                    set_passkey(5, &passkey);
        0x0020a0fa:    4962        bI      LDR      r1,[pc,#392] ; [0x20a284] = 0x20bcbc
        0x0020a0fc:    2005        .       MOVS     r0,#5
;;;107                    break;
        0x0020a0fe:    e7d8        ..      B        0x20a0b2 ; keyboard_handle_pair_event + 130
;;;108                }
;;;109    
;;;110            case KB_6:
;;;111                {
;;;112                    APP_PRINT_INFO0("passKey = KB_6");
        0x0020a100:    4962        bI      LDR      r1,[pc,#392] ; [0x20a28c] = 0x8801098
        0x0020a102:    2200        ."      MOVS     r2,#0
        0x0020a104:    31a8        .1      ADDS     r1,r1,#0xa8
        0x0020a106:    4638        8F      MOV      r0,r7
        0x0020a108:    f5fdfca9    ....    BL       log_buffer ; 0x7a5e
;;;113                    set_passkey(6, &passkey);
        0x0020a10c:    495d        ]I      LDR      r1,[pc,#372] ; [0x20a284] = 0x20bcbc
        0x0020a10e:    2006        .       MOVS     r0,#6
;;;114                    break;
        0x0020a110:    e7cf        ..      B        0x20a0b2 ; keyboard_handle_pair_event + 130
;;;115                }
;;;116            case KB_7:
;;;117                {
;;;118                    APP_PRINT_INFO0("passKey = KB_7");
        0x0020a112:    495e        ^I      LDR      r1,[pc,#376] ; [0x20a28c] = 0x8801098
        0x0020a114:    2200        ."      MOVS     r2,#0
        0x0020a116:    31bc        .1      ADDS     r1,r1,#0xbc
        0x0020a118:    4638        8F      MOV      r0,r7
        0x0020a11a:    f5fdfca0    ....    BL       log_buffer ; 0x7a5e
;;;119                    set_passkey(7, &passkey);
        0x0020a11e:    4959        YI      LDR      r1,[pc,#356] ; [0x20a284] = 0x20bcbc
        0x0020a120:    2007        .       MOVS     r0,#7
;;;120                    break;
        0x0020a122:    e7c6        ..      B        0x20a0b2 ; keyboard_handle_pair_event + 130
;;;121                }
;;;122            case KB_8:
;;;123                {
;;;124                    APP_PRINT_INFO0("passKey = KB_8");
        0x0020a124:    4959        YI      LDR      r1,[pc,#356] ; [0x20a28c] = 0x8801098
        0x0020a126:    2200        ."      MOVS     r2,#0
        0x0020a128:    31d0        .1      ADDS     r1,r1,#0xd0
        0x0020a12a:    4638        8F      MOV      r0,r7
        0x0020a12c:    f5fdfc97    ....    BL       log_buffer ; 0x7a5e
;;;125                    set_passkey(8, &passkey);
        0x0020a130:    4954        TI      LDR      r1,[pc,#336] ; [0x20a284] = 0x20bcbc
        0x0020a132:    2008        .       MOVS     r0,#8
;;;126                    break;
        0x0020a134:    e7bd        ..      B        0x20a0b2 ; keyboard_handle_pair_event + 130
;;;127                }
;;;128            case KB_9:
;;;129                {
;;;130                    APP_PRINT_INFO0("passKey = KB_9");
        0x0020a136:    4955        UI      LDR      r1,[pc,#340] ; [0x20a28c] = 0x8801098
        0x0020a138:    2200        ."      MOVS     r2,#0
        0x0020a13a:    31e4        .1      ADDS     r1,r1,#0xe4
        0x0020a13c:    4638        8F      MOV      r0,r7
        0x0020a13e:    f5fdfc8e    ....    BL       log_buffer ; 0x7a5e
;;;131                    set_passkey(9, &passkey);
        0x0020a142:    4950        PI      LDR      r1,[pc,#320] ; [0x20a284] = 0x20bcbc
        0x0020a144:    2009        .       MOVS     r0,#9
;;;132                    break;
        0x0020a146:    e7b4        ..      B        0x20a0b2 ; keyboard_handle_pair_event + 130
;;;133                }
;;;134            case KB_Return_ENTER:
;;;135                {
;;;136                    APP_PRINT_INFO0("passKey = KB_Return_ENTER\n\n");
        0x0020a148:    4950        PI      LDR      r1,[pc,#320] ; [0x20a28c] = 0x8801098
        0x0020a14a:    2200        ."      MOVS     r2,#0
        0x0020a14c:    31f8        .1      ADDS     r1,r1,#0xf8
        0x0020a14e:    4638        8F      MOV      r0,r7
        0x0020a150:    f5fdfc85    ....    BL       log_buffer ; 0x7a5e
;;;137                    if (passkey.count == 6)
        0x0020a154:    f8990004    ....    LDRB     r0,[r9,#4]
        0x0020a158:    464d        MF      MOV      r5,r9
        0x0020a15a:    2806        .(      CMP      r0,#6
        0x0020a15c:    d00a        ..      BEQ      0x20a174 ; keyboard_handle_pair_event + 324
        0x0020a15e:    2200        ."      MOVS     r2,#0
        0x0020a160:    494c        LI      LDR      r1,[pc,#304] ; [0x20a294] = 0x88011c0
        0x0020a162:    4650        PF      MOV      r0,r10
        0x0020a164:    f5fdfc7b    ..{.    BL       log_buffer ; 0x7a5e
        0x0020a168:    f8858004    ....    STRB     r8,[r5,#4]
        0x0020a16c:    f8c58000    ....    STR      r8,[r5,#0]
        0x0020a170:    e021        !.      B        0x20a1b6 ; keyboard_handle_pair_event + 390
        0x0020a172:    e01a        ..      B        0x20a1aa ; keyboard_handle_pair_event + 378
;;;138                    {
;;;139                        APP_PRINT_INFO1("passKey = %d", passkey.value);
        0x0020a174:    4947        GI      LDR      r1,[pc,#284] ; [0x20a294] = 0x88011c0
        0x0020a176:    2201        ."      MOVS     r2,#1
        0x0020a178:    3910        .9      SUBS     r1,r1,#0x10
        0x0020a17a:    4638        8F      MOV      r0,r7
        0x0020a17c:    682b        +h      LDR      r3,[r5,#0]
        0x0020a17e:    f5fdfc6e    ..n.    BL       log_buffer ; 0x7a5e
;;;140                        le_bond_passkey_input_confirm(keyboard_con_id, passkey.value, GAP_CFM_CAUSE_ACCEPT);
        0x0020a182:    4845        EH      LDR      r0,[pc,#276] ; [0x20a298] = 0x20bc88
        0x0020a184:    2201        ."      MOVS     r2,#1
        0x0020a186:    6829        )h      LDR      r1,[r5,#0]
        0x0020a188:    7800        .x      LDRB     r0,[r0,#0]
        0x0020a18a:    f642f8fa    B...    BL       le_bond_passkey_input_confirm ; 0x4c382
;;;141                        passkey.enable_input = false;
        0x0020a18e:    f8858005    ....    STRB     r8,[r5,#5]
        0x0020a192:    e7e9        ..      B        0x20a168 ; keyboard_handle_pair_event + 312
;;;142                    }
;;;143                    else
;;;144                    {
;;;145                        APP_PRINT_ERROR0("Error: The passkey length is not equal to six, please input again.\n");
;;;146                    }
;;;147                    // clear passkey data
;;;148                    passkey.count = 0;
;;;149                    passkey.value = 0;
;;;150                    break;
;;;151                }
;;;152    
;;;153            case KB_DELETE_Backspace:
;;;154                {
;;;155                    set_passkey(10, &passkey);
        0x0020a194:    493b        ;I      LDR      r1,[pc,#236] ; [0x20a284] = 0x20bcbc
        0x0020a196:    200a        .       MOVS     r0,#0xa
        0x0020a198:    f7ffff30    ..0.    BL       set_passkey ; 0x209ffc
;;;156                    APP_PRINT_INFO0("Delete the last input key value");
        0x0020a19c:    493d        =I      LDR      r1,[pc,#244] ; [0x20a294] = 0x88011c0
        0x0020a19e:    2200        ."      MOVS     r2,#0
        0x0020a1a0:    3148        H1      ADDS     r1,r1,#0x48
        0x0020a1a2:    4638        8F      MOV      r0,r7
        0x0020a1a4:    f5fdfc5b    ..[.    BL       log_buffer ; 0x7a5e
;;;157                    break;
        0x0020a1a8:    e005        ..      B        0x20a1b6 ; keyboard_handle_pair_event + 390
;;;158                }
;;;159    
;;;160            default:
;;;161                {
;;;162                    APP_PRINT_ERROR1("Invalid Passkey keyCode: 0x%x\n\n", usage_id);
        0x0020a1aa:    493a        :I      LDR      r1,[pc,#232] ; [0x20a294] = 0x88011c0
        0x0020a1ac:    2201        ."      MOVS     r2,#1
        0x0020a1ae:    316c        l1      ADDS     r1,r1,#0x6c
        0x0020a1b0:    4650        PF      MOV      r0,r10
        0x0020a1b2:    f5fdfc54    ..T.    BL       log_buffer ; 0x7a5e
        0x0020a1b6:    1c64        d.      ADDS     r4,r4,#1
        0x0020a1b8:    b2e4        ..      UXTB     r4,r4
        0x0020a1ba:    6831        1h      LDR      r1,[r6,#0]
        0x0020a1bc:    42a1        .B      CMP      r1,r4
        0x0020a1be:    f63faf42    ?.B.    BHI      0x20a046 ; keyboard_handle_pair_event + 22
;;;163                    break;
;;;164                }
;;;165            }
;;;166        }
;;;167    }
        0x0020a1c2:    e8bd8ffe    ....    POP      {r1-r11,pc}
    keyboard_handle_press_event
;;;168    
;;;169    /******************************************************************
;;;170     * @brief    handle keyscan press event
;;;171     */
;;;172    void keyboard_handle_press_event(T_KEYSCAN_FIFIO_DATA *p_key_data)
;;;173    {
        0x0020a1c6:    e92d41f0    -..A    PUSH     {r4-r8,lr}
        0x0020a1ca:    b086        ..      SUB      sp,sp,#0x18
        0x0020a1cc:    2500        .%      MOVS     r5,#0
        0x0020a1ce:    4606        .F      MOV      r6,r0
        0x0020a1d0:    9503        ..      STR      r5,[sp,#0xc]
        0x0020a1d2:    462c        ,F      MOV      r4,r5
        0x0020a1d4:    f04f0801    O...    MOV      r8,#1
        0x0020a1d8:    9504        ..      STR      r5,[sp,#0x10]
        0x0020a1da:    e031        1.      B        0x20a240 ; keyboard_handle_press_event + 122
;;;174        uint8_t keycount = 0;
;;;175        uint16_t usage_id;
;;;176        uint8_t keyboard_data[8] = {0x00, 0x00, 0x00, 0x00, 0x00, 0x00, 0x00, 0x00};
;;;177    
;;;178    
;;;179        for (uint8_t i = 0; i < p_key_data->len; i++)
;;;180        {
;;;181            APP_PRINT_INFO4("No.%d,Total len=%d: (row, column) = (%d, %d)", i + 1, p_key_data->len,
        0x0020a1dc:    eb060744    ..D.    ADD      r7,r6,r4,LSL #1
        0x0020a1e0:    1c63        c.      ADDS     r3,r4,#1
        0x0020a1e2:    7938        8y      LDRB     r0,[r7,#4]
        0x0020a1e4:    9100        ..      STR      r1,[sp,#0]
        0x0020a1e6:    f000021f    ....    AND      r2,r0,#0x1f
        0x0020a1ea:    0940        @.      LSRS     r0,r0,#5
        0x0020a1ec:    e9cd0201    ....    STRD     r0,r2,[sp,#4]
        0x0020a1f0:    4928        (I      LDR      r1,[pc,#160] ; [0x20a294] = 0x88011c0
        0x0020a1f2:    2204        ."      MOVS     r2,#4
        0x0020a1f4:    3190        .1      ADDS     r1,r1,#0x90
        0x0020a1f6:    4824        $H      LDR      r0,[pc,#144] ; [0x20a288] = 0x21103002
        0x0020a1f8:    f5fdfc31    ..1.    BL       log_buffer ; 0x7a5e
;;;182                            p_key_data->key[i].row, p_key_data->key[i].column);
;;;183            usage_id = key_map[p_key_data->key[i].row][p_key_data->key[i].column];
        0x0020a1fc:    7938        8y      LDRB     r0,[r7,#4]
        0x0020a1fe:    4a24        $J      LDR      r2,[pc,#144] ; [0x20a290] = 0x20b7ce
        0x0020a200:    0941        A.      LSRS     r1,r0,#5
        0x0020a202:    eb0201c1    ....    ADD      r1,r2,r1,LSL #3
        0x0020a206:    f000001f    ....    AND      r0,r0,#0x1f
        0x0020a20a:    f8311010    1...    LDRH     r1,[r1,r0,LSL #1]
;;;184    
;;;185            /********Normal Keys**********/
;;;186            if (usage_id <= 0xA4)
        0x0020a20e:    29a4        .)      CMP      r1,#0xa4
        0x0020a210:    d807        ..      BHI      0x20a222 ; keyboard_handle_press_event + 92
;;;187            {
;;;188                if (keycount < 6)
        0x0020a212:    2d06        .-      CMP      r5,#6
        0x0020a214:    d212        ..      BCS      0x20a23c ; keyboard_handle_press_event + 118
;;;189                {
;;;190                    keyboard_data[2 + keycount] = usage_id;
        0x0020a216:    a803        ..      ADD      r0,sp,#0xc
        0x0020a218:    4428        (D      ADD      r0,r0,r5
        0x0020a21a:    1c6d        m.      ADDS     r5,r5,#1
        0x0020a21c:    7081        .p      STRB     r1,[r0,#2]
;;;191                    keycount++;
        0x0020a21e:    b2ed        ..      UXTB     r5,r5
        0x0020a220:    e00c        ..      B        0x20a23c ; keyboard_handle_press_event + 118
;;;192                }
;;;193            }
;;;194            /*********Modifier Keys********/
;;;195            else if ((usage_id >= 0xE0) && (usage_id <= 0xE7))
        0x0020a222:    f1a100e0    ....    SUB      r0,r1,#0xe0
        0x0020a226:    2807        .(      CMP      r0,#7
        0x0020a228:    d808        ..      BHI      0x20a23c ; keyboard_handle_press_event + 118
;;;196            {
;;;197                keyboard_data[0] |= 1 << (usage_id & 0x07);
        0x0020a22a:    f89d000c    ....    LDRB     r0,[sp,#0xc]
        0x0020a22e:    f0010207    ....    AND      r2,r1,#7
        0x0020a232:    fa08f102    ....    LSL      r1,r8,r2
        0x0020a236:    4308        .C      ORRS     r0,r0,r1
        0x0020a238:    f88d000c    ....    STRB     r0,[sp,#0xc]
        0x0020a23c:    1c64        d.      ADDS     r4,r4,#1
        0x0020a23e:    b2e4        ..      UXTB     r4,r4
        0x0020a240:    6831        1h      LDR      r1,[r6,#0]
        0x0020a242:    42a1        .B      CMP      r1,r4
        0x0020a244:    d8ca        ..      BHI      0x20a1dc ; keyboard_handle_press_event + 22
;;;198            }
;;;199        }
;;;200    
;;;201        server_send_data(keyboard_con_id, hid_srv_id, GATT_SVC_HID_REPORT_INPUT_INDEX,
        0x0020a246:    2108        .!      MOVS     r1,#8
        0x0020a248:    4814        .H      LDR      r0,[pc,#80] ; [0x20a29c] = 0x20bc85
        0x0020a24a:    e9cd1800    ....    STRD     r1,r8,[sp,#0]
        0x0020a24e:    7801        .x      LDRB     r1,[r0,#0]
        0x0020a250:    4811        .H      LDR      r0,[pc,#68] ; [0x20a298] = 0x20bc88
        0x0020a252:    ab03        ..      ADD      r3,sp,#0xc
        0x0020a254:    2204        ."      MOVS     r2,#4
        0x0020a256:    7800        .x      LDRB     r0,[r0,#0]
        0x0020a258:    f645faa4    E...    BL       server_send_data ; 0x4f7a4
;;;202                         keyboard_data, sizeof(keyboard_data), GATT_PDU_TYPE_NOTIFICATION);
;;;203    }
        0x0020a25c:    b006        ..      ADD      sp,sp,#0x18
        0x0020a25e:    e8bd81f0    ....    POP      {r4-r8,pc}
    keyboard_handle_release_event
;;;204    
;;;205    /******************************************************************
;;;206     * @brief    handle keyscan release event
;;;207     */
;;;208    void keyboard_handle_release_event(void)
;;;209    {
        0x0020a262:    b51f        ..      PUSH     {r0-r4,lr}
;;;210        uint8_t keyboard_data[8] = {0x00, 0x00, 0x00, 0x00, 0x00, 0x00, 0x00, 0x00};
        0x0020a264:    2000        .       MOVS     r0,#0
        0x0020a266:    9002        ..      STR      r0,[sp,#8]
;;;211        server_send_data(keyboard_con_id, hid_srv_id, GATT_SVC_HID_REPORT_INPUT_INDEX,
        0x0020a268:    9003        ..      STR      r0,[sp,#0xc]
        0x0020a26a:    2101        .!      MOVS     r1,#1
        0x0020a26c:    2008        .       MOVS     r0,#8
        0x0020a26e:    e9cd0100    ....    STRD     r0,r1,[sp,#0]
        0x0020a272:    480a        .H      LDR      r0,[pc,#40] ; [0x20a29c] = 0x20bc85
        0x0020a274:    ab02        ..      ADD      r3,sp,#8
        0x0020a276:    2204        ."      MOVS     r2,#4
        0x0020a278:    7801        .x      LDRB     r1,[r0,#0]
        0x0020a27a:    4807        .H      LDR      r0,[pc,#28] ; [0x20a298] = 0x20bc88
        0x0020a27c:    7800        .x      LDRB     r0,[r0,#0]
        0x0020a27e:    f645fa91    E...    BL       server_send_data ; 0x4f7a4
;;;212                         keyboard_data, sizeof(keyboard_data), GATT_PDU_TYPE_NOTIFICATION);
;;;213    }
        0x0020a282:    bd1f        ..      POP      {r0-r4,pc}
    $d
        0x0020a284:    0020bcbc    .. .    DCD    2145468
        0x0020a288:    21103002    .0.!    DCD    554708994
        0x0020a28c:    08801098    ....    DCD    142610584
        0x0020a290:    0020b7ce    .. .    DCD    2144206
        0x0020a294:    088011c0    ....    DCD    142610880
        0x0020a298:    0020bc88    .. .    DCD    2145416
        0x0020a29c:    0020bc85    .. .    DCD    2145413
    $t
    .text
    gpio_button_pinmux_config
;;; ..\..\..\src\app\keyboard\keyboard_button.c
;;;41         Pinmux_Config(PAIR_BUTTON, DWGPIO);
        0x0020a2a0:    215a        Z!      MOVS     r1,#0x5a
        0x0020a2a2:    2014        .       MOVS     r0,#0x14
        0x0020a2a4:    f607b866    ..f.    B        Pinmux_Config ; 0x11374
    gpio_button_pad_config
;;;42     }
;;;43     
;;;44     /**
;;;45     * @brief   gpio button pad config
;;;46     * @return  void
;;;47     */
;;;48     void gpio_button_pad_config(void)
;;;49     {
        0x0020a2a8:    b51c        ..      PUSH     {r2-r4,lr}
;;;50         Pad_Config(PAIR_BUTTON, PAD_PINMUX_MODE, PAD_IS_PWRON, PAD_PULL_UP, PAD_OUT_DISABLE, PAD_OUT_LOW);
        0x0020a2aa:    2000        .       MOVS     r0,#0
        0x0020a2ac:    2301        .#      MOVS     r3,#1
        0x0020a2ae:    9000        ..      STR      r0,[sp,#0]
        0x0020a2b0:    9001        ..      STR      r0,[sp,#4]
        0x0020a2b2:    461a        .F      MOV      r2,r3
        0x0020a2b4:    4619        .F      MOV      r1,r3
        0x0020a2b6:    2014        .       MOVS     r0,#0x14
        0x0020a2b8:    f607f890    ....    BL       Pad_Config ; 0x113dc
;;;51         System_WakeUpPinEnable(PAIR_BUTTON, PAD_WAKEUP_POL_LOW, PAD_WK_DEBOUNCE_ENABLE);
        0x0020a2bc:    b002        ..      ADD      sp,sp,#8
        0x0020a2be:    2201        ."      MOVS     r2,#1
        0x0020a2c0:    e8bd4010    ...@    POP      {r4,lr}
        0x0020a2c4:    4611        .F      MOV      r1,r2
        0x0020a2c6:    2014        .       MOVS     r0,#0x14
        0x0020a2c8:    f607b919    ....    B        System_WakeUpPinEnable ; 0x114fe
    gpio_button_enter_dlps_config
;;;52     }
;;;53     
;;;54     /**
;;;55     * @brief   gpio button pad enter dlps config
;;;56     * @return  void
;;;57     */
;;;58     void gpio_button_enter_dlps_config(void)
;;;59     {
        0x0020a2cc:    b51c        ..      PUSH     {r2-r4,lr}
;;;60         Pad_Config(PAIR_BUTTON, PAD_SW_MODE, PAD_IS_PWRON, PAD_PULL_UP, PAD_OUT_DISABLE, PAD_OUT_LOW);
        0x0020a2ce:    2000        .       MOVS     r0,#0
        0x0020a2d0:    9000        ..      STR      r0,[sp,#0]
        0x0020a2d2:    2301        .#      MOVS     r3,#1
        0x0020a2d4:    4601        .F      MOV      r1,r0
        0x0020a2d6:    9001        ..      STR      r0,[sp,#4]
        0x0020a2d8:    461a        .F      MOV      r2,r3
        0x0020a2da:    2014        .       MOVS     r0,#0x14
        0x0020a2dc:    f607f87e    ..~.    BL       Pad_Config ; 0x113dc
;;;61     }
        0x0020a2e0:    bd1c        ..      POP      {r2-r4,pc}
    gpio_button_exit_dlps_config
;;;62     
;;;63     /**
;;;64     * @brief   gpio button pad exit dlps config
;;;65     * @return  void
;;;66     */
;;;67     void gpio_button_exit_dlps_config(void)
;;;68     {
        0x0020a2e2:    b51c        ..      PUSH     {r2-r4,lr}
;;;69         Pad_Config(PAIR_BUTTON, PAD_PINMUX_MODE, PAD_IS_PWRON, PAD_PULL_UP, PAD_OUT_DISABLE, PAD_OUT_LOW);
        0x0020a2e4:    2000        .       MOVS     r0,#0
        0x0020a2e6:    2301        .#      MOVS     r3,#1
        0x0020a2e8:    9000        ..      STR      r0,[sp,#0]
        0x0020a2ea:    9001        ..      STR      r0,[sp,#4]
        0x0020a2ec:    461a        .F      MOV      r2,r3
        0x0020a2ee:    4619        .F      MOV      r1,r3
        0x0020a2f0:    2014        .       MOVS     r0,#0x14
        0x0020a2f2:    f607f873    ..s.    BL       Pad_Config ; 0x113dc
;;;70     }
        0x0020a2f6:    bd1c        ..      POP      {r2-r4,pc}
    keyboard_button_init
;;;71     
;;;72     /**
;;;73     * @brief  keyboard button initialization function.
;;;74     * @param   GPIO_INT_PARAM.
;;;75     * @return  void
;;;76     */
;;;77     void keyboard_button_init(void)
;;;78     {
        0x0020a2f8:    b510        ..      PUSH     {r4,lr}
        0x0020a2fa:    b088        ..      SUB      sp,sp,#0x20
;;;79         /* Enable GPIO and hardware timer's clock */
;;;80         RCC_PeriphClockCmd(APBPeriph_GPIO,  APBPeriph_GPIO_CLOCK,  ENABLE);
        0x0020a2fc:    2201        ."      MOVS     r2,#1
        0x0020a2fe:    f04f5104    O..Q    MOV      r1,#0x21000000
        0x0020a302:    4889        .H      LDR      r0,[pc,#548] ; [0x20a528] = 0xc000100
        0x0020a304:    f7fefb46    ..F.    BL       RCC_PeriphClockCmd ; 0x208994
;;;81     
;;;82         /* Initialize GPIO as interrupt mode */
;;;83         GPIO_InitTypeDef GPIO_Param;
;;;84         GPIO_StructInit(&GPIO_Param);
        0x0020a308:    4668        hF      MOV      r0,sp
        0x0020a30a:    f7fefd52    ..R.    BL       GPIO_StructInit ; 0x208db2
;;;85         GPIO_Param.GPIO_Pin = GPIO_GetPin(PAIR_BUTTON);
        0x0020a30e:    2014        .       MOVS     r0,#0x14
        0x0020a310:    f7fefd71    ..q.    BL       GPIO_GetPin ; 0x208df6
;;;86         GPIO_Param.GPIO_Mode = GPIO_Mode_IN;
        0x0020a314:    9000        ..      STR      r0,[sp,#0]
        0x0020a316:    2000        .       MOVS     r0,#0
        0x0020a318:    2401        .$      MOVS     r4,#1
        0x0020a31a:    f88d0004    ....    STRB     r0,[sp,#4]
;;;87         GPIO_Param.GPIO_ITCmd = ENABLE;
        0x0020a31e:    f88d4005    ...@    STRB     r4,[sp,#5]
;;;88         GPIO_Param.GPIO_ITTrigger = GPIO_INT_Trigger_EDGE;
        0x0020a322:    f88d4006    ...@    STRB     r4,[sp,#6]
;;;89         GPIO_Param.GPIO_ITPolarity = GPIO_INT_POLARITY_ACTIVE_LOW;
        0x0020a326:    f88d0007    ....    STRB     r0,[sp,#7]
        0x0020a32a:    2014        .       MOVS     r0,#0x14
        0x0020a32c:    9003        ..      STR      r0,[sp,#0xc]
;;;90         GPIO_Param.GPIO_ITDebounce = GPIO_INT_DEBOUNCE_ENABLE;
        0x0020a32e:    f88d4008    ...@    STRB     r4,[sp,#8]
;;;91         GPIO_Param.GPIO_DebounceTime = 20;
;;;92         GPIO_Init(&GPIO_Param);
        0x0020a332:    4668        hF      MOV      r0,sp
        0x0020a334:    f7fefcde    ....    BL       GPIO_Init ; 0x208cf4
;;;93     
;;;94         /* Enable interrupt */
;;;95         GPIO_INTConfig(GPIO_GetPin(PAIR_BUTTON), ENABLE);
        0x0020a338:    2014        .       MOVS     r0,#0x14
        0x0020a33a:    f7fefd5c    ..\.    BL       GPIO_GetPin ; 0x208df6
        0x0020a33e:    2101        .!      MOVS     r1,#1
        0x0020a340:    f7fefd44    ..D.    BL       GPIO_INTConfig ; 0x208dcc
;;;96         GPIO_MaskINTConfig(GPIO_GetPin(PAIR_BUTTON), DISABLE);
        0x0020a344:    2014        .       MOVS     r0,#0x14
        0x0020a346:    f7fefd56    ..V.    BL       GPIO_GetPin ; 0x208df6
        0x0020a34a:    2100        .!      MOVS     r1,#0
        0x0020a34c:    f7fefd4a    ..J.    BL       GPIO_MaskINTConfig ; 0x208de4
;;;97     
;;;98         NVIC_InitTypeDef NVIC_InitStruct;
;;;99         NVIC_InitStruct.NVIC_IRQChannel = GPIO20_IRQn;
        0x0020a350:    201e        .       MOVS     r0,#0x1e
        0x0020a352:    f88d0010    ....    STRB     r0,[sp,#0x10]
;;;100        NVIC_InitStruct.NVIC_IRQChannelPriority = 3;
        0x0020a356:    2003        .       MOVS     r0,#3
;;;101        NVIC_InitStruct.NVIC_IRQChannelCmd = ENABLE;
        0x0020a358:    9005        ..      STR      r0,[sp,#0x14]
        0x0020a35a:    f88d4018    ...@    STRB     r4,[sp,#0x18]
;;;102        NVIC_Init(&NVIC_InitStruct);
        0x0020a35e:    a804        ..      ADD      r0,sp,#0x10
        0x0020a360:    f606ffae    ....    BL       NVIC_Init ; 0x112c0
;;;103    }
        0x0020a364:    b008        ..      ADD      sp,sp,#0x20
        0x0020a366:    bd10        ..      POP      {r4,pc}
    longpress_timeout
;;;104    
;;;105    /**
;;;106    * @brief   longpress timeout callback
;;;107    * @return  void
;;;108    */
;;;109    void longpress_timeout(void *pxTimer)
;;;110    {
        0x0020a368:    b570        p.      PUSH     {r4-r6,lr}
;;;111        APP_PRINT_INFO0("Pair button longpress !!!");
        0x0020a36a:    2200        ."      MOVS     r2,#0
        0x0020a36c:    496f        oI      LDR      r1,[pc,#444] ; [0x20a52c] = 0x8801280
        0x0020a36e:    4870        pH      LDR      r0,[pc,#448] ; [0x20a530] = 0x21103002
        0x0020a370:    f5fdfb75    ..u.    BL       log_buffer ; 0x7a5e
;;;112    
;;;113        //if linkkey exist, clear key and start adv in the app gap callback
;;;114        if (resolv_list_exist)
        0x0020a374:    486f        oH      LDR      r0,[pc,#444] ; [0x20a534] = 0x20bc84
        0x0020a376:    4d70        pM      LDR      r5,[pc,#448] ; [0x20a538] = 0x20bcc4
        0x0020a378:    4970        pI      LDR      r1,[pc,#448] ; [0x20a53c] = 0x20bc80
        0x0020a37a:    7800        .x      LDRB     r0,[r0,#0]
        0x0020a37c:    2401        .$      MOVS     r4,#1
        0x0020a37e:    b1a8        ..      CBZ      r0,0x20a3ac ; longpress_timeout + 68
;;;115        {
;;;116            //when adv is enabled & resolution is enabled, could not use stop resolution cmd
;;;117            if (app_privacy_resolution_state == LE_PRIVACY_RESOLUTION_ENABLED && \
        0x0020a380:    486f        oH      LDR      r0,[pc,#444] ; [0x20a540] = 0x20bcd9
        0x0020a382:    7800        .x      LDRB     r0,[r0,#0]
        0x0020a384:    2803        .(      CMP      r0,#3
        0x0020a386:    d005        ..      BEQ      0x20a394 ; longpress_timeout + 44
        0x0020a388:    2800        .(      CMP      r0,#0
        0x0020a38a:    d119        ..      BNE      0x20a3c0 ; longpress_timeout + 88
        0x0020a38c:    e8bd4070    ..p@    POP      {r4-r6,lr}
        0x0020a390:    f641bede    A...    B        le_bond_clear_all_keys ; 0x4c150
;;;118                gap_dev_state.gap_adv_state == GAP_ADV_STATE_ADVERTISING)
        0x0020a394:    7808        .x      LDRB     r0,[r1,#0]
        0x0020a396:    f3c00081    ....    UBFX     r0,r0,#2,#2
        0x0020a39a:    2802        .(      CMP      r0,#2
        0x0020a39c:    d003        ..      BEQ      0x20a3a6 ; longpress_timeout + 62
        0x0020a39e:    2000        .       MOVS     r0,#0
        0x0020a3a0:    f647fc29    G.).    BL       le_privacy_set_addr_resolution ; 0x51bf6
        0x0020a3a4:    e7f2        ..      B        0x20a38c ; longpress_timeout + 36
;;;119            {
;;;120                le_adv_stop();
        0x0020a3a6:    f647fef0    G...    BL       le_adv_stop ; 0x5218a
;;;121                start_pair_adv = true;
        0x0020a3aa:    e008        ..      B        0x20a3be ; longpress_timeout + 86
;;;122            }
;;;123            else if (app_privacy_resolution_state == LE_PRIVACY_RESOLUTION_ENABLED)
;;;124            {
;;;125                le_privacy_set_addr_resolution(false);
;;;126                le_bond_clear_all_keys();//maybe move this to privacy_handle_le_privacy_resolution_status_info
;;;127            }
;;;128            else if (app_privacy_resolution_state == LE_PRIVACY_RESOLUTION_DISABLED)
;;;129            {
;;;130                le_bond_clear_all_keys();
;;;131            }
;;;132        }
;;;133        else
;;;134        {
;;;135            if (gap_conn_state == GAP_CONN_STATE_DISCONNECTED)
        0x0020a3ac:    4865        eH      LDR      r0,[pc,#404] ; [0x20a544] = 0x20bc81
        0x0020a3ae:    7800        .x      LDRB     r0,[r0,#0]
        0x0020a3b0:    b138        8.      CBZ      r0,0x20a3c2 ; longpress_timeout + 90
        0x0020a3b2:    2802        .(      CMP      r0,#2
        0x0020a3b4:    d104        ..      BNE      0x20a3c0 ; longpress_timeout + 88
        0x0020a3b6:    4864        dH      LDR      r0,[pc,#400] ; [0x20a548] = 0x20bc88
        0x0020a3b8:    7800        .x      LDRB     r0,[r0,#0]
        0x0020a3ba:    f643fc33    C.3.    BL       le_disconnect ; 0x4dc24
        0x0020a3be:    702c        ,p      STRB     r4,[r5,#0]
        0x0020a3c0:    bd70        p.      POP      {r4-r6,pc}
;;;136            {
;;;137                if (gap_dev_state.gap_adv_state == GAP_ADV_STATE_IDLE)
        0x0020a3c2:    7808        .x      LDRB     r0,[r1,#0]
        0x0020a3c4:    f0100f0c    ....    TST      r0,#0xc
        0x0020a3c8:    d007        ..      BEQ      0x20a3da ; longpress_timeout + 114
        0x0020a3ca:    f3c00081    ....    UBFX     r0,r0,#2,#2
        0x0020a3ce:    2802        .(      CMP      r0,#2
        0x0020a3d0:    d1f6        ..      BNE      0x20a3c0 ; longpress_timeout + 88
        0x0020a3d2:    e8bd4070    ..p@    POP      {r4-r6,lr}
        0x0020a3d6:    f000b945    ..E.    B.W      reset_adv_count ; 0x20a664
;;;138                {
;;;139                    keyboard_start_adv(ADV_UNDIRECT_PAIRING);
        0x0020a3da:    2002        .       MOVS     r0,#2
        0x0020a3dc:    f000f98a    ....    BL       keyboard_start_adv ; 0x20a6f4
;;;140                    start_adv_led_timer(false);
        0x0020a3e0:    e8bd4070    ..p@    POP      {r4-r6,lr}
        0x0020a3e4:    2000        .       MOVS     r0,#0
        0x0020a3e6:    f000b90f    ....    B.W      start_adv_led_timer ; 0x20a608
    longpress_timer_init
;;;141                }
;;;142                else if (gap_dev_state.gap_adv_state == GAP_ADV_STATE_ADVERTISING)
;;;143                {
;;;144                    reset_adv_count();
;;;145                }
;;;146            }
;;;147            else if (gap_conn_state == GAP_CONN_STATE_CONNECTED)
;;;148            {
;;;149                le_disconnect(keyboard_con_id);
;;;150                start_pair_adv = true;
;;;151            }
;;;152        }
;;;153    
;;;154    }
;;;155    
;;;156    /**
;;;157    * @brief   longpress timer init
;;;158    * @return  void
;;;159    */
;;;160    void longpress_timer_init(void)
;;;161    {
        0x0020a3ea:    b51c        ..      PUSH     {r2-r4,lr}
;;;162        os_timer_create(&longpress_timer, "long press timer", 1, 3000, false, longpress_timeout);
        0x0020a3ec:    f2af0187    ....    ADR      r1,{pc}-0x83 ; 0x20a369
        0x0020a3f0:    2000        .       MOVS     r0,#0
        0x0020a3f2:    e9cd0100    ....    STRD     r0,r1,[sp,#0]
        0x0020a3f6:    4850        PH      LDR      r0,[pc,#320] ; [0x20a538] = 0x20bcc4
        0x0020a3f8:    f64033b8    @..3    MOV      r3,#0xbb8
        0x0020a3fc:    2201        ."      MOVS     r2,#1
        0x0020a3fe:    a153        S.      ADR      r1,{pc}+0x14e ; 0x20a54c
        0x0020a400:    1d00        ..      ADDS     r0,r0,#4
        0x0020a402:    f61cfbe8    ....    BL       os_timer_create ; 0x26bd6
;;;163    }
        0x0020a406:    bd1c        ..      POP      {r2-r4,pc}
    stop_longpress_timer
;;;164    
;;;165    /**
;;;166    * @brief   stop longpress timer
;;;167    * @return  void
;;;168    */
;;;169    void stop_longpress_timer(void)
;;;170    {
;;;171        if (longpress_timer != NULL)
        0x0020a408:    484b        KH      LDR      r0,[pc,#300] ; [0x20a538] = 0x20bcc4
        0x0020a40a:    6840        @h      LDR      r0,[r0,#4]
;;; ..\..\..\src\app\keyboard\keyboard_button.c (170)
        0x0020a40c:    2800        .(      CMP      r0,#0
        0x0020a40e:    d003        ..      BEQ      0x20a418 ; stop_longpress_timer + 16
;;;171        if (longpress_timer != NULL)
;;;172        {
;;;173            os_timer_stop(&longpress_timer);
        0x0020a410:    4849        IH      LDR      r0,[pc,#292] ; [0x20a538] = 0x20bcc4
        0x0020a412:    1d00        ..      ADDS     r0,r0,#4
        0x0020a414:    f61cbc26    ..&.    B        os_timer_stop ; 0x26c64
;;;174        }
;;;175    }
        0x0020a418:    4770        pG      BX       lr
    start_longpress_timer
        0x0020a41a:    4847        GH      LDR      r0,[pc,#284] ; [0x20a538] = 0x20bcc4
        0x0020a41c:    6840        @h      LDR      r0,[r0,#4]
;;;176    
;;;177    /**
;;;178    * @brief   stop longpress timer
;;;179    * @return  void
;;;180    */
;;;181    void start_longpress_timer(void)
;;;182    {
        0x0020a41e:    2800        .(      CMP      r0,#0
        0x0020a420:    d003        ..      BEQ      0x20a42a ; start_longpress_timer + 16
;;;183        if (longpress_timer != NULL)
;;;184        {
;;;185            os_timer_start(&longpress_timer);
        0x0020a422:    4845        EH      LDR      r0,[pc,#276] ; [0x20a538] = 0x20bcc4
        0x0020a424:    1d00        ..      ADDS     r0,r0,#4
        0x0020a426:    f61cbbf9    ....    B        os_timer_start ; 0x26c1c
;;;186        }
;;;187    }
        0x0020a42a:    4770        pG      BX       lr
    GPIO20_Handler
;;;188    
;;;189    /**
;;;190    * @brief   Pair button interrupt handler
;;;191    * @return  void
;;;192    */
;;;193    void GPIO20_Handler(void)
;;;194    {
        0x0020a42c:    b57c        |.      PUSH     {r2-r6,lr}
;;;195        /*  Mask GPIO interrupt */
;;;196        GPIO_INTConfig(GPIO_GetPin(PAIR_BUTTON), DISABLE);
        0x0020a42e:    2014        .       MOVS     r0,#0x14
        0x0020a430:    f7fefce1    ....    BL       GPIO_GetPin ; 0x208df6
        0x0020a434:    2100        .!      MOVS     r1,#0
        0x0020a436:    f7fefcc9    ....    BL       GPIO_INTConfig ; 0x208dcc
;;;197        GPIO_MaskINTConfig(GPIO_GetPin(PAIR_BUTTON), ENABLE);
        0x0020a43a:    2014        .       MOVS     r0,#0x14
        0x0020a43c:    f7fefcdb    ....    BL       GPIO_GetPin ; 0x208df6
        0x0020a440:    2101        .!      MOVS     r1,#1
        0x0020a442:    f7fefccf    ....    BL       GPIO_MaskINTConfig ; 0x208de4
;;;198        GPIO_ClearINTPendingBit(GPIO_GetPin(PAIR_BUTTON));
        0x0020a446:    2014        .       MOVS     r0,#0x14
        0x0020a448:    f7fefcd5    ....    BL       GPIO_GetPin ; 0x208df6
        0x0020a44c:    f7fefcc7    ....    BL       GPIO_ClearINTPendingBit ; 0x208dde
;;;199    
;;;200        T_IO_MSG button_msg;
;;;201        button_msg.type = IO_MSG_TYPE_GPIO;
        0x0020a450:    200b        .       MOVS     r0,#0xb
        0x0020a452:    f8ad0000    ....    STRH     r0,[sp,#0]
;;;202    
;;;203        if (GPIO_ReadInputDataBit(GPIO_GetPin(PAIR_BUTTON))) //Release
        0x0020a456:    2014        .       MOVS     r0,#0x14
        0x0020a458:    f7fefccd    ....    BL       GPIO_GetPin ; 0x208df6
        0x0020a45c:    f000f85c    ..\.    BL       GPIO_ReadInputDataBit ; 0x20a518
        0x0020a460:    0001        ..      MOVS     r1,r0
        0x0020a462:    4b35        5K      LDR      r3,[pc,#212] ; [0x20a538] = 0x20bcc4
        0x0020a464:    4c3e        >L      LDR      r4,[pc,#248] ; [0x20a560] = 0x40001000
        0x0020a466:    4d32        2M      LDR      r5,[pc,#200] ; [0x20a530] = 0x21103002
        0x0020a468:    f04f0000    O...    MOV      r0,#0
        0x0020a46c:    f04f0201    O...    MOV      r2,#1
        0x0020a470:    d011        ..      BEQ      0x20a496 ; GPIO20_Handler + 106
;;;204        {
;;;205            pair_press = false;
        0x0020a472:    7058        Xp      STRB     r0,[r3,#1]
;;;206            button_msg.subtype = KEYBOARD_PAIR_RELEASE;
        0x0020a474:    f8ad2002    ...     STRH     r2,[sp,#2]
;;;207            GPIO->INTPOLARITY &= ~GPIO_GetPin(PAIR_BUTTON); //Polarity Low
        0x0020a478:    2014        .       MOVS     r0,#0x14
        0x0020a47a:    f7fefcbc    ....    BL       GPIO_GetPin ; 0x208df6
        0x0020a47e:    6be1        .k      LDR      r1,[r4,#0x3c]
        0x0020a480:    4381        .C      BICS     r1,r1,r0
        0x0020a482:    63e1        .c      STR      r1,[r4,#0x3c]
;;;208            System_WakeUpPinEnable(PAIR_BUTTON, PAD_WAKEUP_POL_LOW, PAD_WK_DEBOUNCE_ENABLE);
        0x0020a484:    2201        ."      MOVS     r2,#1
        0x0020a486:    4611        .F      MOV      r1,r2
        0x0020a488:    2014        .       MOVS     r0,#0x14
        0x0020a48a:    f607f838    ..8.    BL       System_WakeUpPinEnable ; 0x114fe
;;;209            APP_PRINT_INFO0("Pair button release !!!");
        0x0020a48e:    4927        'I      LDR      r1,[pc,#156] ; [0x20a52c] = 0x8801280
        0x0020a490:    2200        ."      MOVS     r2,#0
        0x0020a492:    3120         1      ADDS     r1,r1,#0x20
        0x0020a494:    e010        ..      B        0x20a4b8 ; GPIO20_Handler + 140
;;;210        }
;;;211        else
;;;212        {
;;;213            pair_press = true;
        0x0020a496:    705a        Zp      STRB     r2,[r3,#1]
;;;214            button_msg.subtype = KEYBOARD_PAIR_PRESS;
        0x0020a498:    f8ad0002    ....    STRH     r0,[sp,#2]
;;;215            GPIO->INTPOLARITY |= GPIO_GetPin(PAIR_BUTTON);   //Polarity High
        0x0020a49c:    2014        .       MOVS     r0,#0x14
        0x0020a49e:    f7fefcaa    ....    BL       GPIO_GetPin ; 0x208df6
        0x0020a4a2:    6be1        .k      LDR      r1,[r4,#0x3c]
        0x0020a4a4:    4308        .C      ORRS     r0,r0,r1
        0x0020a4a6:    63e0        .c      STR      r0,[r4,#0x3c]
;;;216            System_WakeUpPinEnable(PAIR_BUTTON, PAD_WAKEUP_POL_HIGH, PAD_WK_DEBOUNCE_ENABLE);
        0x0020a4a8:    2201        ."      MOVS     r2,#1
        0x0020a4aa:    2100        .!      MOVS     r1,#0
        0x0020a4ac:    2014        .       MOVS     r0,#0x14
        0x0020a4ae:    f607f826    ..&.    BL       System_WakeUpPinEnable ; 0x114fe
;;;217            APP_PRINT_INFO0("Pair button press !!!");
        0x0020a4b2:    491e        .I      LDR      r1,[pc,#120] ; [0x20a52c] = 0x8801280
        0x0020a4b4:    2200        ."      MOVS     r2,#0
        0x0020a4b6:    313c        <1      ADDS     r1,r1,#0x3c
        0x0020a4b8:    4628        (F      MOV      r0,r5
        0x0020a4ba:    f5fdfad0    ....    BL       log_buffer ; 0x7a5e
;;;218        }
;;;219    
;;;220    
;;;221        app_send_msg_to_apptask(&button_msg);
        0x0020a4be:    4668        hF      MOV      r0,sp
        0x0020a4c0:    f7feff41    ..A.    BL       app_send_msg_to_apptask ; 0x209346
;;;222    
;;;223        GPIO_MaskINTConfig(GPIO_GetPin(PAIR_BUTTON), DISABLE);
        0x0020a4c4:    2014        .       MOVS     r0,#0x14
        0x0020a4c6:    f7fefc96    ....    BL       GPIO_GetPin ; 0x208df6
        0x0020a4ca:    2100        .!      MOVS     r1,#0
        0x0020a4cc:    f7fefc8a    ....    BL       GPIO_MaskINTConfig ; 0x208de4
;;;224        GPIO_INTConfig(GPIO_GetPin(PAIR_BUTTON), ENABLE);
        0x0020a4d0:    2014        .       MOVS     r0,#0x14
        0x0020a4d2:    f7fefc90    ....    BL       GPIO_GetPin ; 0x208df6
        0x0020a4d6:    2101        .!      MOVS     r1,#1
        0x0020a4d8:    f7fefc78    ..x.    BL       GPIO_INTConfig ; 0x208dcc
;;;225    
;;;226    }
        0x0020a4dc:    bd7c        |.      POP      {r2-r6,pc}
    handle_pair_button_event
;;;227    
;;;228    /**
;;;229    * @brief   Pair button event handler
;;;230    * @return  void
;;;231    */
;;;232    void handle_pair_button_event(T_IO_MSG button_msg)
;;;233    {
        0x0020a4de:    0c00        ..      LSRS     r0,r0,#16
        0x0020a4e0:    d002        ..      BEQ      0x20a4e8 ; handle_pair_button_event + 10
        0x0020a4e2:    2801        .(      CMP      r0,#1
        0x0020a4e4:    d101        ..      BNE      0x20a4ea ; handle_pair_button_event + 12
        0x0020a4e6:    e78f        ..      B        stop_longpress_timer ; 0x20a408
;;;234        if (button_msg.subtype == KEYBOARD_PAIR_PRESS)
;;;235        {
;;;236            start_longpress_timer();
        0x0020a4e8:    e797        ..      B        start_longpress_timer ; 0x20a41a
;;;237        }
;;;238        else if (button_msg.subtype == KEYBOARD_PAIR_RELEASE)
;;;239        {
;;;240            stop_longpress_timer();
;;;241        }
;;;242    }
        0x0020a4ea:    4770        pG      BX       lr
    handle_pair_button_wakeup
;;;243    
;;;244    /**
;;;245    * @brief   Pair button wakeup handler
;;;246    * @return  void
;;;247    */
;;;248    void handle_pair_button_wakeup(void)
;;;249    {
        0x0020a4ec:    b510        ..      PUSH     {r4,lr}
;;;250        if (GPIO_ReadInputDataBit(GPIO_GetPin(PAIR_BUTTON)) && pair_press)
        0x0020a4ee:    2014        .       MOVS     r0,#0x14
        0x0020a4f0:    f7fefc81    ....    BL       GPIO_GetPin ; 0x208df6
        0x0020a4f4:    f000f810    ....    BL       GPIO_ReadInputDataBit ; 0x20a518
        0x0020a4f8:    4c0f        .L      LDR      r4,[pc,#60] ; [0x20a538] = 0x20bcc4
        0x0020a4fa:    b108        ..      CBZ      r0,0x20a500 ; handle_pair_button_wakeup + 20
        0x0020a4fc:    7860        `x      LDRB     r0,[r4,#1]
        0x0020a4fe:    b938        8.      CBNZ     r0,0x20a510 ; handle_pair_button_wakeup + 36
;;;251        {
;;;252            GPIO20_Handler();
;;;253        }
;;;254        else if (GPIO_ReadInputDataBit(GPIO_GetPin(PAIR_BUTTON)) == false && pair_press == false)
        0x0020a500:    2014        .       MOVS     r0,#0x14
        0x0020a502:    f7fefc78    ..x.    BL       GPIO_GetPin ; 0x208df6
        0x0020a506:    f000f807    ....    BL       GPIO_ReadInputDataBit ; 0x20a518
        0x0020a50a:    7861        ax      LDRB     r1,[r4,#1]
        0x0020a50c:    4308        .C      ORRS     r0,r0,r1
        0x0020a50e:    d102        ..      BNE      0x20a516 ; handle_pair_button_wakeup + 42
;;;255        {
;;;256            GPIO20_Handler();
        0x0020a510:    e8bd4010    ...@    POP      {r4,lr}
        0x0020a514:    e78a        ..      B        GPIO20_Handler ; 0x20a42c
;;;257        }
;;;258    }
        0x0020a516:    bd10        ..      POP      {r4,pc}
    GPIO_ReadInputDataBit
;;; ..\..\..\inc\peripheral\rtl876x_gpio.h
;;;391        if (GPIO->DATAIN & GPIO_Pin)
        0x0020a518:    4a11        .J      LDR      r2,[pc,#68] ; [0x20a560] = 0x40001000
;;; ..\..\..\inc\peripheral\rtl876x_gpio.h (385)
        0x0020a51a:    4601        .F      MOV      r1,r0
        0x0020a51c:    2000        .       MOVS     r0,#0
        0x0020a51e:    6d12        .m      LDR      r2,[r2,#0x50]
        0x0020a520:    420a        .B      TST      r2,r1
        0x0020a522:    d000        ..      BEQ      0x20a526 ; GPIO_ReadInputDataBit + 14
;;;386        uint8_t bitstatus = RESET;
;;;387    
;;;388        /* Check the parameters */
;;;389        assert_param(IS_GET_GPIO_PIN(GPIO_Pin));
;;;390    
;;;391        if (GPIO->DATAIN & GPIO_Pin)
;;;392        {
;;;393            bitstatus = (uint8_t)SET;
        0x0020a524:    2001        .       MOVS     r0,#1
;;;394        }
;;;395    
;;;396        return bitstatus;
;;;397    }
        0x0020a526:    4770        pG      BX       lr
    $d
        0x0020a528:    0c000100    ....    DCD    201326848
        0x0020a52c:    08801280    ....    DCD    142611072
        0x0020a530:    21103002    .0.!    DCD    554708994
        0x0020a534:    0020bc84    .. .    DCD    2145412
        0x0020a538:    0020bcc4    .. .    DCD    2145476
        0x0020a53c:    0020bc80    .. .    DCD    2145408
        0x0020a540:    0020bcd9    .. .    DCD    2145497
        0x0020a544:    0020bc81    .. .    DCD    2145409
        0x0020a548:    0020bc88    .. .    DCD    2145416
        0x0020a54c:    676e6f6c    long    DCD    1735290732
        0x0020a550:    65727020     pre    DCD    1701998624
        0x0020a554:    74207373    ss t    DCD    1948283763
        0x0020a558:    72656d69    imer    DCD    1919249769
        0x0020a55c:    00000000    ....    DCD    0
        0x0020a560:    40001000    ...@    DCD    1073745920
    $t
    .text
    adv_led_timeout
;;; ..\..\..\src\app\keyboard\keyboard_led.c
;;;33     {
        0x0020a564:    b51c        ..      PUSH     {r2-r4,lr}
        0x0020a566:    4a5c        \J      LDR      r2,[pc,#368] ; [0x20a6d8] = 0x20bccc
        0x0020a568:    4c5c        \L      LDR      r4,[pc,#368] ; [0x20a6dc] = 0x21103002
        0x0020a56a:    7850        Px      LDRB     r0,[r2,#1]
;;; ..\..\..\src\app\keyboard\keyboard_led.c (33)
        0x0020a56c:    b120         .      CBZ      r0,0x20a578 ; adv_led_timeout + 20
;;;34         if (adv_reconnect)
;;;35         {
;;;36             le_adv_stop();
        0x0020a56e:    f647fe0c    G...    BL       le_adv_stop ; 0x5218a
;;;37             APP_PRINT_INFO0("ADV timeout, stop  reconnect ADV");
        0x0020a572:    2200        ."      MOVS     r2,#0
        0x0020a574:    495a        ZI      LDR      r1,[pc,#360] ; [0x20a6e0] = 0x88012d8
        0x0020a576:    e032        2.      B        0x20a5de ; adv_led_timeout + 122
;;;38         }
;;;39         else
;;;40         {
;;;41             if (adv_count < 30)
        0x0020a578:    7891        .x      LDRB     r1,[r2,#2]
        0x0020a57a:    2000        .       MOVS     r0,#0
        0x0020a57c:    2301        .#      MOVS     r3,#1
        0x0020a57e:    291e        .)      CMP      r1,#0x1e
        0x0020a580:    d21f        ..      BCS      0x20a5c2 ; adv_led_timeout + 94
;;;42             {
;;;43                 if (adv_led_on)
        0x0020a582:    7814        .x      LDRB     r4,[r2,#0]
        0x0020a584:    b15c        \.      CBZ      r4,0x20a59e ; adv_led_timeout + 58
;;;44                 {
;;;45                     adv_led_on = false;
        0x0020a586:    7010        .p      STRB     r0,[r2,#0]
        0x0020a588:    e9cd3000    ...0    STRD     r3,r0,[sp,#0]
;;;46                     Pad_Config(ADV_LED, PAD_SW_MODE, PAD_IS_PWRON, PAD_PULL_DOWN, PAD_OUT_ENABLE, PAD_OUT_LOW);
        0x0020a58c:    2302        .#      MOVS     r3,#2
        0x0020a58e:    2201        ."      MOVS     r2,#1
        0x0020a590:    2100        .!      MOVS     r1,#0
        0x0020a592:    2013        .       MOVS     r0,#0x13
        0x0020a594:    f606ff22    ..".    BL       Pad_Config ; 0x113dc
;;;47                     os_timer_restart(&adv_led_timer, 900);
        0x0020a598:    f44f7161    O.aq    MOV      r1,#0x384
        0x0020a59c:    e00b        ..      B        0x20a5b6 ; adv_led_timeout + 82
        0x0020a59e:    1c49        I.      ADDS     r1,r1,#1
;;;48                 }
;;;49                 else
;;;50                 {
;;;51                     adv_count++;
        0x0020a5a0:    7091        .p      STRB     r1,[r2,#2]
;;;52                     adv_led_on = true;
        0x0020a5a2:    7013        .p      STRB     r3,[r2,#0]
;;;53                     Pad_Config(ADV_LED, PAD_SW_MODE, PAD_IS_PWRON, PAD_PULL_UP, PAD_OUT_ENABLE, PAD_OUT_HIGH);
        0x0020a5a4:    9300        ..      STR      r3,[sp,#0]
        0x0020a5a6:    9301        ..      STR      r3,[sp,#4]
        0x0020a5a8:    2301        .#      MOVS     r3,#1
        0x0020a5aa:    461a        .F      MOV      r2,r3
        0x0020a5ac:    2100        .!      MOVS     r1,#0
        0x0020a5ae:    2013        .       MOVS     r0,#0x13
        0x0020a5b0:    f606ff14    ....    BL       Pad_Config ; 0x113dc
;;;54                     os_timer_restart(&adv_led_timer, 100);
        0x0020a5b4:    2164        d!      MOVS     r1,#0x64
        0x0020a5b6:    e8bd401c    ...@    POP      {r2-r4,lr}
        0x0020a5ba:    4847        GH      LDR      r0,[pc,#284] ; [0x20a6d8] = 0x20bccc
        0x0020a5bc:    1d00        ..      ADDS     r0,r0,#4
        0x0020a5be:    f61cbb3e    ..>.    B        os_timer_restart ; 0x26c3e
;;;55                 }
;;;56             }
;;;57             else
;;;58             {
;;;59                 adv_led_on = false;
        0x0020a5c2:    7010        .p      STRB     r0,[r2,#0]
        0x0020a5c4:    e9cd3000    ...0    STRD     r3,r0,[sp,#0]
;;;60                 Pad_Config(ADV_LED, PAD_SW_MODE, PAD_IS_PWRON, PAD_PULL_DOWN, PAD_OUT_ENABLE, PAD_OUT_LOW);
        0x0020a5c8:    2302        .#      MOVS     r3,#2
        0x0020a5ca:    2201        ."      MOVS     r2,#1
        0x0020a5cc:    2100        .!      MOVS     r1,#0
        0x0020a5ce:    2013        .       MOVS     r0,#0x13
        0x0020a5d0:    f606ff04    ....    BL       Pad_Config ; 0x113dc
;;;61                 le_adv_stop();
        0x0020a5d4:    f647fdd9    G...    BL       le_adv_stop ; 0x5218a
;;;62                 APP_PRINT_INFO0("ADV timeout, stop pair ADV");
        0x0020a5d8:    4941        AI      LDR      r1,[pc,#260] ; [0x20a6e0] = 0x88012d8
        0x0020a5da:    2200        ."      MOVS     r2,#0
        0x0020a5dc:    3124        $1      ADDS     r1,r1,#0x24
        0x0020a5de:    b002        ..      ADD      sp,sp,#8
        0x0020a5e0:    4620         F      MOV      r0,r4
        0x0020a5e2:    e8bd4010    ...@    POP      {r4,lr}
        0x0020a5e6:    f5fdba3a    ..:.    B        log_buffer ; 0x7a5e
    adv_led_timer_init
;;;63             }
;;;64         }
;;;65     }
;;;66     
;;;67     /**
;;;68     * @brief  create adv led timer
;;;69     * @return  void
;;;70     */
;;;71     void adv_led_timer_init(void)
;;;72     {
        0x0020a5ea:    b51c        ..      PUSH     {r2-r4,lr}
;;;73         os_timer_create(&adv_led_timer, "adv led timer", 1, 3000, false, adv_led_timeout);
        0x0020a5ec:    f2af018b    ....    ADR      r1,{pc}-0x87 ; 0x20a565
        0x0020a5f0:    2000        .       MOVS     r0,#0
        0x0020a5f2:    e9cd0100    ....    STRD     r0,r1,[sp,#0]
        0x0020a5f6:    4838        8H      LDR      r0,[pc,#224] ; [0x20a6d8] = 0x20bccc
        0x0020a5f8:    f64033b8    @..3    MOV      r3,#0xbb8
        0x0020a5fc:    2201        ."      MOVS     r2,#1
        0x0020a5fe:    a139        9.      ADR      r1,{pc}+0xe6 ; 0x20a6e4
        0x0020a600:    1d00        ..      ADDS     r0,r0,#4
        0x0020a602:    f61cfae8    ....    BL       os_timer_create ; 0x26bd6
;;;74     }
        0x0020a606:    bd1c        ..      POP      {r2-r4,pc}
    start_adv_led_timer
;;;75     
;;;76     /**
;;;77     * @brief  start adv led timer
;;;78     * @return  void
;;;79     */
;;;80     void start_adv_led_timer(bool reconnect)
;;;81     {
        0x0020a608:    b51c        ..      PUSH     {r2-r4,lr}
        0x0020a60a:    4933        3I      LDR      r1,[pc,#204] ; [0x20a6d8] = 0x20bccc
        0x0020a60c:    7048        Hp      STRB     r0,[r1,#1]
;;; ..\..\..\src\app\keyboard\keyboard_led.c (81)
        0x0020a60e:    b110        ..      CBZ      r0,0x20a616 ; start_adv_led_timer + 14
;;;82         adv_reconnect = reconnect;
;;;83         if (adv_reconnect)
;;;84         {
;;;85             os_timer_restart(&adv_led_timer, 30000);
        0x0020a610:    f2475130    G.0Q    MOV      r1,#0x7530
        0x0020a614:    e00c        ..      B        0x20a630 ; start_adv_led_timer + 40
;;;86         }
;;;87         else
;;;88         {
;;;89             adv_count = 0;
        0x0020a616:    2000        .       MOVS     r0,#0
        0x0020a618:    7088        .p      STRB     r0,[r1,#2]
;;;90             adv_led_on = true;
        0x0020a61a:    2001        .       MOVS     r0,#1
        0x0020a61c:    7008        .p      STRB     r0,[r1,#0]
;;;91             Pad_Config(ADV_LED, PAD_SW_MODE, PAD_IS_PWRON, PAD_PULL_UP, PAD_OUT_ENABLE, PAD_OUT_HIGH);
        0x0020a61e:    9000        ..      STR      r0,[sp,#0]
        0x0020a620:    4603        .F      MOV      r3,r0
        0x0020a622:    4602        .F      MOV      r2,r0
        0x0020a624:    9001        ..      STR      r0,[sp,#4]
        0x0020a626:    2100        .!      MOVS     r1,#0
        0x0020a628:    2013        .       MOVS     r0,#0x13
        0x0020a62a:    f606fed7    ....    BL       Pad_Config ; 0x113dc
;;;92             os_timer_restart(&adv_led_timer, 100);
        0x0020a62e:    2164        d!      MOVS     r1,#0x64
        0x0020a630:    e8bd401c    ...@    POP      {r2-r4,lr}
        0x0020a634:    4828        (H      LDR      r0,[pc,#160] ; [0x20a6d8] = 0x20bccc
        0x0020a636:    1d00        ..      ADDS     r0,r0,#4
        0x0020a638:    f61cbb01    ....    B        os_timer_restart ; 0x26c3e
    stop_adv_led_timer
;;;93         }
;;;94     }
;;;95     
;;;96     /**
;;;97     * @brief  stop adv led timer
;;;98     * @return  void
;;;99     */
;;;100    void stop_adv_led_timer(void)
;;;101    {
        0x0020a63c:    b51c        ..      PUSH     {r2-r4,lr}
;;;102        adv_count = 0;
        0x0020a63e:    4926        &I      LDR      r1,[pc,#152] ; [0x20a6d8] = 0x20bccc
        0x0020a640:    2000        .       MOVS     r0,#0
        0x0020a642:    2302        .#      MOVS     r3,#2
        0x0020a644:    7088        .p      STRB     r0,[r1,#2]
;;;103        adv_led_on = false;
        0x0020a646:    7008        .p      STRB     r0,[r1,#0]
;;;104        Pad_Config(ADV_LED, PAD_SW_MODE, PAD_IS_PWRON, PAD_PULL_DOWN, PAD_OUT_ENABLE, PAD_OUT_LOW);
        0x0020a648:    2101        .!      MOVS     r1,#1
        0x0020a64a:    e9cd1000    ....    STRD     r1,r0,[sp,#0]
        0x0020a64e:    460a        .F      MOV      r2,r1
        0x0020a650:    4601        .F      MOV      r1,r0
        0x0020a652:    2013        .       MOVS     r0,#0x13
        0x0020a654:    f606fec2    ....    BL       Pad_Config ; 0x113dc
;;;105        os_timer_stop(&adv_led_timer);
        0x0020a658:    e8bd401c    ...@    POP      {r2-r4,lr}
        0x0020a65c:    481e        .H      LDR      r0,[pc,#120] ; [0x20a6d8] = 0x20bccc
        0x0020a65e:    1d00        ..      ADDS     r0,r0,#4
        0x0020a660:    f61cbb00    ....    B        os_timer_stop ; 0x26c64
    reset_adv_count
;;;106    }
;;;107    
;;;108    /**
;;;109    * @brief  reset adv count
;;;110    * @return  void
;;;111    */
;;;112    void reset_adv_count(void)
;;;113    {
        0x0020a664:    b51c        ..      PUSH     {r2-r4,lr}
;;;114        adv_count = 0;
        0x0020a666:    491c        .I      LDR      r1,[pc,#112] ; [0x20a6d8] = 0x20bccc
        0x0020a668:    2000        .       MOVS     r0,#0
        0x0020a66a:    2302        .#      MOVS     r3,#2
        0x0020a66c:    7088        .p      STRB     r0,[r1,#2]
;;;115        adv_led_on = false;
        0x0020a66e:    7008        .p      STRB     r0,[r1,#0]
;;;116        Pad_Config(ADV_LED, PAD_SW_MODE, PAD_IS_PWRON, PAD_PULL_DOWN, PAD_OUT_ENABLE, PAD_OUT_LOW);
        0x0020a670:    2101        .!      MOVS     r1,#1
        0x0020a672:    e9cd1000    ....    STRD     r1,r0,[sp,#0]
        0x0020a676:    460a        .F      MOV      r2,r1
        0x0020a678:    4601        .F      MOV      r1,r0
        0x0020a67a:    2013        .       MOVS     r0,#0x13
        0x0020a67c:    f606feae    ....    BL       Pad_Config ; 0x113dc
;;;117    }
        0x0020a680:    bd1c        ..      POP      {r2-r4,pc}
    keyboard_led_init
;;;118    
;;;119    /**
;;;120    * @brief  keyboard led initialization function.
;;;121    * @return  void
;;;122    */
;;;123    void keyboard_led_init(void)
;;;124    {
        0x0020a682:    b57c        |.      PUSH     {r2-r6,lr}
;;;125        Pad_Config(ADV_LED, PAD_SW_MODE, PAD_IS_PWRON, PAD_PULL_DOWN, PAD_OUT_ENABLE, PAD_OUT_LOW);
        0x0020a684:    2500        .%      MOVS     r5,#0
        0x0020a686:    2401        .$      MOVS     r4,#1
        0x0020a688:    2302        .#      MOVS     r3,#2
        0x0020a68a:    4622        "F      MOV      r2,r4
        0x0020a68c:    4629        )F      MOV      r1,r5
        0x0020a68e:    2013        .       MOVS     r0,#0x13
        0x0020a690:    e9cd4500    ...E    STRD     r4,r5,[sp,#0]
        0x0020a694:    f606fea2    ....    BL       Pad_Config ; 0x113dc
;;;126        Pad_Config(CAPS_LOCK_LED, PAD_SW_MODE, PAD_IS_PWRON, PAD_PULL_DOWN, PAD_OUT_ENABLE, PAD_OUT_LOW);
        0x0020a698:    2302        .#      MOVS     r3,#2
        0x0020a69a:    2201        ."      MOVS     r2,#1
        0x0020a69c:    2100        .!      MOVS     r1,#0
        0x0020a69e:    2015        .       MOVS     r0,#0x15
        0x0020a6a0:    e9cd4500    ...E    STRD     r4,r5,[sp,#0]
        0x0020a6a4:    f606fe9a    ....    BL       Pad_Config ; 0x113dc
;;;127    }
        0x0020a6a8:    bd7c        |.      POP      {r2-r6,pc}
    capslock_led_on
;;;128    
;;;129    /**
;;;130    * @brief  turn on capslock led
;;;131    * @return  void
;;;132    */
;;;133    void capslock_led_on(void)
;;;134    {
        0x0020a6aa:    b51c        ..      PUSH     {r2-r4,lr}
;;;135        Pad_Config(CAPS_LOCK_LED, PAD_SW_MODE, PAD_IS_PWRON, PAD_PULL_UP, PAD_OUT_ENABLE, PAD_OUT_HIGH);
        0x0020a6ac:    2001        .       MOVS     r0,#1
        0x0020a6ae:    9000        ..      STR      r0,[sp,#0]
        0x0020a6b0:    4603        .F      MOV      r3,r0
        0x0020a6b2:    4602        .F      MOV      r2,r0
        0x0020a6b4:    9001        ..      STR      r0,[sp,#4]
        0x0020a6b6:    2100        .!      MOVS     r1,#0
        0x0020a6b8:    2015        .       MOVS     r0,#0x15
        0x0020a6ba:    f606fe8f    ....    BL       Pad_Config ; 0x113dc
;;;136    }
        0x0020a6be:    bd1c        ..      POP      {r2-r4,pc}
    capslock_led_off
;;;137    
;;;138    /**
;;;139    * @brief  turn off capslock led
;;;140    * @return  void
;;;141    */
;;;142    void capslock_led_off(void)
;;;143    {
        0x0020a6c0:    b51c        ..      PUSH     {r2-r4,lr}
;;;144        Pad_Config(CAPS_LOCK_LED, PAD_SW_MODE, PAD_IS_PWRON, PAD_PULL_DOWN, PAD_OUT_ENABLE, PAD_OUT_LOW);
        0x0020a6c2:    2001        .       MOVS     r0,#1
        0x0020a6c4:    2100        .!      MOVS     r1,#0
        0x0020a6c6:    4602        .F      MOV      r2,r0
        0x0020a6c8:    e9cd0100    ....    STRD     r0,r1,[sp,#0]
        0x0020a6cc:    2302        .#      MOVS     r3,#2
        0x0020a6ce:    2015        .       MOVS     r0,#0x15
        0x0020a6d0:    f606fe84    ....    BL       Pad_Config ; 0x113dc
;;;145    }
        0x0020a6d4:    bd1c        ..      POP      {r2-r4,pc}
    $d
        0x0020a6d6:    0000        ..      DCW    0
        0x0020a6d8:    0020bccc    .. .    DCD    2145484
        0x0020a6dc:    21103002    .0.!    DCD    554708994
        0x0020a6e0:    088012d8    ....    DCD    142611160
        0x0020a6e4:    20766461    adv     DCD    544629857
        0x0020a6e8:    2064656c    led     DCD    543450476
        0x0020a6ec:    656d6974    time    DCD    1701669236
        0x0020a6f0:    00000072    r...    DCD    114
    $t
    .text
    keyboard_start_adv
;;; ..\..\..\src\app\keyboard\profile_init.c
;;;30     {
        0x0020a6f4:    b510        ..      PUSH     {r4,lr}
        0x0020a6f6:    b086        ..      SUB      sp,sp,#0x18
;;;31         uint8_t  adv_evt_type = GAP_ADTYPE_ADV_IND;
        0x0020a6f8:    2100        .!      MOVS     r1,#0
        0x0020a6fa:    f88d1000    ....    STRB     r1,[sp,#0]
;;;32         uint8_t  adv_direct_type = GAP_REMOTE_ADDR_LE_PUBLIC;
        0x0020a6fe:    f88d1004    ....    STRB     r1,[sp,#4]
;;;33         uint8_t  adv_direct_addr[GAP_BD_ADDR_LEN] = {0};
        0x0020a702:    9102        ..      STR      r1,[sp,#8]
;;;34         uint8_t  adv_filter_policy = GAP_ADV_FILTER_ANY;
        0x0020a704:    9103        ..      STR      r1,[sp,#0xc]
        0x0020a706:    f88d1010    ....    STRB     r1,[sp,#0x10]
;;;35     
;;;36         switch (adv_type)
        0x0020a70a:    2801        .(      CMP      r0,#1
        0x0020a70c:    d122        ".      BNE      0x20a754 ; keyboard_start_adv + 96
;;;37         {
;;;38         case ADV_RECONECT:
;;;39             {
;;;40                 T_LE_KEY_ENTRY *p_entry;
;;;41                 p_entry = le_get_high_priority_bond();
        0x0020a70e:    f645fe17    E...    BL       le_get_high_priority_bond ; 0x50340
;;;42                 if ((p_entry->flags & LE_KEY_STORE_REMOTE_IRK_BIT) == 0)
        0x0020a712:    7881        .x      LDRB     r1,[r0,#2]
        0x0020a714:    f04f0403    O...    MOV      r4,#3
        0x0020a718:    0709        ..      LSLS     r1,r1,#28
        0x0020a71a:    d413        ..      BMI      0x20a744 ; keyboard_start_adv + 80
;;;43                 {
;;;44                     if ((p_entry->remote_bd.remote_bd_type == GAP_REMOTE_ADDR_LE_PUBLIC) ||
        0x0020a71c:    7b81        .{      LDRB     r1,[r0,#0xe]
        0x0020a71e:    b129        ).      CBZ      r1,0x20a72c ; keyboard_start_adv + 56
;;;45                         ((p_entry->remote_bd.remote_bd_type == GAP_REMOTE_ADDR_LE_RANDOM) &&
        0x0020a720:    2901        .)      CMP      r1,#1
        0x0020a722:    d117        ..      BNE      0x20a754 ; keyboard_start_adv + 96
;;;46                          ((p_entry->remote_bd.addr[5] & RANDOM_ADDR_MASK) == RANDOM_ADDR_MASK_STATIC))
        0x0020a724:    7b41        A{      LDRB     r1,[r0,#0xd]
        0x0020a726:    ebb41f91    ....    CMP      r4,r1,LSR #6
        0x0020a72a:    d113        ..      BNE      0x20a754 ; keyboard_start_adv + 96
;;;47                        )
;;;48                     {
;;;49                         adv_evt_type = GAP_ADTYPE_ADV_HDC_DIRECT_IND;
        0x0020a72c:    2101        .!      MOVS     r1,#1
        0x0020a72e:    f88d1000    ....    STRB     r1,[sp,#0]
;;;50                         memcpy(adv_direct_addr, p_entry->remote_bd.addr, GAP_BD_ADDR_LEN);
        0x0020a732:    6881        .h      LDR      r1,[r0,#8]
        0x0020a734:    9102        ..      STR      r1,[sp,#8]
        0x0020a736:    8981        ..      LDRH     r1,[r0,#0xc]
        0x0020a738:    f8ad100c    ....    STRH     r1,[sp,#0xc]
;;;51                         adv_direct_type = p_entry->remote_bd.remote_bd_type;
        0x0020a73c:    7b80        .{      LDRB     r0,[r0,#0xe]
        0x0020a73e:    f88d0004    ....    STRB     r0,[sp,#4]
        0x0020a742:    e007        ..      B        0x20a754 ; keyboard_start_adv + 96
;;;52                     }
;;;53                 }
;;;54                 else
;;;55                 {
;;;56                     if (app_privacy_resolution_state == LE_PRIVACY_RESOLUTION_DISABLED)
        0x0020a744:    4843        CH      LDR      r0,[pc,#268] ; [0x20a854] = 0x20bcd9
        0x0020a746:    7800        .x      LDRB     r0,[r0,#0]
        0x0020a748:    b910        ..      CBNZ     r0,0x20a750 ; keyboard_start_adv + 92
;;;57                     {
;;;58                         le_privacy_set_addr_resolution(true);
        0x0020a74a:    2001        .       MOVS     r0,#1
        0x0020a74c:    f647fa53    G.S.    BL       le_privacy_set_addr_resolution ; 0x51bf6
;;;59                     }
;;;60                     adv_filter_policy = GAP_ADV_FILTER_WHITE_LIST_ALL;
        0x0020a750:    f88d4010    ...@    STRB     r4,[sp,#0x10]
;;;61                 }
;;;62                 break;
;;;63             }
;;;64         case ADV_UNDIRECT_PAIRING:
;;;65             {
;;;66                 break;
;;;67             }
;;;68         default:
;;;69             break;
;;;70         }
;;;71     
;;;72         le_adv_set_param(GAP_PARAM_ADV_EVENT_TYPE, sizeof(adv_evt_type), &adv_evt_type);
        0x0020a754:    466a        jF      MOV      r2,sp
        0x0020a756:    2101        .!      MOVS     r1,#1
        0x0020a758:    f2402063    @.c     MOV      r0,#0x263
        0x0020a75c:    f647fb98    G...    BL       le_adv_set_param ; 0x51e90
;;;73         le_adv_set_param(GAP_PARAM_ADV_DIRECT_ADDR_TYPE, sizeof(adv_direct_type), &adv_direct_type);
        0x0020a760:    aa01        ..      ADD      r2,sp,#4
        0x0020a762:    2101        .!      MOVS     r1,#1
        0x0020a764:    f44f7019    O..p    MOV      r0,#0x264
        0x0020a768:    f647fb92    G...    BL       le_adv_set_param ; 0x51e90
;;;74         le_adv_set_param(GAP_PARAM_ADV_DIRECT_ADDR, sizeof(adv_direct_addr), adv_direct_addr);
        0x0020a76c:    aa02        ..      ADD      r2,sp,#8
        0x0020a76e:    2106        .!      MOVS     r1,#6
        0x0020a770:    f2402065    @.e     MOV      r0,#0x265
        0x0020a774:    f647fb8c    G...    BL       le_adv_set_param ; 0x51e90
;;;75         le_adv_set_param(GAP_PARAM_ADV_FILTER_POLICY, sizeof(adv_filter_policy), &adv_filter_policy);
        0x0020a778:    aa04        ..      ADD      r2,sp,#0x10
        0x0020a77a:    2101        .!      MOVS     r1,#1
        0x0020a77c:    f2402067    @.g     MOV      r0,#0x267
        0x0020a780:    f647fb86    G...    BL       le_adv_set_param ; 0x51e90
;;;76         le_adv_start();
        0x0020a784:    f647fc9f    G...    BL       le_adv_start ; 0x520c6
;;;77     }
        0x0020a788:    b006        ..      ADD      sp,sp,#0x18
        0x0020a78a:    bd10        ..      POP      {r4,pc}
    keyboard_update_con_para
;;;78     
;;;79     
;;;80     /**
;;;81     * @brief   connection parameter update timeout callback
;;;82     * @return  void
;;;83     */
;;;84     void keyboard_update_con_para(void *pxTimer)
;;;85     {
        0x0020a78c:    e92d43f0    -..C    PUSH     {r4-r9,lr}
        0x0020a790:    4831        1H      LDR      r0,[pc,#196] ; [0x20a858] = 0x20bc81
;;; ..\..\..\src\app\keyboard\profile_init.c (85)
        0x0020a792:    b087        ..      SUB      sp,sp,#0x1c
        0x0020a794:    7800        .x      LDRB     r0,[r0,#0]
        0x0020a796:    2802        .(      CMP      r0,#2
        0x0020a798:    d13a        :.      BNE      0x20a810 ; keyboard_update_con_para + 132
;;;86         if (gap_conn_state != GAP_CONN_STATE_CONNECTED)
;;;87         {
;;;88             return;
;;;89         }
;;;90         APP_PRINT_INFO0("connection parameter update callback!");
        0x0020a79a:    f8df90c4    ....    LDR      r9,[pc,#196] ; [0x20a860] = 0x21103002
        0x0020a79e:    2200        ."      MOVS     r2,#0
        0x0020a7a0:    492e        .I      LDR      r1,[pc,#184] ; [0x20a85c] = 0x880131c
        0x0020a7a2:    4648        HF      MOV      r0,r9
        0x0020a7a4:    f5fdf95b    ..[.    BL       log_buffer ; 0x7a5e
;;;91         uint16_t conn_interval;
;;;92         uint16_t conn_slave_latency;
;;;93         uint16_t conn_supervision_timeout;
;;;94     
;;;95         le_get_conn_param(GAP_PARAM_CONN_INTERVAL, &conn_interval, keyboard_con_id);
        0x0020a7a8:    4c2e        .L      LDR      r4,[pc,#184] ; [0x20a864] = 0x20bc88
        0x0020a7aa:    a903        ..      ADD      r1,sp,#0xc
        0x0020a7ac:    f2402072    @.r     MOV      r0,#0x272
        0x0020a7b0:    7822        "x      LDRB     r2,[r4,#0]
        0x0020a7b2:    f643f964    C.d.    BL       le_get_conn_param ; 0x4da7e
;;;96         le_get_conn_param(GAP_PARAM_CONN_LATENCY, &conn_slave_latency, keyboard_con_id);
        0x0020a7b6:    7822        "x      LDRB     r2,[r4,#0]
        0x0020a7b8:    a904        ..      ADD      r1,sp,#0x10
        0x0020a7ba:    f2402073    @.s     MOV      r0,#0x273
        0x0020a7be:    f643f95e    C.^.    BL       le_get_conn_param ; 0x4da7e
;;;97         le_get_conn_param(GAP_PARAM_CONN_TIMEOUT, &conn_supervision_timeout, keyboard_con_id);
        0x0020a7c2:    7822        "x      LDRB     r2,[r4,#0]
        0x0020a7c4:    a905        ..      ADD      r1,sp,#0x14
        0x0020a7c6:    f44f701d    O..p    MOV      r0,#0x274
        0x0020a7ca:    f643f958    C.X.    BL       le_get_conn_param ; 0x4da7e
;;;98     
;;;99         if (((conn_slave_latency + 1) * conn_interval < 16) || (conn_slave_latency == 0))
        0x0020a7ce:    f8bd0010    ....    LDRH     r0,[sp,#0x10]
        0x0020a7d2:    f8bd200c    ...     LDRH     r2,[sp,#0xc]
        0x0020a7d6:    1c41        A.      ADDS     r1,r0,#1
        0x0020a7d8:    4351        QC      MULS     r1,r2,r1
        0x0020a7da:    2910        .)      CMP      r1,#0x10
        0x0020a7dc:    db01        ..      BLT      0x20a7e2 ; keyboard_update_con_para + 86
        0x0020a7de:    2800        .(      CMP      r0,#0
        0x0020a7e0:    d116        ..      BNE      0x20a810 ; keyboard_update_con_para + 132
        0x0020a7e2:    491e        .I      LDR      r1,[pc,#120] ; [0x20a85c] = 0x880131c
;;;100        {
;;;101            uint16_t desired_interval_min = 6;
        0x0020a7e4:    2706        .'      MOVS     r7,#6
;;;102            uint16_t desired_interval_max = 16;
        0x0020a7e6:    2610        .&      MOVS     r6,#0x10
;;;103            uint16_t desired_latency = 20;
        0x0020a7e8:    2514        .%      MOVS     r5,#0x14
;;;104            uint16_t desired_superv_tout = 3000;
        0x0020a7ea:    f64038b8    @..8    MOV      r8,#0xbb8
;;;105            APP_PRINT_INFO0("connection parameter update request!");
        0x0020a7ee:    2200        ."      MOVS     r2,#0
        0x0020a7f0:    312c        ,1      ADDS     r1,r1,#0x2c
        0x0020a7f2:    4648        HF      MOV      r0,r9
        0x0020a7f4:    f5fdf933    ..3.    BL       log_buffer ; 0x7a5e
;;;106            le_update_conn_param(keyboard_con_id, desired_interval_min, desired_interval_max, desired_latency,
        0x0020a7f8:    210a        .!      MOVS     r1,#0xa
        0x0020a7fa:    fbb8f0f1    ....    UDIV     r0,r8,r1
        0x0020a7fe:    221e        ."      MOVS     r2,#0x1e
        0x0020a800:    e88d0007    ....    STM      sp,{r0-r2}
        0x0020a804:    462b        +F      MOV      r3,r5
        0x0020a806:    4632        2F      MOV      r2,r6
        0x0020a808:    4639        9F      MOV      r1,r7
        0x0020a80a:    7820         x      LDRB     r0,[r4,#0]
        0x0020a80c:    f643fa3d    C.=.    BL       le_update_conn_param ; 0x4dc8a
;;;107                                 desired_superv_tout / 10, desired_interval_min * 2 - 2, desired_interval_max * 2 - 2);
;;;108        }
;;;109    
;;;110    }
        0x0020a810:    b007        ..      ADD      sp,sp,#0x1c
        0x0020a812:    e8bd83f0    ....    POP      {r4-r9,pc}
    connection_param_updata_timer_init
;;;111    
;;;112    
;;;113    /**
;;;114    * @brief   create connection parameter update timer
;;;115    * @return  void
;;;116    */
;;;117    void connection_param_updata_timer_init(void)
;;;118    {
        0x0020a816:    b51c        ..      PUSH     {r2-r4,lr}
;;;119        os_timer_create(&con_update_timer, "con param update timer", 1, 30000, false,
        0x0020a818:    f2af018f    ....    ADR      r1,{pc}-0x8b ; 0x20a78d
        0x0020a81c:    2000        .       MOVS     r0,#0
        0x0020a81e:    e9cd0100    ....    STRD     r0,r1,[sp,#0]
        0x0020a822:    f2475330    G.0S    MOV      r3,#0x7530
        0x0020a826:    2201        ."      MOVS     r2,#1
        0x0020a828:    a10f        ..      ADR      r1,{pc}+0x40 ; 0x20a868
        0x0020a82a:    4815        .H      LDR      r0,[pc,#84] ; [0x20a880] = 0x20bcd4
        0x0020a82c:    f61cf9d3    ....    BL       os_timer_create ; 0x26bd6
;;;120                        keyboard_update_con_para);
;;;121    }
        0x0020a830:    bd1c        ..      POP      {r2-r4,pc}
    stop_con_update_timer
        0x0020a832:    4813        .H      LDR      r0,[pc,#76] ; [0x20a880] = 0x20bcd4
        0x0020a834:    6800        .h      LDR      r0,[r0,#0]
;;;122    
;;;123    
;;;124    /**
;;;125    * @brief   stop con param update timer
;;;126    * @return  void
;;;127    */
;;;128    void stop_con_update_timer(void)
;;;129    {
        0x0020a836:    2800        .(      CMP      r0,#0
        0x0020a838:    d002        ..      BEQ      0x20a840 ; stop_con_update_timer + 14
;;;130        if (con_update_timer != NULL)
;;;131        {
;;;132            os_timer_stop(&con_update_timer);
        0x0020a83a:    4811        .H      LDR      r0,[pc,#68] ; [0x20a880] = 0x20bcd4
        0x0020a83c:    f61cba12    ....    B        os_timer_stop ; 0x26c64
;;;133        }
;;;134    }
        0x0020a840:    4770        pG      BX       lr
    start_con_update_timer
        0x0020a842:    480f        .H      LDR      r0,[pc,#60] ; [0x20a880] = 0x20bcd4
        0x0020a844:    6800        .h      LDR      r0,[r0,#0]
;;;135    
;;;136    /**
;;;137    * @brief   stop con param update timer
;;;138    * @return  void
;;;139    */
;;;140    void start_con_update_timer(void)
;;;141    {
        0x0020a846:    2800        .(      CMP      r0,#0
        0x0020a848:    d002        ..      BEQ      0x20a850 ; start_con_update_timer + 14
;;;142        if (con_update_timer != NULL)
;;;143        {
;;;144            os_timer_start(&con_update_timer);
        0x0020a84a:    480d        .H      LDR      r0,[pc,#52] ; [0x20a880] = 0x20bcd4
        0x0020a84c:    f61cb9e6    ....    B        os_timer_start ; 0x26c1c
;;;145        }
;;;146    }
        0x0020a850:    4770        pG      BX       lr
    $d
        0x0020a852:    0000        ..      DCW    0
        0x0020a854:    0020bcd9    .. .    DCD    2145497
        0x0020a858:    0020bc81    .. .    DCD    2145409
        0x0020a85c:    0880131c    ....    DCD    142611228
        0x0020a860:    21103002    .0.!    DCD    554708994
        0x0020a864:    0020bc88    .. .    DCD    2145416
        0x0020a868:    206e6f63    con     DCD    544108387
        0x0020a86c:    61726170    para    DCD    1634886000
        0x0020a870:    7075206d    m up    DCD    1886724205
        0x0020a874:    65746164    date    DCD    1702125924
        0x0020a878:    6d697420     tim    DCD    1835627552
        0x0020a87c:    00007265    er..    DCD    29285
        0x0020a880:    0020bcd4    .. .    DCD    2145492
    $t
    .text
    privacy_modify_resolving_list
;;; ..\..\..\src\app\keyboard\privacy_mgnt.c
;;;24     {
        0x0020a884:    e92d47fc    -..G    PUSH     {r2-r10,lr}
        0x0020a888:    460d        .F      MOV      r5,r1
        0x0020a88a:    4680        .F      MOV      r8,r0
        0x0020a88c:    461e        .F      MOV      r6,r3
        0x0020a88e:    4692        .F      MOV      r10,r2
;;;25         T_GAP_CAUSE cause;
;;;26         APP_PRINT_INFO3("T_GAP_RESOLV_LIST_OP %d, BD %s, type %d\n", op, TRACE_BDADDR(addr), addr_type);
        0x0020a890:    4611        .F      MOV      r1,r2
        0x0020a892:    48a2        .H      LDR      r0,[pc,#648] ; [0x20ab1c] = 0x21300000
        0x0020a894:    f5fdfaa0    ....    BL       trace_bdaddr ; 0x7dd8
        0x0020a898:    e9cd0500    ....    STRD     r0,r5,[sp,#0]
        0x0020a89c:    f8df9284    ....    LDR      r9,[pc,#644] ; [0x20ab24] = 0x21103002
        0x0020a8a0:    4643        CF      MOV      r3,r8
        0x0020a8a2:    2203        ."      MOVS     r2,#3
        0x0020a8a4:    499e        .I      LDR      r1,[pc,#632] ; [0x20ab20] = 0x8801370
        0x0020a8a6:    4648        HF      MOV      r0,r9
        0x0020a8a8:    f5fdf8d9    ....    BL       log_buffer ; 0x7a5e
        0x0020a8ac:    4c9e        .L      LDR      r4,[pc,#632] ; [0x20ab28] = 0x20bcd8
        0x0020a8ae:    f1a90702    ....    SUB      r7,r9,#2
;;;27         switch (op)
        0x0020a8b2:    f1b80f00    ....    CMP      r8,#0
        0x0020a8b6:    d01d        ..      BEQ      0x20a8f4 ; privacy_modify_resolving_list + 112
        0x0020a8b8:    f1b80f01    ....    CMP      r8,#1
        0x0020a8bc:    d032        2.      BEQ      0x20a924 ; privacy_modify_resolving_list + 160
        0x0020a8be:    f1b80f02    ....    CMP      r8,#2
        0x0020a8c2:    d16b        k.      BNE      0x20a99c ; privacy_modify_resolving_list + 280
        0x0020a8c4:    4996        .I      LDR      r1,[pc,#600] ; [0x20ab20] = 0x8801370
        0x0020a8c6:    2200        ."      MOVS     r2,#0
        0x0020a8c8:    31b0        .1      ADDS     r1,r1,#0xb0
        0x0020a8ca:    4648        HF      MOV      r0,r9
        0x0020a8cc:    f5fdf8c7    ....    BL       log_buffer ; 0x7a5e
        0x0020a8d0:    4652        RF      MOV      r2,r10
        0x0020a8d2:    4629        )F      MOV      r1,r5
        0x0020a8d4:    2002        .       MOVS     r0,#2
        0x0020a8d6:    f647f9e8    G...    BL       le_privacy_modify_resolv_list ; 0x51caa
        0x0020a8da:    0003        ..      MOVS     r3,r0
        0x0020a8dc:    d04a        J.      BEQ      0x20a974 ; privacy_modify_resolving_list + 240
        0x0020a8de:    2b02        .+      CMP      r3,#2
        0x0020a8e0:    d053        S.      BEQ      0x20a98a ; privacy_modify_resolving_list + 262
        0x0020a8e2:    498f        .I      LDR      r1,[pc,#572] ; [0x20ab20] = 0x8801370
        0x0020a8e4:    2201        ."      MOVS     r2,#1
        0x0020a8e6:    31cc        .1      ADDS     r1,r1,#0xcc
        0x0020a8e8:    b002        ..      ADD      sp,sp,#8
        0x0020a8ea:    4638        8F      MOV      r0,r7
        0x0020a8ec:    e8bd47f0    ...G    POP      {r4-r10,lr}
        0x0020a8f0:    f5fdb8b5    ....    B        log_buffer ; 0x7a5e
;;;28         {
;;;29         case GAP_RESOLV_LIST_OP_CLEAR:
;;;30             {
;;;31                 APP_PRINT_INFO0("resolving list clear");
        0x0020a8f4:    498a        .I      LDR      r1,[pc,#552] ; [0x20ab20] = 0x8801370
        0x0020a8f6:    2200        ."      MOVS     r2,#0
        0x0020a8f8:    312c        ,1      ADDS     r1,r1,#0x2c
        0x0020a8fa:    4648        HF      MOV      r0,r9
        0x0020a8fc:    f5fdf8af    ....    BL       log_buffer ; 0x7a5e
;;;32                 cause = le_privacy_modify_resolv_list(GAP_RESOLV_LIST_OP_CLEAR, GAP_IDENT_ADDR_PUBLIC, NULL);
        0x0020a900:    2200        ."      MOVS     r2,#0
        0x0020a902:    4611        .F      MOV      r1,r2
        0x0020a904:    4610        .F      MOV      r0,r2
        0x0020a906:    f647f9d0    G...    BL       le_privacy_modify_resolv_list ; 0x51caa
        0x0020a90a:    0003        ..      MOVS     r3,r0
;;;33                 if (cause == GAP_CAUSE_SUCCESS)
        0x0020a90c:    d003        ..      BEQ      0x20a916 ; privacy_modify_resolving_list + 146
        0x0020a90e:    4984        .I      LDR      r1,[pc,#528] ; [0x20ab20] = 0x8801370
        0x0020a910:    2201        ."      MOVS     r2,#1
        0x0020a912:    3144        D1      ADDS     r1,r1,#0x44
        0x0020a914:    e7e8        ..      B        0x20a8e8 ; privacy_modify_resolving_list + 100
;;;34                 {
;;;35                     if (privacy_whitelist)
        0x0020a916:    7820         x      LDRB     r0,[r4,#0]
        0x0020a918:    2800        .(      CMP      r0,#0
        0x0020a91a:    d03f        ?.      BEQ      0x20a99c ; privacy_modify_resolving_list + 280
;;;36                     {
;;;37                         le_modify_white_list(GAP_WHITE_LIST_OP_CLEAR, NULL, GAP_REMOTE_ADDR_LE_PUBLIC);
        0x0020a91c:    2200        ."      MOVS     r2,#0
        0x0020a91e:    4611        .F      MOV      r1,r2
        0x0020a920:    4610        .F      MOV      r0,r2
        0x0020a922:    e02d        -.      B        0x20a980 ; privacy_modify_resolving_list + 252
;;;38                     }
;;;39                 }
;;;40                 else
;;;41                 {
;;;42                     APP_PRINT_ERROR1("clear failed: cause %d", cause);
;;;43                 }
;;;44             }
;;;45             break;
;;;46         case GAP_RESOLV_LIST_OP_ADD:
;;;47             {
;;;48                 APP_PRINT_INFO0("resolving list add");
        0x0020a924:    497e        ~I      LDR      r1,[pc,#504] ; [0x20ab20] = 0x8801370
        0x0020a926:    2200        ."      MOVS     r2,#0
        0x0020a928:    3160        `1      ADDS     r1,r1,#0x60
        0x0020a92a:    4648        HF      MOV      r0,r9
        0x0020a92c:    f5fdf897    ....    BL       log_buffer ; 0x7a5e
;;;49                 cause = le_privacy_modify_resolv_list(GAP_RESOLV_LIST_OP_ADD, addr_type, addr);
        0x0020a930:    4652        RF      MOV      r2,r10
        0x0020a932:    4629        )F      MOV      r1,r5
        0x0020a934:    2001        .       MOVS     r0,#1
        0x0020a936:    f647f9b8    G...    BL       le_privacy_modify_resolv_list ; 0x51caa
        0x0020a93a:    0003        ..      MOVS     r3,r0
;;;50                 if (cause == GAP_CAUSE_SUCCESS)
        0x0020a93c:    d005        ..      BEQ      0x20a94a ; privacy_modify_resolving_list + 198
        0x0020a93e:    2b02        .+      CMP      r3,#2
        0x0020a940:    d014        ..      BEQ      0x20a96c ; privacy_modify_resolving_list + 232
        0x0020a942:    4977        wI      LDR      r1,[pc,#476] ; [0x20ab20] = 0x8801370
        0x0020a944:    2201        ."      MOVS     r2,#1
        0x0020a946:    3178        x1      ADDS     r1,r1,#0x78
        0x0020a948:    e7ce        ..      B        0x20a8e8 ; privacy_modify_resolving_list + 100
;;;51                 {
;;;52                     if (privacy_whitelist)
        0x0020a94a:    7820         x      LDRB     r0,[r4,#0]
        0x0020a94c:    b120         .      CBZ      r0,0x20a958 ; privacy_modify_resolving_list + 212
;;;53                     {
;;;54                         le_modify_white_list(GAP_WHITE_LIST_OP_ADD, addr,
        0x0020a94e:    462a        *F      MOV      r2,r5
        0x0020a950:    4651        QF      MOV      r1,r10
        0x0020a952:    2001        .       MOVS     r0,#1
        0x0020a954:    f642fa7e    B.~.    BL       le_modify_white_list ; 0x4ce54
;;;55                                              (T_GAP_REMOTE_ADDR_TYPE)addr_type);
;;;56                     }
;;;57                     if (device_mode)
        0x0020a958:    2e00        ..      CMP      r6,#0
        0x0020a95a:    d01f        ..      BEQ      0x20a99c ; privacy_modify_resolving_list + 280
;;;58                     {
;;;59                         le_privacy_set_mode(addr_type, addr, GAP_PRIVACY_MODE_DEVICE);
        0x0020a95c:    b002        ..      ADD      sp,sp,#8
        0x0020a95e:    4651        QF      MOV      r1,r10
        0x0020a960:    4628        (F      MOV      r0,r5
        0x0020a962:    e8bd47f0    ...G    POP      {r4-r10,lr}
        0x0020a966:    2201        ."      MOVS     r2,#1
        0x0020a968:    f647b9fb    G...    B        le_privacy_set_mode ; 0x51d62
;;;60                     }
;;;61                 }
;;;62                 else if (cause != GAP_CAUSE_INVALID_STATE)
;;;63                 {
;;;64                     APP_PRINT_ERROR1("Add failed: cause %d", cause);
;;;65                 }
;;;66                 else
;;;67                 {
;;;68                     APP_PRINT_ERROR0("Add failed: invalid state");
        0x0020a96c:    496c        lI      LDR      r1,[pc,#432] ; [0x20ab20] = 0x8801370
        0x0020a96e:    2200        ."      MOVS     r2,#0
        0x0020a970:    3190        .1      ADDS     r1,r1,#0x90
        0x0020a972:    e00d        ..      B        0x20a990 ; privacy_modify_resolving_list + 268
;;;69                 }
;;;70             }
;;;71             break;
;;;72         case GAP_RESOLV_LIST_OP_REMOVE:
;;;73             {
;;;74                 APP_PRINT_INFO0("resolving list remove");
;;;75                 cause = le_privacy_modify_resolv_list(GAP_RESOLV_LIST_OP_REMOVE, addr_type, addr);
;;;76                 if (cause == GAP_CAUSE_SUCCESS)
;;;77                 {
;;;78                     if (privacy_whitelist)
        0x0020a974:    7820         x      LDRB     r0,[r4,#0]
        0x0020a976:    2800        .(      CMP      r0,#0
        0x0020a978:    d010        ..      BEQ      0x20a99c ; privacy_modify_resolving_list + 280
;;;79                     {
;;;80                         le_modify_white_list(GAP_WHITE_LIST_OP_REMOVE, addr, (T_GAP_REMOTE_ADDR_TYPE)addr_type);
        0x0020a97a:    462a        *F      MOV      r2,r5
        0x0020a97c:    4651        QF      MOV      r1,r10
        0x0020a97e:    2002        .       MOVS     r0,#2
        0x0020a980:    b002        ..      ADD      sp,sp,#8
        0x0020a982:    e8bd47f0    ...G    POP      {r4-r10,lr}
        0x0020a986:    f642ba65    B.e.    B        le_modify_white_list ; 0x4ce54
;;;81                     }
;;;82                 }
;;;83                 else if (cause != GAP_CAUSE_INVALID_STATE)
;;;84                 {
;;;85                     APP_PRINT_ERROR1("Remove failed: cause %d", cause);
;;;86                 }
;;;87                 else
;;;88                 {
;;;89                     APP_PRINT_ERROR0("Remove failed: invalid state");
        0x0020a98a:    4965        eI      LDR      r1,[pc,#404] ; [0x20ab20] = 0x8801370
        0x0020a98c:    2200        ."      MOVS     r2,#0
        0x0020a98e:    31e8        .1      ADDS     r1,r1,#0xe8
        0x0020a990:    b002        ..      ADD      sp,sp,#8
        0x0020a992:    4638        8F      MOV      r0,r7
        0x0020a994:    e8bd47f0    ...G    POP      {r4-r10,lr}
        0x0020a998:    f5fdb861    ..a.    B        log_buffer ; 0x7a5e
;;;90                 }
;;;91             }
;;;92             break;
;;;93         default:
;;;94             break;
;;;95         }
;;;96     
;;;97     }
        0x0020a99c:    e8bd87fc    ....    POP      {r2-r10,pc}
    privacy_add_device
;;;98     
;;;99     
;;;100    /**
;;;101    * @brief   add privacy device to resolving list
;;;102    * @return  void
;;;103    */
;;;104    bool privacy_add_device(T_LE_KEY_ENTRY *p_entry)
;;;105    {
        0x0020a9a0:    b5f8        ..      PUSH     {r3-r7,lr}
        0x0020a9a2:    0004        ..      MOVS     r4,r0
        0x0020a9a4:    d042        B.      BEQ      0x20aa2c ; privacy_add_device + 140
;;;106        if (p_entry != NULL && p_entry->is_used)
        0x0020a9a6:    7823        #x      LDRB     r3,[r4,#0]
        0x0020a9a8:    b3bb        ..      CBZ      r3,0x20aa1a ; privacy_add_device + 122
;;;107        {
;;;108    
;;;109            APP_PRINT_INFO1("privacy_add_device: p_entry->is_used = %d", p_entry->is_used);
        0x0020a9aa:    4e5e        ^N      LDR      r6,[pc,#376] ; [0x20ab24] = 0x21103002
        0x0020a9ac:    2201        ."      MOVS     r2,#1
        0x0020a9ae:    495f        _I      LDR      r1,[pc,#380] ; [0x20ab2c] = 0x8801478
        0x0020a9b0:    4630        0F      MOV      r0,r6
        0x0020a9b2:    f5fdf854    ..T.    BL       log_buffer ; 0x7a5e
;;;110            bool device_mode = true;
        0x0020a9b6:    2501        .%      MOVS     r5,#1
;;;111            T_LE_PRIVACY_INFO privacy_info;
;;;112            if (le_get_privacy_info(p_entry, &privacy_info))
        0x0020a9b8:    4669        iF      MOV      r1,sp
        0x0020a9ba:    4620         F      MOV      r0,r4
        0x0020a9bc:    f646f8dd    F...    BL       le_get_privacy_info ; 0x50b7a
        0x0020a9c0:    b130        0.      CBZ      r0,0x20a9d0 ; privacy_add_device + 48
;;;113            {
;;;114                if (privacy_info.is_discov && privacy_info.resolv_addr_only)
        0x0020a9c2:    f89d0000    ....    LDRB     r0,[sp,#0]
        0x0020a9c6:    b118        ..      CBZ      r0,0x20a9d0 ; privacy_add_device + 48
        0x0020a9c8:    f89d0002    ....    LDRB     r0,[sp,#2]
        0x0020a9cc:    b100        ..      CBZ      r0,0x20a9d0 ; privacy_add_device + 48
;;;115                {
;;;116                    device_mode = false;
        0x0020a9ce:    2500        .%      MOVS     r5,#0
;;;117                }
;;;118            }
;;;119            if (p_entry->flags & LE_KEY_STORE_REMOTE_IRK_BIT)
        0x0020a9d0:    78a0        .x      LDRB     r0,[r4,#2]
        0x0020a9d2:    f04f0200    O...    MOV      r2,#0
        0x0020a9d6:    0700        ..      LSLS     r0,r0,#28
        0x0020a9d8:    d509        ..      BPL      0x20a9ee ; privacy_add_device + 78
;;;120            {
;;;121                APP_PRINT_INFO0("privacy_add_device: LE_KEY_STORE_REMOTE_IRK_BIT");
        0x0020a9da:    4954        TI      LDR      r1,[pc,#336] ; [0x20ab2c] = 0x8801478
        0x0020a9dc:    4630        0F      MOV      r0,r6
        0x0020a9de:    3130        01      ADDS     r1,r1,#0x30
        0x0020a9e0:    f5fdf83d    ..=.    BL       log_buffer ; 0x7a5e
;;;122                privacy_modify_resolving_list(GAP_RESOLV_LIST_OP_ADD,
        0x0020a9e4:    7da1        .}      LDRB     r1,[r4,#0x16]
        0x0020a9e6:    462b        +F      MOV      r3,r5
        0x0020a9e8:    f1040210    ....    ADD      r2,r4,#0x10
;;;123                                              (T_GAP_IDENT_ADDR_TYPE)p_entry->resolved_remote_bd.remote_bd_type,
;;;124                                              p_entry->resolved_remote_bd.addr, device_mode);
;;;125                return true;
        0x0020a9ec:    e010        ..      B        0x20aa10 ; privacy_add_device + 112
;;;126            }
;;;127            else
;;;128            {
;;;129                APP_PRINT_INFO0("privacy_add_device: GAP_REMOTE_ADDR_LE_PUBLIC");
        0x0020a9ee:    494f        OI      LDR      r1,[pc,#316] ; [0x20ab2c] = 0x8801478
        0x0020a9f0:    4630        0F      MOV      r0,r6
        0x0020a9f2:    3164        d1      ADDS     r1,r1,#0x64
        0x0020a9f4:    f5fdf833    ..3.    BL       log_buffer ; 0x7a5e
;;;130                if ((p_entry->remote_bd.remote_bd_type == GAP_REMOTE_ADDR_LE_PUBLIC) ||
        0x0020a9f8:    7ba1        .{      LDRB     r1,[r4,#0xe]
        0x0020a9fa:    b131        1.      CBZ      r1,0x20aa0a ; privacy_add_device + 106
;;;131                    ((p_entry->remote_bd.remote_bd_type == GAP_REMOTE_ADDR_LE_RANDOM) &&
        0x0020a9fc:    2901        .)      CMP      r1,#1
        0x0020a9fe:    d10d        ..      BNE      0x20aa1c ; privacy_add_device + 124
;;;132                     ((p_entry->remote_bd.addr[5] & RANDOM_ADDR_MASK) == RANDOM_ADDR_MASK_STATIC))
        0x0020aa00:    7b60        `{      LDRB     r0,[r4,#0xd]
        0x0020aa02:    2203        ."      MOVS     r2,#3
        0x0020aa04:    ebb21f90    ....    CMP      r2,r0,LSR #6
        0x0020aa08:    d108        ..      BNE      0x20aa1c ; privacy_add_device + 124
;;;133                   )
;;;134                {
;;;135                    privacy_modify_resolving_list(GAP_RESOLV_LIST_OP_ADD,
        0x0020aa0a:    462b        +F      MOV      r3,r5
        0x0020aa0c:    f1040208    ....    ADD      r2,r4,#8
        0x0020aa10:    2001        .       MOVS     r0,#1
        0x0020aa12:    f7ffff37    ..7.    BL       privacy_modify_resolving_list ; 0x20a884
;;;136                                                  (T_GAP_IDENT_ADDR_TYPE)p_entry->remote_bd.remote_bd_type,
;;;137                                                  p_entry->remote_bd.addr, device_mode);
;;;138                    return true;
        0x0020aa16:    2001        .       MOVS     r0,#1
        0x0020aa18:    bdf8        ..      POP      {r3-r7,pc}
        0x0020aa1a:    e007        ..      B        0x20aa2c ; privacy_add_device + 140
;;;139                }
;;;140                else
;;;141                {
;;;142                    APP_PRINT_ERROR1("privacy_add_device: failed, idx %d", p_entry->idx);
        0x0020aa1c:    4943        CI      LDR      r1,[pc,#268] ; [0x20ab2c] = 0x8801478
        0x0020aa1e:    4841        AH      LDR      r0,[pc,#260] ; [0x20ab24] = 0x21103002
        0x0020aa20:    7863        cx      LDRB     r3,[r4,#1]
        0x0020aa22:    2201        ."      MOVS     r2,#1
        0x0020aa24:    3198        .1      ADDS     r1,r1,#0x98
        0x0020aa26:    1e80        ..      SUBS     r0,r0,#2
        0x0020aa28:    f5fdf819    ....    BL       log_buffer ; 0x7a5e
;;;143                }
;;;144            }
;;;145        }
;;;146        return false;
        0x0020aa2c:    2000        .       MOVS     r0,#0
;;;147    }
        0x0020aa2e:    e7f3        ..      B        0x20aa18 ; privacy_add_device + 120
    privacy_handle_le_privacy_modify_resolv_list_rsp
;;;148    
;;;149    /**
;;;150    * @brief   privacy init
;;;151    * @return  void
;;;152    */
;;;153    void privacy_init(bool whitelist)
;;;154    {
;;;155        T_LE_KEY_ENTRY *p_entry;
;;;156    
;;;157        APP_PRINT_INFO1("privacy_init: whitelist %d", whitelist);
;;;158    
;;;159        privacy_whitelist = whitelist;
;;;160        le_privacy_register_cb(privacy_msg_callback);
;;;161    
;;;162        p_entry = le_get_high_priority_bond();
;;;163        if ((p_entry != NULL) && (p_entry->is_used))
;;;164        {
;;;165            privacy_add_device(p_entry);
;;;166        }
;;;167        return;
;;;168    }
;;;169    
;;;170    
;;;171    /**
;;;172    * @brief   handle privacy resolution status
;;;173    * @return  void
;;;174    */
;;;175    void privacy_handle_le_privacy_resolution_status_info(T_LE_PRIVACY_RESOLUTION_STATUS_INFO
;;;176                                                          resolv_status)
;;;177    {
;;;178        APP_PRINT_INFO1("privacy_handle_le_privacy_resolution_status_info: status 0x%x\n",
;;;179                        resolv_status.status);
;;;180        app_privacy_resolution_state = resolv_status.status;
;;;181    }
;;;182    
;;;183    /**
;;;184    * @brief   modify resolving list response
;;;185    * @return  void
;;;186    */
;;;187    void privacy_handle_le_privacy_modify_resolv_list_rsp(T_LE_PRIVACY_MODIFY_RESOLV_LIST_RSP *p_rsp)
;;;188    {
        0x0020aa30:    b538        8.      PUSH     {r3-r5,lr}
        0x0020aa32:    4604        .F      MOV      r4,r0
;;;189        APP_PRINT_INFO2("privacy_handle_le_privacy_modify_resolv_list_rsp: operation  0x%x, casue 0x%x",
        0x0020aa34:    8840        @.      LDRH     r0,[r0,#2]
        0x0020aa36:    9000        ..      STR      r0,[sp,#0]
        0x0020aa38:    7823        #x      LDRB     r3,[r4,#0]
        0x0020aa3a:    2202        ."      MOVS     r2,#2
        0x0020aa3c:    493c        <I      LDR      r1,[pc,#240] ; [0x20ab30] = 0x880159c
        0x0020aa3e:    4839        9H      LDR      r0,[pc,#228] ; [0x20ab24] = 0x21103002
        0x0020aa40:    f5fdf80d    ....    BL       log_buffer ; 0x7a5e
;;;190                        p_rsp->operation, p_rsp->cause);
;;;191        if (p_rsp->cause == GAP_SUCCESS)
        0x0020aa44:    8860        `.      LDRH     r0,[r4,#2]
        0x0020aa46:    2800        .(      CMP      r0,#0
        0x0020aa48:    d105        ..      BNE      0x20aa56 ; privacy_handle_le_privacy_modify_resolv_list_rsp + 38
;;;192        {
;;;193            extern bool resolv_list_exist;
;;;194            if (p_rsp->operation == GAP_RESOLV_LIST_OP_ADD)
        0x0020aa4a:    7821        !x      LDRB     r1,[r4,#0]
        0x0020aa4c:    4839        9H      LDR      r0,[pc,#228] ; [0x20ab34] = 0x20bc84
        0x0020aa4e:    2901        .)      CMP      r1,#1
        0x0020aa50:    d000        ..      BEQ      0x20aa54 ; privacy_handle_le_privacy_modify_resolv_list_rsp + 36
;;;195            {
;;;196                resolv_list_exist = true;
;;;197            }
;;;198            else
;;;199            {
;;;200                resolv_list_exist = false;
        0x0020aa52:    2100        .!      MOVS     r1,#0
        0x0020aa54:    7001        .p      STRB     r1,[r0,#0]
;;;201            }
;;;202        }
;;;203        else
;;;204        {
;;;205        }
;;;206    }
        0x0020aa56:    bd38        8.      POP      {r3-r5,pc}
    privacy_handle_le_privacy_resolution_status_info
        0x0020aa58:    b510        ..      PUSH     {r4,lr}
        0x0020aa5a:    b2c4        ..      UXTB     r4,r0
        0x0020aa5c:    4934        4I      LDR      r1,[pc,#208] ; [0x20ab30] = 0x880159c
;;; ..\..\..\src\app\keyboard\privacy_mgnt.c (177)
        0x0020aa5e:    4623        #F      MOV      r3,r4
;;;178        APP_PRINT_INFO1("privacy_handle_le_privacy_resolution_status_info: status 0x%x\n",
        0x0020aa60:    2201        ."      MOVS     r2,#1
        0x0020aa62:    3944        D9      SUBS     r1,r1,#0x44
        0x0020aa64:    482f        /H      LDR      r0,[pc,#188] ; [0x20ab24] = 0x21103002
        0x0020aa66:    f5fcfffa    ....    BL       log_buffer ; 0x7a5e
;;;179                        resolv_status.status);
;;;180        app_privacy_resolution_state = resolv_status.status;
        0x0020aa6a:    482f        /H      LDR      r0,[pc,#188] ; [0x20ab28] = 0x20bcd8
        0x0020aa6c:    7044        Dp      STRB     r4,[r0,#1]
;;;181    }
        0x0020aa6e:    bd10        ..      POP      {r4,pc}
    privacy_msg_callback
;;;182    
;;;183    /**
;;;184    * @brief   modify resolving list response
;;;185    * @return  void
;;;186    */
;;;187    void privacy_handle_le_privacy_modify_resolv_list_rsp(T_LE_PRIVACY_MODIFY_RESOLV_LIST_RSP *p_rsp)
;;;188    {
;;;189        APP_PRINT_INFO2("privacy_handle_le_privacy_modify_resolv_list_rsp: operation  0x%x, casue 0x%x",
;;;190                        p_rsp->operation, p_rsp->cause);
;;;191        if (p_rsp->cause == GAP_SUCCESS)
;;;192        {
;;;193            extern bool resolv_list_exist;
;;;194            if (p_rsp->operation == GAP_RESOLV_LIST_OP_ADD)
;;;195            {
;;;196                resolv_list_exist = true;
;;;197            }
;;;198            else
;;;199            {
;;;200                resolv_list_exist = false;
;;;201            }
;;;202        }
;;;203        else
;;;204        {
;;;205        }
;;;206    }
;;;207    
;;;208    
;;;209    /**
;;;210    * @brief   privacy message callback
;;;211    * @return  void
;;;212    */
;;;213    T_APP_RESULT privacy_msg_callback(uint8_t msg_type, T_LE_PRIVACY_CB_DATA msg_data)
;;;214    {
        0x0020aa70:    b570        p.      PUSH     {r4-r6,lr}
        0x0020aa72:    460d        .F      MOV      r5,r1
        0x0020aa74:    492e        .I      LDR      r1,[pc,#184] ; [0x20ab30] = 0x880159c
;;; ..\..\..\src\app\keyboard\privacy_mgnt.c (214)
        0x0020aa76:    4604        .F      MOV      r4,r0
        0x0020aa78:    4603        .F      MOV      r3,r0
;;;215        T_APP_RESULT result = APP_RESULT_SUCCESS;
        0x0020aa7a:    2600        .&      MOVS     r6,#0
;;;216        APP_PRINT_INFO1("privacy_msg_callback: msg_type  %d", msg_type);
        0x0020aa7c:    2201        ."      MOVS     r2,#1
        0x0020aa7e:    3154        T1      ADDS     r1,r1,#0x54
        0x0020aa80:    4828        (H      LDR      r0,[pc,#160] ; [0x20ab24] = 0x21103002
        0x0020aa82:    f5fcffec    ....    BL       log_buffer ; 0x7a5e
        0x0020aa86:    4628        (F      MOV      r0,r5
;;;217    
;;;218        switch (msg_type)
        0x0020aa88:    b114        ..      CBZ      r4,0x20aa90 ; privacy_msg_callback + 32
        0x0020aa8a:    2c02        .,      CMP      r4,#2
        0x0020aa8c:    d105        ..      BNE      0x20aa9a ; privacy_msg_callback + 42
        0x0020aa8e:    e002        ..      B        0x20aa96 ; privacy_msg_callback + 38
;;;219        {
;;;220        case GAP_MSG_LE_PRIVACY_RESOLUTION_STATUS_INFO:
;;;221            privacy_handle_le_privacy_resolution_status_info(msg_data.le_privacy_resolution_status_info);
        0x0020aa90:    f7ffffe2    ....    BL       privacy_handle_le_privacy_resolution_status_info ; 0x20aa58
;;;222            break;
        0x0020aa94:    e001        ..      B        0x20aa9a ; privacy_msg_callback + 42
;;;223    
;;;224        case GAP_MSG_LE_PRIVACY_MODIFY_RESOLV_LIST:
;;;225            privacy_handle_le_privacy_modify_resolv_list_rsp(msg_data.p_le_privacy_modify_resolv_list_rsp);
        0x0020aa96:    f7ffffcb    ....    BL       privacy_handle_le_privacy_modify_resolv_list_rsp ; 0x20aa30
;;;226            break;
;;;227    
;;;228        default:
;;;229            break;
;;;230        }
;;;231        return result;
        0x0020aa9a:    4630        0F      MOV      r0,r6
;;;232    }
        0x0020aa9c:    bd70        p.      POP      {r4-r6,pc}
    privacy_init
        0x0020aa9e:    b510        ..      PUSH     {r4,lr}
        0x0020aaa0:    4923        #I      LDR      r1,[pc,#140] ; [0x20ab30] = 0x880159c
;;; ..\..\..\src\app\keyboard\privacy_mgnt.c (154)
        0x0020aaa2:    4604        .F      MOV      r4,r0
;;;155        T_LE_KEY_ENTRY *p_entry;
;;;156    
;;;157        APP_PRINT_INFO1("privacy_init: whitelist %d", whitelist);
        0x0020aaa4:    4603        .F      MOV      r3,r0
        0x0020aaa6:    2201        ."      MOVS     r2,#1
        0x0020aaa8:    3964        d9      SUBS     r1,r1,#0x64
        0x0020aaaa:    481e        .H      LDR      r0,[pc,#120] ; [0x20ab24] = 0x21103002
        0x0020aaac:    f5fcffd7    ....    BL       log_buffer ; 0x7a5e
;;;158    
;;;159        privacy_whitelist = whitelist;
        0x0020aab0:    481d        .H      LDR      r0,[pc,#116] ; [0x20ab28] = 0x20bcd8
        0x0020aab2:    7004        .p      STRB     r4,[r0,#0]
;;;160        le_privacy_register_cb(privacy_msg_callback);
        0x0020aab4:    f2af0047    ..G.    ADR      r0,{pc}-0x43 ; 0x20aa71
        0x0020aab8:    f647f89a    G...    BL       le_privacy_register_cb ; 0x51bf0
;;;161    
;;;162        p_entry = le_get_high_priority_bond();
        0x0020aabc:    f645fc40    E.@.    BL       le_get_high_priority_bond ; 0x50340
;;;163        if ((p_entry != NULL) && (p_entry->is_used))
        0x0020aac0:    2800        .(      CMP      r0,#0
        0x0020aac2:    d005        ..      BEQ      0x20aad0 ; privacy_init + 50
        0x0020aac4:    7801        .x      LDRB     r1,[r0,#0]
        0x0020aac6:    2900        .)      CMP      r1,#0
        0x0020aac8:    d002        ..      BEQ      0x20aad0 ; privacy_init + 50
;;;164        {
;;;165            privacy_add_device(p_entry);
        0x0020aaca:    e8bd4010    ...@    POP      {r4,lr}
        0x0020aace:    e767        g.      B        privacy_add_device ; 0x20a9a0
;;;166        }
;;;167        return;
;;;168    }
        0x0020aad0:    bd10        ..      POP      {r4,pc}
    privacy_handle_bond_modify_msg
;;;169    
;;;170    
;;;171    /**
;;;172    * @brief   handle privacy resolution status
;;;173    * @return  void
;;;174    */
;;;175    void privacy_handle_le_privacy_resolution_status_info(T_LE_PRIVACY_RESOLUTION_STATUS_INFO
;;;176                                                          resolv_status)
;;;177    {
;;;178        APP_PRINT_INFO1("privacy_handle_le_privacy_resolution_status_info: status 0x%x\n",
;;;179                        resolv_status.status);
;;;180        app_privacy_resolution_state = resolv_status.status;
;;;181    }
;;;182    
;;;183    /**
;;;184    * @brief   modify resolving list response
;;;185    * @return  void
;;;186    */
;;;187    void privacy_handle_le_privacy_modify_resolv_list_rsp(T_LE_PRIVACY_MODIFY_RESOLV_LIST_RSP *p_rsp)
;;;188    {
;;;189        APP_PRINT_INFO2("privacy_handle_le_privacy_modify_resolv_list_rsp: operation  0x%x, casue 0x%x",
;;;190                        p_rsp->operation, p_rsp->cause);
;;;191        if (p_rsp->cause == GAP_SUCCESS)
;;;192        {
;;;193            extern bool resolv_list_exist;
;;;194            if (p_rsp->operation == GAP_RESOLV_LIST_OP_ADD)
;;;195            {
;;;196                resolv_list_exist = true;
;;;197            }
;;;198            else
;;;199            {
;;;200                resolv_list_exist = false;
;;;201            }
;;;202        }
;;;203        else
;;;204        {
;;;205        }
;;;206    }
;;;207    
;;;208    
;;;209    /**
;;;210    * @brief   privacy message callback
;;;211    * @return  void
;;;212    */
;;;213    T_APP_RESULT privacy_msg_callback(uint8_t msg_type, T_LE_PRIVACY_CB_DATA msg_data)
;;;214    {
;;;215        T_APP_RESULT result = APP_RESULT_SUCCESS;
;;;216        APP_PRINT_INFO1("privacy_msg_callback: msg_type  %d", msg_type);
;;;217    
;;;218        switch (msg_type)
;;;219        {
;;;220        case GAP_MSG_LE_PRIVACY_RESOLUTION_STATUS_INFO:
;;;221            privacy_handle_le_privacy_resolution_status_info(msg_data.le_privacy_resolution_status_info);
;;;222            break;
;;;223    
;;;224        case GAP_MSG_LE_PRIVACY_MODIFY_RESOLV_LIST:
;;;225            privacy_handle_le_privacy_modify_resolv_list_rsp(msg_data.p_le_privacy_modify_resolv_list_rsp);
;;;226            break;
;;;227    
;;;228        default:
;;;229            break;
;;;230        }
;;;231        return result;
;;;232    }
;;;233    
;;;234    /**
;;;235    * @brief   privacy handle bond modify message, used in app_gap_callback
;;;236    * @return  void
;;;237    */
;;;238    void privacy_handle_bond_modify_msg(T_LE_BOND_MODIFY_TYPE type, T_LE_KEY_ENTRY *p_entry)
;;;239    {
        0x0020aad2:    b570        p.      PUSH     {r4-r6,lr}
        0x0020aad4:    460c        .F      MOV      r4,r1
        0x0020aad6:    4916        .I      LDR      r1,[pc,#88] ; [0x20ab30] = 0x880159c
        0x0020aad8:    4605        .F      MOV      r5,r0
;;;240        APP_PRINT_INFO1("privacy_handle_bond_modify_msg: type 0x%x", type);
        0x0020aada:    4603        .F      MOV      r3,r0
        0x0020aadc:    2201        ."      MOVS     r2,#1
        0x0020aade:    317c        |1      ADDS     r1,r1,#0x7c
        0x0020aae0:    4810        .H      LDR      r0,[pc,#64] ; [0x20ab24] = 0x21103002
        0x0020aae2:    f5fcffbc    ....    BL       log_buffer ; 0x7a5e
;;;241    
;;;242        if (type == LE_BOND_CLEAR)
        0x0020aae6:    2d02        .-      CMP      r5,#2
        0x0020aae8:    d009        ..      BEQ      0x20aafe ; privacy_handle_bond_modify_msg + 44
;;;243        {
;;;244            privacy_modify_resolving_list(GAP_RESOLV_LIST_OP_CLEAR, GAP_IDENT_ADDR_PUBLIC, NULL, false);
;;;245        }
;;;246        else if (type == LE_BOND_DELETE)
        0x0020aaea:    2d00        .-      CMP      r5,#0
        0x0020aaec:    d114        ..      BNE      0x20ab18 ; privacy_handle_bond_modify_msg + 70
;;;247        {
;;;248            if (p_entry->flags & LE_KEY_STORE_REMOTE_IRK_BIT)
        0x0020aaee:    78a0        .x      LDRB     r0,[r4,#2]
        0x0020aaf0:    0700        ..      LSLS     r0,r0,#28
        0x0020aaf2:    d509        ..      BPL      0x20ab08 ; privacy_handle_bond_modify_msg + 54
;;;249            {
;;;250                privacy_modify_resolving_list(GAP_RESOLV_LIST_OP_REMOVE,
        0x0020aaf4:    7da1        .}      LDRB     r1,[r4,#0x16]
        0x0020aaf6:    2300        .#      MOVS     r3,#0
        0x0020aaf8:    f1040210    ....    ADD      r2,r4,#0x10
        0x0020aafc:    e008        ..      B        0x20ab10 ; privacy_handle_bond_modify_msg + 62
        0x0020aafe:    2300        .#      MOVS     r3,#0
        0x0020ab00:    461a        .F      MOV      r2,r3
        0x0020ab02:    4619        .F      MOV      r1,r3
        0x0020ab04:    4618        .F      MOV      r0,r3
        0x0020ab06:    e004        ..      B        0x20ab12 ; privacy_handle_bond_modify_msg + 64
;;;251                                              (T_GAP_IDENT_ADDR_TYPE)p_entry->resolved_remote_bd.remote_bd_type,
;;;252                                              p_entry->resolved_remote_bd.addr, false);
;;;253            }
;;;254            else
;;;255            {
;;;256                privacy_modify_resolving_list(GAP_RESOLV_LIST_OP_REMOVE,
        0x0020ab08:    7ba1        .{      LDRB     r1,[r4,#0xe]
        0x0020ab0a:    2300        .#      MOVS     r3,#0
        0x0020ab0c:    f1040208    ....    ADD      r2,r4,#8
        0x0020ab10:    2002        .       MOVS     r0,#2
        0x0020ab12:    e8bd4070    ..p@    POP      {r4-r6,lr}
        0x0020ab16:    e6b5        ..      B        privacy_modify_resolving_list ; 0x20a884
;;;257                                              (T_GAP_IDENT_ADDR_TYPE)p_entry->remote_bd.remote_bd_type,
;;;258                                              p_entry->remote_bd.addr, false);
;;;259            }
;;;260        }
;;;261    }
        0x0020ab18:    bd70        p.      POP      {r4-r6,pc}
    $d
        0x0020ab1a:    0000        ..      DCW    0
        0x0020ab1c:    21300000    ..0!    DCD    556793856
        0x0020ab20:    08801370    p...    DCD    142611312
        0x0020ab24:    21103002    .0.!    DCD    554708994
        0x0020ab28:    0020bcd8    .. .    DCD    2145496
        0x0020ab2c:    08801478    x...    DCD    142611576
        0x0020ab30:    0880159c    ....    DCD    142611868
        0x0020ab34:    0020bc84    .. .    DCD    2145412
    $t
    .text
    load_overlay
;;; .\..\..\..\src\mcu\rtl876x\overlay_mgr.c
;;;116    {
        0x0020ab38:    b510        ..      PUSH     {r4,lr}
        0x0020ab3a:    2803        .(      CMP      r0,#3
;;; .\..\..\..\src\mcu\rtl876x\overlay_mgr.c (116)
        0x0020ab3c:    d301        ..      BCC      0x20ab42 ; load_overlay + 10
;;;117        const T_OVERLAY_SECTION *selected_scenario;
;;;118    
;;;119        if (scenario_idx >= OVERLAY_SCENARIO_NUM)
;;;120        {
;;;121            return false;
        0x0020ab3e:    2000        .       MOVS     r0,#0
        0x0020ab40:    bd10        ..      POP      {r4,pc}
;;;122        }
;;;123    
;;;124        selected_scenario = &overlay_sections[scenario_idx];
        0x0020ab42:    491a        .I      LDR      r1,[pc,#104] ; [0x20abac] = 0x20ba60
        0x0020ab44:    eb0000c0    ....    ADD      r0,r0,r0,LSL #3
        0x0020ab48:    eb010480    ....    ADD      r4,r1,r0,LSL #2
;;;125    
;;;126        if (memcmp(selected_scenario->signature, scenario_name, 8) == 0)
        0x0020ab4c:    2208        ."      MOVS     r2,#8
        0x0020ab4e:    4918        .I      LDR      r1,[pc,#96] ; [0x20abb0] = 0x20bcda
        0x0020ab50:    6820         h      LDR      r0,[r4,#0]
        0x0020ab52:    f64ff957    O.W.    BL       memcmp ; 0x59e04
        0x0020ab56:    b198        ..      CBZ      r0,0x20ab80 ; load_overlay + 72
;;;127        {
;;;128            return true;
;;;129        }
;;;130    
;;;131        /* load code */
;;;132        memcpy(selected_scenario->image_ro_base, selected_scenario->load_ro_base,
        0x0020ab58:    69a2        .i      LDR      r2,[r4,#0x18]
        0x0020ab5a:    6861        ah      LDR      r1,[r4,#4]
        0x0020ab5c:    68e0        .h      LDR      r0,[r4,#0xc]
        0x0020ab5e:    f64ff99c    O...    BL       __aeabi_memcpy ; 0x59e9a
;;;133               selected_scenario->ro_length);
;;;134        /* load rw data */
;;;135        memcpy(selected_scenario->image_rw_base, selected_scenario->load_rw_base,
        0x0020ab62:    69e2        .i      LDR      r2,[r4,#0x1c]
        0x0020ab64:    68a1        .h      LDR      r1,[r4,#8]
        0x0020ab66:    6920         i      LDR      r0,[r4,#0x10]
        0x0020ab68:    f64ff997    O...    BL       __aeabi_memcpy ; 0x59e9a
;;;136               selected_scenario->rw_length);
;;;137        /* clear zi data */
;;;138        memset(selected_scenario->image_zi_base, 0x0, selected_scenario->zi_length);
        0x0020ab6c:    6a21        !j      LDR      r1,[r4,#0x20]
        0x0020ab6e:    6960        `i      LDR      r0,[r4,#0x14]
        0x0020ab70:    f64ffa54    O.T.    BL       __aeabi_memclr ; 0x5a01c
;;;139    
;;;140        memcpy(scenario_name, selected_scenario->signature, 8);
        0x0020ab74:    6820         h      LDR      r0,[r4,#0]
        0x0020ab76:    490e        .I      LDR      r1,[pc,#56] ; [0x20abb0] = 0x20bcda
        0x0020ab78:    6802        .h      LDR      r2,[r0,#0]
        0x0020ab7a:    600a        .`      STR      r2,[r1,#0]
        0x0020ab7c:    6840        @h      LDR      r0,[r0,#4]
        0x0020ab7e:    6048        H`      STR      r0,[r1,#4]
        0x0020ab80:    2001        .       MOVS     r0,#1
;;;141    
;;;142        return true;
;;;143    }
        0x0020ab82:    bd10        ..      POP      {r4,pc}
    get_current_scenario_index
;;;144    
;;;145    T_OVERLAY_SCENARIO_IDX get_current_scenario_index(void)
;;;146    {
        0x0020ab84:    b570        p.      PUSH     {r4-r6,lr}
        0x0020ab86:    4d09        .M      LDR      r5,[pc,#36] ; [0x20abac] = 0x20ba60
;;;147        const T_OVERLAY_SECTION *selected_scenario;
;;;148    
;;;149        for (int i = 0; i < (int)OVERLAY_SCENARIO_NUM; ++i)
        0x0020ab88:    2400        .$      MOVS     r4,#0
        0x0020ab8a:    eb0400c4    ....    ADD      r0,r4,r4,LSL #3
        0x0020ab8e:    2208        ."      MOVS     r2,#8
        0x0020ab90:    f8550020    U. .    LDR      r0,[r5,r0,LSL #2]
        0x0020ab94:    4906        .I      LDR      r1,[pc,#24] ; [0x20abb0] = 0x20bcda
        0x0020ab96:    f64ff935    O.5.    BL       memcmp ; 0x59e04
        0x0020ab9a:    b120         .      CBZ      r0,0x20aba6 ; get_current_scenario_index + 34
        0x0020ab9c:    1c64        d.      ADDS     r4,r4,#1
        0x0020ab9e:    2c03        .,      CMP      r4,#3
        0x0020aba0:    dbf3        ..      BLT      0x20ab8a ; get_current_scenario_index + 6
        0x0020aba2:    2003        .       MOVS     r0,#3
        0x0020aba4:    bd70        p.      POP      {r4-r6,pc}
;;;150        {
;;;151            selected_scenario = &overlay_sections[i];
;;;152            if (memcmp(selected_scenario->signature, scenario_name, 8) == 0)
;;;153            {
;;;154                return (T_OVERLAY_SCENARIO_IDX)i;
        0x0020aba6:    b2e0        ..      UXTB     r0,r4
;;;155            }
;;;156        }
;;;157    
;;;158        return OVERLAY_SCENARIO_NUM; //not found valid scenario
;;;159    }
        0x0020aba8:    bd70        p.      POP      {r4-r6,pc}
    $d
        0x0020abaa:    0000        ..      DCW    0
        0x0020abac:    0020ba60    `. .    DCD    2144864
        0x0020abb0:    0020bcda    .. .    DCD    2145498
    $t
    .text
    gap_lib_handle_btif_msg
;;; ..\..\..\src\app\gap_lib\gap_lib\gap_lib.c (31)
        0x0020abb4:    b510        ..      PUSH     {r4,lr}
        0x0020abb6:    2201        ."      MOVS     r2,#1
        0x0020abb8:    700a        .p      STRB     r2,[r1,#0]
        0x0020abba:    8841        A.      LDRH     r1,[r0,#2]
        0x0020abbc:    2400        .$      MOVS     r4,#0
        0x0020abbe:    290e        .)      CMP      r1,#0xe
;;; ..\..\..\src\app\gap_lib\gap_lib\gap_lib.c (31)
        0x0020abc0:    d102        ..      BNE      0x20abc8 ; gap_lib_handle_btif_msg + 20
        0x0020abc2:    1d00        ..      ADDS     r0,r0,#4
;;; ..\..\..\src\app\gap_lib\gap_lib\gap_lib.c (39)
        0x0020abc4:    f000f8c1    ....    BL       le_handle_vendor_cmd_rsp ; 0x20ad4a
;;; ..\..\..\src\app\gap_lib\gap_lib\gap_lib.c (112)
        0x0020abc8:    4620         F      MOV      r0,r4
;;; ..\..\..\src\app\gap_lib\gap_lib\gap_lib.c (113)
        0x0020abca:    bd10        ..      POP      {r4,pc}
    gap_lib_init
;;; ..\..\..\src\app\gap_lib\gap_lib\gap_lib.c (116)
        0x0020abcc:    b570        p.      PUSH     {r4-r6,lr}
        0x0020abce:    b088        ..      SUB      sp,sp,#0x20
;;; ..\..\..\src\app\gap_lib\gap_lib\gap_lib.c (117)
        0x0020abd0:    2400        .$      MOVS     r4,#0
        0x0020abd2:    9405        ..      STR      r4,[sp,#0x14]
        0x0020abd4:    2501        .%      MOVS     r5,#1
        0x0020abd6:    9406        ..      STR      r4,[sp,#0x18]
        0x0020abd8:    e9cd5400    ...T    STRD     r5,r4,[sp,#0]
        0x0020abdc:    4e0e        .N      LDR      r6,[pc,#56] ; [0x20ac18] = 0x21103500
        0x0020abde:    2308        .#      MOVS     r3,#8
        0x0020abe0:    9403        ..      STR      r4,[sp,#0xc]
        0x0020abe2:    9404        ..      STR      r4,[sp,#0x10]
        0x0020abe4:    461a        .F      MOV      r2,r3
        0x0020abe6:    490b        .I      LDR      r1,[pc,#44] ; [0x20ac14] = 0x8801648
        0x0020abe8:    4630        0F      MOV      r0,r6
        0x0020abea:    9402        ..      STR      r4,[sp,#8]
        0x0020abec:    f5fcff37    ..7.    BL       log_buffer ; 0x7a5e
        0x0020abf0:    4908        .I      LDR      r1,[pc,#32] ; [0x20ac14] = 0x8801648
        0x0020abf2:    e9cd4500    ...E    STRD     r4,r5,[sp,#0]
;;; ..\..\..\src\app\gap_lib\gap_lib\gap_lib.c (121)
        0x0020abf6:    2300        .#      MOVS     r3,#0
        0x0020abf8:    2204        ."      MOVS     r2,#4
        0x0020abfa:    31ec        .1      ADDS     r1,r1,#0xec
        0x0020abfc:    4630        0F      MOV      r0,r6
        0x0020abfe:    9502        ..      STR      r5,[sp,#8]
        0x0020ac00:    f5fcff2d    ..-.    BL       log_buffer ; 0x7a5e
;;; ..\..\..\src\app\gap_lib\gap_lib\gap_lib.c (123)
        0x0020ac04:    f2af0053    ..S.    ADR      r0,{pc}-0x4f ; 0x20abb5
        0x0020ac08:    b008        ..      ADD      sp,sp,#0x20
        0x0020ac0a:    e8bd4070    ..p@    POP      {r4-r6,lr}
        0x0020ac0e:    f641b8ff    A...    B        gap_register_extend_cb ; 0x4be10
    $d
        0x0020ac12:    0000        ..      DCW    0
        0x0020ac14:    08801648    H...    DCD    142612040
        0x0020ac18:    21103500    .5.!    DCD    554710272
    $t
    .text
    le_check_privacy_bond
;;; ..\..\..\src\app\gap_lib\common\gap_lib_patch.c (163)
        0x0020ac1c:    b530        0.      PUSH     {r4,r5,lr}
        0x0020ac1e:    b08b        ..      SUB      sp,sp,#0x2c
        0x0020ac20:    f04f0100    O...    MOV      r1,#0
        0x0020ac24:    4d33        3M      LDR      r5,[pc,#204] ; [0x20acf4] = 0x21103502
;;; ..\..\..\src\app\gap_lib\common\gap_lib_patch.c (163)
        0x0020ac26:    0004        ..      MOVS     r4,r0
        0x0020ac28:    9106        ..      STR      r1,[sp,#0x18]
        0x0020ac2a:    9107        ..      STR      r1,[sp,#0x1c]
        0x0020ac2c:    9108        ..      STR      r1,[sp,#0x20]
        0x0020ac2e:    9109        ..      STR      r1,[sp,#0x24]
        0x0020ac30:    d002        ..      BEQ      0x20ac38 ; le_check_privacy_bond + 28
;;; ..\..\..\src\app\gap_lib\common\gap_lib_patch.c (166)
        0x0020ac32:    7820         x      LDRB     r0,[r4,#0]
        0x0020ac34:    2801        .(      CMP      r0,#1
        0x0020ac36:    d008        ..      BEQ      0x20ac4a ; le_check_privacy_bond + 46
        0x0020ac38:    2301        .#      MOVS     r3,#1
        0x0020ac3a:    2201        ."      MOVS     r2,#1
        0x0020ac3c:    492e        .I      LDR      r1,[pc,#184] ; [0x20acf8] = 0x88017e0
        0x0020ac3e:    4628        (F      MOV      r0,r5
        0x0020ac40:    f5fcff0d    ....    BL       log_buffer ; 0x7a5e
        0x0020ac44:    2000        .       MOVS     r0,#0
        0x0020ac46:    b00b        ..      ADD      sp,sp,#0x2c
        0x0020ac48:    bd30        0.      POP      {r4,r5,pc}
;;; ..\..\..\src\app\gap_lib\common\gap_lib_patch.c (168)
        0x0020ac4a:    78a0        .x      LDRB     r0,[r4,#2]
        0x0020ac4c:    0700        ..      LSLS     r0,r0,#28
        0x0020ac4e:    d518        ..      BPL      0x20ac82 ; le_check_privacy_bond + 102
;;; ..\..\..\src\app\gap_lib\common\gap_lib_patch.c (171)
        0x0020ac50:    466a        jF      MOV      r2,sp
        0x0020ac52:    2114        .!      MOVS     r1,#0x14
        0x0020ac54:    4620         F      MOV      r0,r4
        0x0020ac56:    f645fb85    E...    BL       le_get_key ; 0x50364
        0x0020ac5a:    b180        ..      CBZ      r0,0x20ac7e ; le_check_privacy_bond + 98
;;; ..\..\..\src\app\gap_lib\common\gap_lib_patch.c (173)
        0x0020ac5c:    2210        ."      MOVS     r2,#0x10
        0x0020ac5e:    a906        ..      ADD      r1,sp,#0x18
        0x0020ac60:    4668        hF      MOV      r0,sp
        0x0020ac62:    f64ff8cf    O...    BL       memcmp ; 0x59e04
        0x0020ac66:    b140        @.      CBZ      r0,0x20ac7a ; le_check_privacy_bond + 94
        0x0020ac68:    4923        #I      LDR      r1,[pc,#140] ; [0x20acf8] = 0x88017e0
        0x0020ac6a:    7863        cx      LDRB     r3,[r4,#1]
        0x0020ac6c:    2201        ."      MOVS     r2,#1
        0x0020ac6e:    3930        09      SUBS     r1,r1,#0x30
        0x0020ac70:    4628        (F      MOV      r0,r5
        0x0020ac72:    f5fcfef4    ....    BL       log_buffer ; 0x7a5e
        0x0020ac76:    2001        .       MOVS     r0,#1
        0x0020ac78:    e7e5        ..      B        0x20ac46 ; le_check_privacy_bond + 42
;;; ..\..\..\src\app\gap_lib\common\gap_lib_patch.c (175)
        0x0020ac7a:    2305        .#      MOVS     r3,#5
        0x0020ac7c:    e7dd        ..      B        0x20ac3a ; le_check_privacy_bond + 30
;;; ..\..\..\src\app\gap_lib\common\gap_lib_patch.c (185)
        0x0020ac7e:    2304        .#      MOVS     r3,#4
        0x0020ac80:    e7db        ..      B        0x20ac3a ; le_check_privacy_bond + 30
;;; ..\..\..\src\app\gap_lib\common\gap_lib_patch.c (190)
        0x0020ac82:    2302        .#      MOVS     r3,#2
        0x0020ac84:    e7d9        ..      B        0x20ac3a ; le_check_privacy_bond + 30
    le_bond_just_work_confirm
;;; ..\..\..\src\app\gap_lib\common\gap_lib_patch.c (202)
        0x0020ac86:    460a        .F      MOV      r2,r1
        0x0020ac88:    eb000140    ..@.    ADD      r1,r0,r0,LSL #1
        0x0020ac8c:    481b        .H      LDR      r0,[pc,#108] ; [0x20acfc] = 0x202e64
        0x0020ac8e:    b510        ..      PUSH     {r4,lr}
        0x0020ac90:    6800        .h      LDR      r0,[r0,#0]
        0x0020ac92:    eb001001    ....    ADD      r0,r0,r1,LSL #4
        0x0020ac96:    7801        .x      LDRB     r1,[r0,#0]
        0x0020ac98:    b129        ).      CBZ      r1,0x20aca6 ; le_bond_just_work_confirm + 32
;;; ..\..\..\src\app\gap_lib\common\gap_lib_patch.c (205)
        0x0020ac9a:    7981        .y      LDRB     r1,[r0,#6]
        0x0020ac9c:    1dc0        ..      ADDS     r0,r0,#7
        0x0020ac9e:    f616fcdc    ....    BL       btif_just_work_req_cfm ; 0x2165a
;;; ..\..\..\src\app\gap_lib\common\gap_lib_patch.c (207)
        0x0020aca2:    2000        .       MOVS     r0,#0
        0x0020aca4:    bd10        ..      POP      {r4,pc}
;;; ..\..\..\src\app\gap_lib\common\gap_lib_patch.c (211)
        0x0020aca6:    2004        .       MOVS     r0,#4
;;; ..\..\..\src\app\gap_lib\common\gap_lib_patch.c (213)
        0x0020aca8:    bd10        ..      POP      {r4,pc}
    le_bond_get_sec_level
;;; ..\..\..\src\app\gap_lib\common\gap_lib_patch.c (226)
        0x0020acaa:    b510        ..      PUSH     {r4,lr}
        0x0020acac:    b08a        ..      SUB      sp,sp,#0x28
        0x0020acae:    460c        .F      MOV      r4,r1
;;; ..\..\..\src\app\gap_lib\common\gap_lib_patch.c (229)
        0x0020acb0:    2100        .!      MOVS     r1,#0
        0x0020acb2:    7021        !p      STRB     r1,[r4,#0]
;;; ..\..\..\src\app\gap_lib\common\gap_lib_patch.c (230)
        0x0020acb4:    aa09        ..      ADD      r2,sp,#0x24
        0x0020acb6:    a907        ..      ADD      r1,sp,#0x1c
        0x0020acb8:    f642ff99    B...    BL       le_get_conn_addr ; 0x4dbee
        0x0020acbc:    b1c0        ..      CBZ      r0,0x20acf0 ; le_bond_get_sec_level + 70
;;; ..\..\..\src\app\gap_lib\common\gap_lib_patch.c (233)
        0x0020acbe:    f89d1024    ..$.    LDRB     r1,[sp,#0x24]
        0x0020acc2:    a807        ..      ADD      r0,sp,#0x1c
        0x0020acc4:    f645fa63    E.c.    BL       le_find_key_entry ; 0x5018e
;;; ..\..\..\src\app\gap_lib\common\gap_lib_patch.c (234)
        0x0020acc8:    b190        ..      CBZ      r0,0x20acf0 ; le_bond_get_sec_level + 70
;;; ..\..\..\src\app\gap_lib\common\gap_lib_patch.c (237)
        0x0020acca:    466a        jF      MOV      r2,sp
        0x0020accc:    2111        .!      MOVS     r1,#0x11
        0x0020acce:    f645fb49    E.I.    BL       le_get_key ; 0x50364
        0x0020acd2:    b168        h.      CBZ      r0,0x20acf0 ; le_bond_get_sec_level + 70
;;; ..\..\..\src\app\gap_lib\common\gap_lib_patch.c (239)
        0x0020acd4:    4908        .I      LDR      r1,[pc,#32] ; [0x20acf8] = 0x88017e0
        0x0020acd6:    f89d301b    ...0    LDRB     r3,[sp,#0x1b]
        0x0020acda:    2201        ."      MOVS     r2,#1
        0x0020acdc:    3138        81      ADDS     r1,r1,#0x38
        0x0020acde:    4805        .H      LDR      r0,[pc,#20] ; [0x20acf4] = 0x21103502
        0x0020ace0:    f5fcfebd    ....    BL       log_buffer ; 0x7a5e
;;; ..\..\..\src\app\gap_lib\common\gap_lib_patch.c (240)
        0x0020ace4:    f89d001b    ....    LDRB     r0,[sp,#0x1b]
        0x0020ace8:    7020         p      STRB     r0,[r4,#0]
;;; ..\..\..\src\app\gap_lib\common\gap_lib_patch.c (241)
        0x0020acea:    2000        .       MOVS     r0,#0
        0x0020acec:    b00a        ..      ADD      sp,sp,#0x28
        0x0020acee:    bd10        ..      POP      {r4,pc}
;;; ..\..\..\src\app\gap_lib\common\gap_lib_patch.c (245)
        0x0020acf0:    2003        .       MOVS     r0,#3
;;; ..\..\..\src\app\gap_lib\common\gap_lib_patch.c (246)
        0x0020acf2:    e7fb        ..      B        0x20acec ; le_bond_get_sec_level + 66
    $d
        0x0020acf4:    21103502    .5.!    DCD    554710274
        0x0020acf8:    088017e0    ....    DCD    142612448
        0x0020acfc:    00202e64    d. .    DCD    2109028
    $t
    .text
    gap_set_lps_bootup_active_time
;;; ..\..\..\src\app\gap_lib\extension\gap_vendor_cmd.c (43)
        0x0020ad00:    b508        ..      PUSH     {r3,lr}
        0x0020ad02:    1ec1        ..      SUBS     r1,r0,#3
        0x0020ad04:    f24072fe    @..r    MOV      r2,#0x7fe
        0x0020ad08:    4291        .B      CMP      r1,r2
;;; ..\..\..\src\app\gap_lib\extension\gap_vendor_cmd.c (43)
        0x0020ad0a:    d301        ..      BCC      0x20ad10 ; gap_set_lps_bootup_active_time + 16
;;; ..\..\..\src\app\gap_lib\extension\gap_vendor_cmd.c (48)
        0x0020ad0c:    2000        .       MOVS     r0,#0
        0x0020ad0e:    bd08        ..      POP      {r3,pc}
;;; ..\..\..\src\app\gap_lib\extension\gap_vendor_cmd.c (50)
        0x0020ad10:    2105        .!      MOVS     r1,#5
        0x0020ad12:    f88d1000    ....    STRB     r1,[sp,#0]
;;; ..\..\..\src\app\gap_lib\extension\gap_vendor_cmd.c (51)
        0x0020ad16:    f88d0001    ....    STRB     r0,[sp,#1]
;;; ..\..\..\src\app\gap_lib\extension\gap_vendor_cmd.c (52)
        0x0020ad1a:    0a00        ..      LSRS     r0,r0,#8
        0x0020ad1c:    f88d0002    ....    STRB     r0,[sp,#2]
;;; ..\..\..\src\app\gap_lib\extension\gap_vendor_cmd.c (54)
        0x0020ad20:    466a        jF      MOV      r2,sp
        0x0020ad22:    2103        .!      MOVS     r1,#3
        0x0020ad24:    f64f406e    O.n@    MOV      r0,#0xfc6e
        0x0020ad28:    f616fbe0    ....    BL       btif_vendor_cmd_req ; 0x214ec
        0x0020ad2c:    2800        .(      CMP      r0,#0
        0x0020ad2e:    d0ee        ..      BEQ      0x20ad0e ; gap_set_lps_bootup_active_time + 14
;;; ..\..\..\src\app\gap_lib\extension\gap_vendor_cmd.c (56)
        0x0020ad30:    2001        .       MOVS     r0,#1
;;; ..\..\..\src\app\gap_lib\extension\gap_vendor_cmd.c (59)
        0x0020ad32:    bd08        ..      POP      {r3,pc}
    lps_get_wakeup_time
;;; ..\..\..\src\app\gap_lib\extension\gap_vendor_cmd.c (62)
        0x0020ad34:    b530        0.      PUSH     {r4,r5,lr}
;;; ..\..\..\src\app\gap_lib\extension\gap_vendor_cmd.c (63)
        0x0020ad36:    4b20         K      LDR      r3,[pc,#128] ; [0x20adb8] = 0x201b1c
;;; ..\..\..\src\app\gap_lib\extension\gap_vendor_cmd.c (64)
        0x0020ad38:    681d        .h      LDR      r5,[r3,#0]
        0x0020ad3a:    1d1b        ..      ADDS     r3,r3,#4
;;; ..\..\..\src\app\gap_lib\extension\gap_vendor_cmd.c (65)
        0x0020ad3c:    681c        .h      LDR      r4,[r3,#0]
        0x0020ad3e:    1d1b        ..      ADDS     r3,r3,#4
        0x0020ad40:    681b        .h      LDR      r3,[r3,#0]
;;; ..\..\..\src\app\gap_lib\extension\gap_vendor_cmd.c (67)
        0x0020ad42:    6005        .`      STR      r5,[r0,#0]
;;; ..\..\..\src\app\gap_lib\extension\gap_vendor_cmd.c (68)
        0x0020ad44:    600c        .`      STR      r4,[r1,#0]
        0x0020ad46:    6013        .`      STR      r3,[r2,#0]
;;; ..\..\..\src\app\gap_lib\extension\gap_vendor_cmd.c (69)
        0x0020ad48:    bd30        0.      POP      {r4,r5,pc}
    le_handle_vendor_cmd_rsp
;;; ..\..\..\src\app\gap_lib\extension\gap_vendor_cmd.c (169)
        0x0020ad4a:    b508        ..      PUSH     {r3,lr}
        0x0020ad4c:    8801        ..      LDRH     r1,[r0,#0]
        0x0020ad4e:    f5a1427c    ..|B    SUB      r2,r1,#0xfc00
        0x0020ad52:    3a6e        n:      SUBS     r2,r2,#0x6e
        0x0020ad54:    d109        ..      BNE      0x20ad6a ; le_handle_vendor_cmd_rsp + 32
;;; ..\..\..\src\app\gap_lib\extension\gap_vendor_cmd.c (250)
        0x0020ad56:    8840        @.      LDRH     r0,[r0,#2]
        0x0020ad58:    f8ad0000    ....    STRH     r0,[sp,#0]
;;; ..\..\..\src\app\gap_lib\extension\gap_vendor_cmd.c (251)
        0x0020ad5c:    4817        .H      LDR      r0,[pc,#92] ; [0x20adbc] = 0x202e48
        0x0020ad5e:    6802        .h      LDR      r2,[r0,#0]
        0x0020ad60:    2a00        .*      CMP      r2,#0
        0x0020ad62:    d002        ..      BEQ      0x20ad6a ; le_handle_vendor_cmd_rsp + 32
;;; ..\..\..\src\app\gap_lib\extension\gap_vendor_cmd.c (253)
        0x0020ad64:    4669        iF      MOV      r1,sp
        0x0020ad66:    20a6        .       MOVS     r0,#0xa6
        0x0020ad68:    4790        .G      BLX      r2
;;; ..\..\..\src\app\gap_lib\extension\gap_vendor_cmd.c (258)
        0x0020ad6a:    bd08        ..      POP      {r3,pc}
    le_vendor_modify_bt_le_fw_policy
;;; ..\..\..\src\app\gap_lib\extension\gap_vendor_cmd.c (262)
        0x0020ad6c:    b50e        ..      PUSH     {r1-r3,lr}
;;; ..\..\..\src\app\gap_lib\extension\gap_vendor_cmd.c (265)
        0x0020ad6e:    2210        ."      MOVS     r2,#0x10
        0x0020ad70:    f88d2000    ...     STRB     r2,[sp,#0]
;;; ..\..\..\src\app\gap_lib\extension\gap_vendor_cmd.c (266)
        0x0020ad74:    f88d0001    ....    STRB     r0,[sp,#1]
;;; ..\..\..\src\app\gap_lib\extension\gap_vendor_cmd.c (267)
        0x0020ad78:    0a02        ..      LSRS     r2,r0,#8
        0x0020ad7a:    f88d2002    ...     STRB     r2,[sp,#2]
;;; ..\..\..\src\app\gap_lib\extension\gap_vendor_cmd.c (268)
        0x0020ad7e:    0c02        ..      LSRS     r2,r0,#16
;;; ..\..\..\src\app\gap_lib\extension\gap_vendor_cmd.c (269)
        0x0020ad80:    0e00        ..      LSRS     r0,r0,#24
        0x0020ad82:    f88d0004    ....    STRB     r0,[sp,#4]
;;; ..\..\..\src\app\gap_lib\extension\gap_vendor_cmd.c (270)
        0x0020ad86:    f88d1005    ....    STRB     r1,[sp,#5]
;;; ..\..\..\src\app\gap_lib\extension\gap_vendor_cmd.c (271)
        0x0020ad8a:    0a08        ..      LSRS     r0,r1,#8
        0x0020ad8c:    f88d0006    ....    STRB     r0,[sp,#6]
;;; ..\..\..\src\app\gap_lib\extension\gap_vendor_cmd.c (272)
        0x0020ad90:    0c08        ..      LSRS     r0,r1,#16
        0x0020ad92:    f88d0007    ....    STRB     r0,[sp,#7]
;;; ..\..\..\src\app\gap_lib\extension\gap_vendor_cmd.c (273)
        0x0020ad96:    0e08        ..      LSRS     r0,r1,#24
        0x0020ad98:    f88d2003    ...     STRB     r2,[sp,#3]
        0x0020ad9c:    f88d0008    ....    STRB     r0,[sp,#8]
;;; ..\..\..\src\app\gap_lib\extension\gap_vendor_cmd.c (275)
        0x0020ada0:    466a        jF      MOV      r2,sp
        0x0020ada2:    2109        .!      MOVS     r1,#9
        0x0020ada4:    f64f5080    O..P    MOV      r0,#0xfd80
        0x0020ada8:    f616fba0    ....    BL       btif_vendor_cmd_req ; 0x214ec
        0x0020adac:    b108        ..      CBZ      r0,0x20adb2 ; le_vendor_modify_bt_le_fw_policy + 70
;;; ..\..\..\src\app\gap_lib\extension\gap_vendor_cmd.c (277)
        0x0020adae:    2000        .       MOVS     r0,#0
        0x0020adb0:    bd0e        ..      POP      {r1-r3,pc}
;;; ..\..\..\src\app\gap_lib\extension\gap_vendor_cmd.c (279)
        0x0020adb2:    2007        .       MOVS     r0,#7
;;; ..\..\..\src\app\gap_lib\extension\gap_vendor_cmd.c (286)
        0x0020adb4:    bd0e        ..      POP      {r1-r3,pc}
    $d
        0x0020adb6:    0000        ..      DCW    0
        0x0020adb8:    00201b1c    .. .    DCD    2104092
        0x0020adbc:    00202e48    H. .    DCD    2109000
    $t
    x$fpl$fpinit
    $v0
    _fp_init
        0x0020adc0:    f04f7040    O.@p    MOV      r0,#0x3000000
        0x0020adc4:    eee10a10    ....    VMSR     FPSCR,r0
    __fplib_config_fpu_vfp
    __fplib_config_pureend_doubles
        0x0020adc8:    4770        pG      BX       lr
        0x0020adca:    0000        ..      MOVS     r0,r0
    $d.realdata
    .constdata
    app_cb_table
        0x0020adcc:    0e85d101    ....    DCD    243650817
        0x0020add0:    00000001    ....    DCD    1
        0x0020add4:    00207f3f    ?. .    DCD    2129727
    .constdata
        0x0020add8:    0020b92c    ,. .    DCD    2144556
        0x0020addc:    0020b9d8    .. .    DCD    2144728
        0x0020ade0:    0020b920     . .    DCD    2144544
        0x0020ade4:    0020b9e0    .. .    DCD    2144736
        0x0020ade8:    0020b984    .. .    DCD    2144644
        0x0020adec:    0020b9f8    .. .    DCD    2144760
        0x0020adf0:    0020b9ec    .. .    DCD    2144748
        0x0020adf4:    0020b974    t. .    DCD    2144628
        0x0020adf8:    0020b974    t. .    DCD    2144628
        0x0020adfc:    0020b974    t. .    DCD    2144628
        0x0020ae00:    0020b974    t. .    DCD    2144628
        0x0020ae04:    0020b914    .. .    DCD    2144532
        0x0020ae08:    0020b9cc    .. .    DCD    2144716
        0x0020ae0c:    0020b974    t. .    DCD    2144628
        0x0020ae10:    0020b93c    <. .    DCD    2144572
        0x0020ae14:    0020b99c    .. .    DCD    2144668
        0x0020ae18:    0020b9b0    .. .    DCD    2144688
        0x0020ae1c:    0020b91c    .. .    DCD    2144540
        0x0020ae20:    0020b904    .. .    DCD    2144516
        0x0020ae24:    0020b884    .. .    DCD    2144388
        0x0020ae28:    0020b858    X. .    DCD    2144344
        0x0020ae2c:    0020b9b8    .. .    DCD    2144696
        0x0020ae30:    0020b96c    l. .    DCD    2144620
        0x0020ae34:    0020b958    X. .    DCD    2144600
        0x0020ae38:    0020b8f0    .. .    DCD    2144496
        0x0020ae3c:    0020b8b0    .. .    DCD    2144432
        0x0020ae40:    0020b8d0    .. .    DCD    2144464
        0x0020ae44:    0020b834    4. .    DCD    2144308
        0x0020ae48:    0020b800    .. .    DCD    2144256
        0x0020ae4c:    0020b910    .. .    DCD    2144528
        0x0020ae50:    0020b7f8    .. .    DCD    2144248
        0x0020ae54:    0020b82c    ,. .    DCD    2144300
        0x0020ae58:    0020b7f0    .. .    DCD    2144240
        0x0020ae5c:    0020b824    $. .    DCD    2144292
        0x0020ae60:    0020b90c    .. .    DCD    2144524
        0x0020ae64:    0020b9a4    .. .    DCD    2144676
        0x0020ae68:    0020b808    .. .    DCD    2144264
        0x0020ae6c:    0020b83c    <. .    DCD    2144316
        0x0020ae70:    0020b868    h. .    DCD    2144360
        0x0020ae74:    0020b88c    .. .    DCD    2144396
        0x0020ae78:    0020b8b8    .. .    DCD    2144440
        0x0020ae7c:    0020b8d8    .. .    DCD    2144472
        0x0020ae80:    0020b89c    .. .    DCD    2144412
        0x0020ae84:    0020b878    x. .    DCD    2144376
        0x0020ae88:    0020b938    8. .    DCD    2144568
        0x0020ae8c:    0020b84c    L. .    DCD    2144332
        0x0020ae90:    0020b818    .. .    DCD    2144280
        0x0020ae94:    0020b860    `. .    DCD    2144352
        0x0020ae98:    0020b8a8    .. .    DCD    2144424
        0x0020ae9c:    0020b8c8    .. .    DCD    2144456
        0x0020aea0:    0020b8e8    .. .    DCD    2144488
        0x0020aea4:    0020b8fc    .. .    DCD    2144508
        0x0020aea8:    0020b990    .. .    DCD    2144656
        0x0020aeac:    0020b97c    |. .    DCD    2144636
        0x0020aeb0:    0020b9c4    .. .    DCD    2144708
        0x0020aeb4:    0020b944    D. .    DCD    2144580
        0x0020aeb8:    0020b924    $. .    DCD    2144548
        0x0020aebc:    0020ba04    .. .    DCD    2144772
        0x0020aec0:    0020b960    `. .    DCD    2144608
        0x0020aec4:    0020b94c    L. .    DCD    2144588
        0x0020aec8:    0020b918    .. .    DCD    2144536
    .constdata
    hids_report_descriptor
        0x0020aecc:    06090105    ....    DCD    101253381
        0x0020aed0:    038501a1    ....    DCD    59048353
        0x0020aed4:    e0190705    ....    DCD    3759736581
        0x0020aed8:    0015e729    )...    DCD    1435433
        0x0020aedc:    01750125    %.u.    DCD    24445221
        0x0020aee0:    02810895    ....    DCD    42010773
        0x0020aee4:    08750195    ..u.    DCD    141885845
        0x0020aee8:    05950181    ....    DCD    93651329
        0x0020aeec:    08050175    u...    DCD    134545781
        0x0020aef0:    05290119    ..).    DCD    86573337
        0x0020aef4:    01950291    ....    DCD    26542737
        0x0020aef8:    01910375    u...    DCD    26280821
        0x0020aefc:    08750695    ..u.    DCD    141887125
        0x0020af00:    a4250015    ..%.    DCD    2753888277
        0x0020af04:    00190705    ....    DCD    1640197
        0x0020af08:    0081a429    )...    DCD    8496169
        0x0020af0c:    090c05c0    ....    DCD    151782848
        0x0020af10:    8501a101    ....    DCD    2231476481
        0x0020af14:    25001504    ...%    DCD    620762372
        0x0020af18:    95017501    .u..    DCD    2499900673
        0x0020af1c:    09b50918    ....    DCD    162859288
        0x0020af20:    09b709b6    ....    DCD    162990518
        0x0020af24:    09e209cd    ....    DCD    165808589
        0x0020af28:    09e709e5    ....    DCD    166136293
        0x0020af2c:    0aea09e9    ....    DCD    183110121
        0x0020af30:    530a0152    R..S    DCD    1393164626
        0x0020af34:    01540a01    ..T.    DCD    22284801
        0x0020af38:    0a01550a    .U..    DCD    167859466
        0x0020af3c:    8a0a0183    ....    DCD    2315911555
        0x0020af40:    01920a01    ....    DCD    26348033
        0x0020af44:    0a01940a    ....    DCD    167875594
        0x0020af48:    230a0221    !..#    DCD    587858465
        0x0020af4c:    02240a02    ..$.    DCD    35916290
        0x0020af50:    0a02250a    .%..    DCD    167912714
        0x0020af54:    270a0226    &..'    DCD    654967334
        0x0020af58:    022a0a02    ..*.    DCD    36309506
        0x0020af5c:    00c00281    ....    DCD    12583553
    hids_attr_tbl
        0x0020af60:    28000802    ...(    DCD    671090690
        0x0020af64:    00001812    ....    DCD    6162
        0x0020af68:    00000000    ....    DCD    0
        0x0020af6c:    00000000    ....    DCD    0
        0x0020af70:    00020000    ....    DCD    131072
        0x0020af74:    00000000    ....    DCD    0
        0x0020af78:    00000001    ....    DCD    1
        0x0020af7c:    28030002    ...(    DCD    671285250
        0x0020af80:    00000006    ....    DCD    6
        0x0020af84:    00000000    ....    DCD    0
        0x0020af88:    00000000    ....    DCD    0
        0x0020af8c:    00010000    ....    DCD    65536
        0x0020af90:    00000000    ....    DCD    0
        0x0020af94:    00000001    ....    DCD    1
        0x0020af98:    2a4e0004    ..N*    DCD    709754884
        0x0020af9c:    00000000    ....    DCD    0
        0x0020afa0:    00000000    ....    DCD    0
        0x0020afa4:    00000000    ....    DCD    0
        0x0020afa8:    00000000    ....    DCD    0
        0x0020afac:    00000000    ....    DCD    0
        0x0020afb0:    00000022    "...    DCD    34
        0x0020afb4:    28030002    ...(    DCD    671285250
        0x0020afb8:    0000001a    ....    DCD    26
        0x0020afbc:    00000000    ....    DCD    0
        0x0020afc0:    00000000    ....    DCD    0
        0x0020afc4:    00010000    ....    DCD    65536
        0x0020afc8:    00000000    ....    DCD    0
        0x0020afcc:    00000001    ....    DCD    1
        0x0020afd0:    2a4d0004    ..M*    DCD    709689348
        0x0020afd4:    00000000    ....    DCD    0
        0x0020afd8:    00000000    ....    DCD    0
        0x0020afdc:    00000000    ....    DCD    0
        0x0020afe0:    00000000    ....    DCD    0
        0x0020afe4:    00000000    ....    DCD    0
        0x0020afe8:    00000022    "...    DCD    34
        0x0020afec:    29020012    ...)    DCD    687996946
        0x0020aff0:    00000000    ....    DCD    0
        0x0020aff4:    00000000    ....    DCD    0
        0x0020aff8:    00000000    ....    DCD    0
        0x0020affc:    00020000    ....    DCD    131072
        0x0020b000:    00000000    ....    DCD    0
        0x0020b004:    00000022    "...    DCD    34
        0x0020b008:    29080012    ...)    DCD    688390162
        0x0020b00c:    00000103    ....    DCD    259
        0x0020b010:    00000000    ....    DCD    0
        0x0020b014:    00000000    ....    DCD    0
        0x0020b018:    00020000    ....    DCD    131072
        0x0020b01c:    00000000    ....    DCD    0
        0x0020b020:    00000002    ....    DCD    2
        0x0020b024:    28030002    ...(    DCD    671285250
        0x0020b028:    0000000e    ....    DCD    14
        0x0020b02c:    00000000    ....    DCD    0
        0x0020b030:    00000000    ....    DCD    0
        0x0020b034:    00010000    ....    DCD    65536
        0x0020b038:    00000000    ....    DCD    0
        0x0020b03c:    00000001    ....    DCD    1
        0x0020b040:    2a4d0004    ..M*    DCD    709689348
        0x0020b044:    00000000    ....    DCD    0
        0x0020b048:    00000000    ....    DCD    0
        0x0020b04c:    00000000    ....    DCD    0
        0x0020b050:    00000000    ....    DCD    0
        0x0020b054:    00000000    ....    DCD    0
        0x0020b058:    00000022    "...    DCD    34
        0x0020b05c:    29080012    ...)    DCD    688390162
        0x0020b060:    00000203    ....    DCD    515
        0x0020b064:    00000000    ....    DCD    0
        0x0020b068:    00000000    ....    DCD    0
        0x0020b06c:    00020000    ....    DCD    131072
        0x0020b070:    00000000    ....    DCD    0
        0x0020b074:    00000002    ....    DCD    2
        0x0020b078:    28030002    ...(    DCD    671285250
        0x0020b07c:    0000000a    ....    DCD    10
        0x0020b080:    00000000    ....    DCD    0
        0x0020b084:    00000000    ....    DCD    0
        0x0020b088:    00010000    ....    DCD    65536
        0x0020b08c:    00000000    ....    DCD    0
        0x0020b090:    00000001    ....    DCD    1
        0x0020b094:    2a4d0004    ..M*    DCD    709689348
        0x0020b098:    00000000    ....    DCD    0
        0x0020b09c:    00000000    ....    DCD    0
        0x0020b0a0:    00000000    ....    DCD    0
        0x0020b0a4:    00000000    ....    DCD    0
        0x0020b0a8:    00000000    ....    DCD    0
        0x0020b0ac:    00000022    "...    DCD    34
        0x0020b0b0:    29080012    ...)    DCD    688390162
        0x0020b0b4:    00000303    ....    DCD    771
        0x0020b0b8:    00000000    ....    DCD    0
        0x0020b0bc:    00000000    ....    DCD    0
        0x0020b0c0:    00020000    ....    DCD    131072
        0x0020b0c4:    00000000    ....    DCD    0
        0x0020b0c8:    00000002    ....    DCD    2
        0x0020b0cc:    28030002    ...(    DCD    671285250
        0x0020b0d0:    00000002    ....    DCD    2
        0x0020b0d4:    00000000    ....    DCD    0
        0x0020b0d8:    00000000    ....    DCD    0
        0x0020b0dc:    00010000    ....    DCD    65536
        0x0020b0e0:    00000000    ....    DCD    0
        0x0020b0e4:    00000001    ....    DCD    1
        0x0020b0e8:    2a4b0004    ..K*    DCD    709558276
        0x0020b0ec:    00000000    ....    DCD    0
        0x0020b0f0:    00000000    ....    DCD    0
        0x0020b0f4:    00000000    ....    DCD    0
        0x0020b0f8:    00000000    ....    DCD    0
        0x0020b0fc:    00000000    ....    DCD    0
        0x0020b100:    00000002    ....    DCD    2
        0x0020b104:    29070004    ...)    DCD    688324612
        0x0020b108:    00000000    ....    DCD    0
        0x0020b10c:    00000000    ....    DCD    0
        0x0020b110:    00000000    ....    DCD    0
        0x0020b114:    00000000    ....    DCD    0
        0x0020b118:    00000000    ....    DCD    0
        0x0020b11c:    00000002    ....    DCD    2
        0x0020b120:    28030002    ...(    DCD    671285250
        0x0020b124:    0000001a    ....    DCD    26
        0x0020b128:    00000000    ....    DCD    0
        0x0020b12c:    00000000    ....    DCD    0
        0x0020b130:    00010000    ....    DCD    65536
        0x0020b134:    00000000    ....    DCD    0
        0x0020b138:    00000001    ....    DCD    1
        0x0020b13c:    2a220004    .."*    DCD    706871300
        0x0020b140:    00000000    ....    DCD    0
        0x0020b144:    00000000    ....    DCD    0
        0x0020b148:    00000000    ....    DCD    0
        0x0020b14c:    00000000    ....    DCD    0
        0x0020b150:    00000000    ....    DCD    0
        0x0020b154:    00000022    "...    DCD    34
        0x0020b158:    29020012    ...)    DCD    687996946
        0x0020b15c:    00000000    ....    DCD    0
        0x0020b160:    00000000    ....    DCD    0
        0x0020b164:    00000000    ....    DCD    0
        0x0020b168:    00020000    ....    DCD    131072
        0x0020b16c:    00000000    ....    DCD    0
        0x0020b170:    00000022    "...    DCD    34
        0x0020b174:    28030002    ...(    DCD    671285250
        0x0020b178:    0000000e    ....    DCD    14
        0x0020b17c:    00000000    ....    DCD    0
        0x0020b180:    00000000    ....    DCD    0
        0x0020b184:    00010000    ....    DCD    65536
        0x0020b188:    00000000    ....    DCD    0
        0x0020b18c:    00000001    ....    DCD    1
        0x0020b190:    2a320004    ..2*    DCD    707919876
        0x0020b194:    00000000    ....    DCD    0
        0x0020b198:    00000000    ....    DCD    0
        0x0020b19c:    00000000    ....    DCD    0
        0x0020b1a0:    00000000    ....    DCD    0
        0x0020b1a4:    00000000    ....    DCD    0
        0x0020b1a8:    00000022    "...    DCD    34
        0x0020b1ac:    28030002    ...(    DCD    671285250
        0x0020b1b0:    00000002    ....    DCD    2
        0x0020b1b4:    00000000    ....    DCD    0
        0x0020b1b8:    00000000    ....    DCD    0
        0x0020b1bc:    00010000    ....    DCD    65536
        0x0020b1c0:    00000000    ....    DCD    0
        0x0020b1c4:    00000001    ....    DCD    1
        0x0020b1c8:    2a4a0004    ..J*    DCD    709492740
        0x0020b1cc:    00000000    ....    DCD    0
        0x0020b1d0:    00000000    ....    DCD    0
        0x0020b1d4:    00000000    ....    DCD    0
        0x0020b1d8:    00000000    ....    DCD    0
        0x0020b1dc:    00000000    ....    DCD    0
        0x0020b1e0:    00000002    ....    DCD    2
        0x0020b1e4:    28030002    ...(    DCD    671285250
        0x0020b1e8:    00000004    ....    DCD    4
        0x0020b1ec:    00000000    ....    DCD    0
        0x0020b1f0:    00000000    ....    DCD    0
        0x0020b1f4:    00010000    ....    DCD    65536
        0x0020b1f8:    00000000    ....    DCD    0
        0x0020b1fc:    00000001    ....    DCD    1
        0x0020b200:    2a4c0004    ..L*    DCD    709623812
        0x0020b204:    00000000    ....    DCD    0
        0x0020b208:    00000000    ....    DCD    0
        0x0020b20c:    00000000    ....    DCD    0
        0x0020b210:    00000000    ....    DCD    0
        0x0020b214:    00000000    ....    DCD    0
        0x0020b218:    00000022    "...    DCD    34
        0x0020b21c:    28030002    ...(    DCD    671285250
        0x0020b220:    0000001a    ....    DCD    26
        0x0020b224:    00000000    ....    DCD    0
        0x0020b228:    00000000    ....    DCD    0
        0x0020b22c:    00010000    ....    DCD    65536
        0x0020b230:    00000000    ....    DCD    0
        0x0020b234:    00000001    ....    DCD    1
        0x0020b238:    2a4d0004    ..M*    DCD    709689348
        0x0020b23c:    00000000    ....    DCD    0
        0x0020b240:    00000000    ....    DCD    0
        0x0020b244:    00000000    ....    DCD    0
        0x0020b248:    00030000    ....    DCD    196608
        0x0020b24c:    00000000    ....    DCD    0
        0x0020b250:    00000022    "...    DCD    34
        0x0020b254:    29020012    ...)    DCD    687996946
        0x0020b258:    00000000    ....    DCD    0
        0x0020b25c:    00000000    ....    DCD    0
        0x0020b260:    00000000    ....    DCD    0
        0x0020b264:    00020000    ....    DCD    131072
        0x0020b268:    00000000    ....    DCD    0
        0x0020b26c:    00000022    "...    DCD    34
        0x0020b270:    29080012    ...)    DCD    688390162
        0x0020b274:    00000104    ....    DCD    260
        0x0020b278:    00000000    ....    DCD    0
        0x0020b27c:    00000000    ....    DCD    0
        0x0020b280:    00020000    ....    DCD    131072
        0x0020b284:    00000000    ....    DCD    0
        0x0020b288:    00000002    ....    DCD    2
    hids_cbs
        0x0020b28c:    00207fc9    .. .    DCD    2129865
        0x0020b290:    00208065    e. .    DCD    2130021
        0x0020b294:    002080ed    .. .    DCD    2130157
    .constdata
    bas_attr_tbl
        0x0020b298:    28000802    ...(    DCD    671090690
        0x0020b29c:    0000180f    ....    DCD    6159
        0x0020b2a0:    00000000    ....    DCD    0
        0x0020b2a4:    00000000    ....    DCD    0
        0x0020b2a8:    00020000    ....    DCD    131072
        0x0020b2ac:    00000000    ....    DCD    0
        0x0020b2b0:    00000001    ....    DCD    1
        0x0020b2b4:    28030002    ...(    DCD    671285250
        0x0020b2b8:    00000012    ....    DCD    18
        0x0020b2bc:    00000000    ....    DCD    0
        0x0020b2c0:    00000000    ....    DCD    0
        0x0020b2c4:    00010000    ....    DCD    65536
        0x0020b2c8:    00000000    ....    DCD    0
        0x0020b2cc:    00000001    ....    DCD    1
        0x0020b2d0:    2a190004    ...*    DCD    706281476
        0x0020b2d4:    00000000    ....    DCD    0
        0x0020b2d8:    00000000    ....    DCD    0
        0x0020b2dc:    00000000    ....    DCD    0
        0x0020b2e0:    00000000    ....    DCD    0
        0x0020b2e4:    00000000    ....    DCD    0
        0x0020b2e8:    00000001    ....    DCD    1
        0x0020b2ec:    29020012    ...)    DCD    687996946
        0x0020b2f0:    00000000    ....    DCD    0
        0x0020b2f4:    00000000    ....    DCD    0
        0x0020b2f8:    00000000    ....    DCD    0
        0x0020b2fc:    00020000    ....    DCD    131072
        0x0020b300:    00000000    ....    DCD    0
        0x0020b304:    00000011    ....    DCD    17
    bas_cbs
        0x0020b308:    00208243    C. .    DCD    2130499
        0x0020b30c:    00000000    ....    DCD    0
        0x0020b310:    002082ab    .. .    DCD    2130603
    .constdata
    dis_attr_tbl
        0x0020b314:    28000802    ...(    DCD    671090690
        0x0020b318:    0000180a    ....    DCD    6154
        0x0020b31c:    00000000    ....    DCD    0
        0x0020b320:    00000000    ....    DCD    0
        0x0020b324:    00020000    ....    DCD    131072
        0x0020b328:    00000000    ....    DCD    0
        0x0020b32c:    00000001    ....    DCD    1
        0x0020b330:    28030002    ...(    DCD    671285250
        0x0020b334:    00000002    ....    DCD    2
        0x0020b338:    00000000    ....    DCD    0
        0x0020b33c:    00000000    ....    DCD    0
        0x0020b340:    00010000    ....    DCD    65536
        0x0020b344:    00000000    ....    DCD    0
        0x0020b348:    00000001    ....    DCD    1
        0x0020b34c:    2a290004    ..)*    DCD    707330052
        0x0020b350:    00000000    ....    DCD    0
        0x0020b354:    00000000    ....    DCD    0
        0x0020b358:    00000000    ....    DCD    0
        0x0020b35c:    00000000    ....    DCD    0
        0x0020b360:    00000000    ....    DCD    0
        0x0020b364:    00000001    ....    DCD    1
        0x0020b368:    28030002    ...(    DCD    671285250
        0x0020b36c:    00000002    ....    DCD    2
        0x0020b370:    00000000    ....    DCD    0
        0x0020b374:    00000000    ....    DCD    0
        0x0020b378:    00010000    ....    DCD    65536
        0x0020b37c:    00000000    ....    DCD    0
        0x0020b380:    00000001    ....    DCD    1
        0x0020b384:    2a240004    ..$*    DCD    707002372
        0x0020b388:    00000000    ....    DCD    0
        0x0020b38c:    00000000    ....    DCD    0
        0x0020b390:    00000000    ....    DCD    0
        0x0020b394:    00000000    ....    DCD    0
        0x0020b398:    00000000    ....    DCD    0
        0x0020b39c:    00000001    ....    DCD    1
        0x0020b3a0:    28030002    ...(    DCD    671285250
        0x0020b3a4:    00000002    ....    DCD    2
        0x0020b3a8:    00000000    ....    DCD    0
        0x0020b3ac:    00000000    ....    DCD    0
        0x0020b3b0:    00010000    ....    DCD    65536
        0x0020b3b4:    00000000    ....    DCD    0
        0x0020b3b8:    00000001    ....    DCD    1
        0x0020b3bc:    2a250004    ..%*    DCD    707067908
        0x0020b3c0:    00000000    ....    DCD    0
        0x0020b3c4:    00000000    ....    DCD    0
        0x0020b3c8:    00000000    ....    DCD    0
        0x0020b3cc:    00000000    ....    DCD    0
        0x0020b3d0:    00000000    ....    DCD    0
        0x0020b3d4:    00000001    ....    DCD    1
        0x0020b3d8:    28030002    ...(    DCD    671285250
        0x0020b3dc:    00000002    ....    DCD    2
        0x0020b3e0:    00000000    ....    DCD    0
        0x0020b3e4:    00000000    ....    DCD    0
        0x0020b3e8:    00010000    ....    DCD    65536
        0x0020b3ec:    00000000    ....    DCD    0
        0x0020b3f0:    00000001    ....    DCD    1
        0x0020b3f4:    2a270004    ..'*    DCD    707198980
        0x0020b3f8:    00000000    ....    DCD    0
        0x0020b3fc:    00000000    ....    DCD    0
        0x0020b400:    00000000    ....    DCD    0
        0x0020b404:    00000000    ....    DCD    0
        0x0020b408:    00000000    ....    DCD    0
        0x0020b40c:    00000001    ....    DCD    1
        0x0020b410:    28030002    ...(    DCD    671285250
        0x0020b414:    00000002    ....    DCD    2
        0x0020b418:    00000000    ....    DCD    0
        0x0020b41c:    00000000    ....    DCD    0
        0x0020b420:    00010000    ....    DCD    65536
        0x0020b424:    00000000    ....    DCD    0
        0x0020b428:    00000001    ....    DCD    1
        0x0020b42c:    2a260004    ..&*    DCD    707133444
        0x0020b430:    00000000    ....    DCD    0
        0x0020b434:    00000000    ....    DCD    0
        0x0020b438:    00000000    ....    DCD    0
        0x0020b43c:    00000000    ....    DCD    0
        0x0020b440:    00000000    ....    DCD    0
        0x0020b444:    00000001    ....    DCD    1
        0x0020b448:    28030002    ...(    DCD    671285250
        0x0020b44c:    00000002    ....    DCD    2
        0x0020b450:    00000000    ....    DCD    0
        0x0020b454:    00000000    ....    DCD    0
        0x0020b458:    00010000    ....    DCD    65536
        0x0020b45c:    00000000    ....    DCD    0
        0x0020b460:    00000001    ....    DCD    1
        0x0020b464:    2a280004    ..(*    DCD    707264516
        0x0020b468:    00000000    ....    DCD    0
        0x0020b46c:    00000000    ....    DCD    0
        0x0020b470:    00000000    ....    DCD    0
        0x0020b474:    00000000    ....    DCD    0
        0x0020b478:    00000000    ....    DCD    0
        0x0020b47c:    00000001    ....    DCD    1
        0x0020b480:    28030002    ...(    DCD    671285250
        0x0020b484:    00000002    ....    DCD    2
        0x0020b488:    00000000    ....    DCD    0
        0x0020b48c:    00000000    ....    DCD    0
        0x0020b490:    00010000    ....    DCD    65536
        0x0020b494:    00000000    ....    DCD    0
        0x0020b498:    00000001    ....    DCD    1
        0x0020b49c:    2a230004    ..#*    DCD    706936836
        0x0020b4a0:    00000000    ....    DCD    0
        0x0020b4a4:    00000000    ....    DCD    0
        0x0020b4a8:    00000000    ....    DCD    0
        0x0020b4ac:    00000000    ....    DCD    0
        0x0020b4b0:    00000000    ....    DCD    0
        0x0020b4b4:    00000001    ....    DCD    1
        0x0020b4b8:    28030002    ...(    DCD    671285250
        0x0020b4bc:    00000002    ....    DCD    2
        0x0020b4c0:    00000000    ....    DCD    0
        0x0020b4c4:    00000000    ....    DCD    0
        0x0020b4c8:    00010000    ....    DCD    65536
        0x0020b4cc:    00000000    ....    DCD    0
        0x0020b4d0:    00000001    ....    DCD    1
        0x0020b4d4:    2a2a0004    ..**    DCD    707395588
        0x0020b4d8:    00000000    ....    DCD    0
        0x0020b4dc:    00000000    ....    DCD    0
        0x0020b4e0:    00000000    ....    DCD    0
        0x0020b4e4:    00000000    ....    DCD    0
        0x0020b4e8:    00000000    ....    DCD    0
        0x0020b4ec:    00000001    ....    DCD    1
        0x0020b4f0:    28030002    ...(    DCD    671285250
        0x0020b4f4:    00000002    ....    DCD    2
        0x0020b4f8:    00000000    ....    DCD    0
        0x0020b4fc:    00000000    ....    DCD    0
        0x0020b500:    00010000    ....    DCD    65536
        0x0020b504:    00000000    ....    DCD    0
        0x0020b508:    00000001    ....    DCD    1
        0x0020b50c:    2a500004    ..P*    DCD    709885956
        0x0020b510:    00000000    ....    DCD    0
        0x0020b514:    00000000    ....    DCD    0
        0x0020b518:    00000000    ....    DCD    0
        0x0020b51c:    00000000    ....    DCD    0
        0x0020b520:    00000000    ....    DCD    0
        0x0020b524:    00000001    ....    DCD    1
    dis_cbs
        0x0020b528:    00208419    .. .    DCD    2130969
        0x0020b52c:    00000000    ....    DCD    0
        0x0020b530:    00000000    ....    DCD    0
    .constdata
    GATT_UUID_OTA_SERVICE
        0x0020b534:    2e4da212    ..M.    DCD    776839698
        0x0020b538:    8e4814fe    ..H.    DCD    2387088638
        0x0020b53c:    3c17d293    ...<    DCD    1008194195
        0x0020b540:    0000d0ff    ....    DCD    53503
    .constdata
    gattOtaServiceTable
        0x0020b544:    28000800    ...(    DCD    671090688
        0x0020b548:    00000000    ....    DCD    0
        0x0020b54c:    00000000    ....    DCD    0
        0x0020b550:    00000000    ....    DCD    0
        0x0020b554:    00100000    ....    DCD    1048576
        0x0020b558:    0020b534    4. .    DCD    2143540
        0x0020b55c:    00000001    ....    DCD    1
        0x0020b560:    28030002    ...(    DCD    671285250
        0x0020b564:    00000004    ....    DCD    4
        0x0020b568:    00000000    ....    DCD    0
        0x0020b56c:    00000000    ....    DCD    0
        0x0020b570:    00010000    ....    DCD    65536
        0x0020b574:    00000000    ....    DCD    0
        0x0020b578:    00000001    ....    DCD    1
        0x0020b57c:    ffd10004    ....    DCD    4291887108
        0x0020b580:    00000000    ....    DCD    0
        0x0020b584:    00000000    ....    DCD    0
        0x0020b588:    00000000    ....    DCD    0
        0x0020b58c:    00020000    ....    DCD    131072
        0x0020b590:    00000000    ....    DCD    0
        0x0020b594:    00000011    ....    DCD    17
        0x0020b598:    28030002    ...(    DCD    671285250
        0x0020b59c:    00000002    ....    DCD    2
        0x0020b5a0:    00000000    ....    DCD    0
        0x0020b5a4:    00000000    ....    DCD    0
        0x0020b5a8:    00010000    ....    DCD    65536
        0x0020b5ac:    00000000    ....    DCD    0
        0x0020b5b0:    00000001    ....    DCD    1
        0x0020b5b4:    ffd20004    ....    DCD    4291952644
        0x0020b5b8:    00000000    ....    DCD    0
        0x0020b5bc:    00000000    ....    DCD    0
        0x0020b5c0:    00000000    ....    DCD    0
        0x0020b5c4:    00010000    ....    DCD    65536
        0x0020b5c8:    00000000    ....    DCD    0
        0x0020b5cc:    00000001    ....    DCD    1
        0x0020b5d0:    28030002    ...(    DCD    671285250
        0x0020b5d4:    00000002    ....    DCD    2
        0x0020b5d8:    00000000    ....    DCD    0
        0x0020b5dc:    00000000    ....    DCD    0
        0x0020b5e0:    00010000    ....    DCD    65536
        0x0020b5e4:    00000000    ....    DCD    0
        0x0020b5e8:    00000001    ....    DCD    1
        0x0020b5ec:    ffd30004    ....    DCD    4292018180
        0x0020b5f0:    00000000    ....    DCD    0
        0x0020b5f4:    00000000    ....    DCD    0
        0x0020b5f8:    00000000    ....    DCD    0
        0x0020b5fc:    00010000    ....    DCD    65536
        0x0020b600:    00000000    ....    DCD    0
        0x0020b604:    00000001    ....    DCD    1
        0x0020b608:    28030002    ...(    DCD    671285250
        0x0020b60c:    00000002    ....    DCD    2
        0x0020b610:    00000000    ....    DCD    0
        0x0020b614:    00000000    ....    DCD    0
        0x0020b618:    00010000    ....    DCD    65536
        0x0020b61c:    00000000    ....    DCD    0
        0x0020b620:    00000001    ....    DCD    1
        0x0020b624:    ffd40004    ....    DCD    4292083716
        0x0020b628:    00000000    ....    DCD    0
        0x0020b62c:    00000000    ....    DCD    0
        0x0020b630:    00000000    ....    DCD    0
        0x0020b634:    00010000    ....    DCD    65536
        0x0020b638:    00000000    ....    DCD    0
        0x0020b63c:    00000001    ....    DCD    1
        0x0020b640:    28030002    ...(    DCD    671285250
        0x0020b644:    00000002    ....    DCD    2
        0x0020b648:    00000000    ....    DCD    0
        0x0020b64c:    00000000    ....    DCD    0
        0x0020b650:    00010000    ....    DCD    65536
        0x0020b654:    00000000    ....    DCD    0
        0x0020b658:    00000001    ....    DCD    1
        0x0020b65c:    ffd50004    ....    DCD    4292149252
        0x0020b660:    00000000    ....    DCD    0
        0x0020b664:    00000000    ....    DCD    0
        0x0020b668:    00000000    ....    DCD    0
        0x0020b66c:    00010000    ....    DCD    65536
        0x0020b670:    00000000    ....    DCD    0
        0x0020b674:    00000001    ....    DCD    1
        0x0020b678:    28030002    ...(    DCD    671285250
        0x0020b67c:    00000004    ....    DCD    4
        0x0020b680:    00000000    ....    DCD    0
        0x0020b684:    00000000    ....    DCD    0
        0x0020b688:    00010000    ....    DCD    65536
        0x0020b68c:    00000000    ....    DCD    0
        0x0020b690:    00000001    ....    DCD    1
        0x0020b694:    ffd80004    ....    DCD    4292345860
        0x0020b698:    00000000    ....    DCD    0
        0x0020b69c:    00000000    ....    DCD    0
        0x0020b6a0:    00000000    ....    DCD    0
        0x0020b6a4:    00000000    ....    DCD    0
        0x0020b6a8:    00000000    ....    DCD    0
        0x0020b6ac:    00000010    ....    DCD    16
        0x0020b6b0:    28030002    ...(    DCD    671285250
        0x0020b6b4:    00000002    ....    DCD    2
        0x0020b6b8:    00000000    ....    DCD    0
        0x0020b6bc:    00000000    ....    DCD    0
        0x0020b6c0:    00010000    ....    DCD    65536
        0x0020b6c4:    00000000    ....    DCD    0
        0x0020b6c8:    00000001    ....    DCD    1
        0x0020b6cc:    fff10004    ....    DCD    4293984260
        0x0020b6d0:    00000000    ....    DCD    0
        0x0020b6d4:    00000000    ....    DCD    0
        0x0020b6d8:    00000000    ....    DCD    0
        0x0020b6dc:    00010000    ....    DCD    65536
        0x0020b6e0:    00000000    ....    DCD    0
        0x0020b6e4:    00000001    ....    DCD    1
        0x0020b6e8:    28030002    ...(    DCD    671285250
        0x0020b6ec:    00000008    ....    DCD    8
        0x0020b6f0:    00000000    ....    DCD    0
        0x0020b6f4:    00000000    ....    DCD    0
        0x0020b6f8:    00010000    ....    DCD    65536
        0x0020b6fc:    00000000    ....    DCD    0
        0x0020b700:    00000001    ....    DCD    1
        0x0020b704:    fff20004    ....    DCD    4294049796
        0x0020b708:    00000000    ....    DCD    0
        0x0020b70c:    00000000    ....    DCD    0
        0x0020b710:    00000000    ....    DCD    0
        0x0020b714:    00050000    ....    DCD    327680
        0x0020b718:    00000000    ....    DCD    0
        0x0020b71c:    00000010    ....    DCD    16
        0x0020b720:    28030002    ...(    DCD    671285250
        0x0020b724:    00000002    ....    DCD    2
        0x0020b728:    00000000    ....    DCD    0
        0x0020b72c:    00000000    ....    DCD    0
        0x0020b730:    00010000    ....    DCD    65536
        0x0020b734:    00000000    ....    DCD    0
        0x0020b738:    00000001    ....    DCD    1
        0x0020b73c:    ffe00004    ....    DCD    4292870148
        0x0020b740:    00000000    ....    DCD    0
        0x0020b744:    00000000    ....    DCD    0
        0x0020b748:    00000000    ....    DCD    0
        0x0020b74c:    00010000    ....    DCD    65536
        0x0020b750:    00000000    ....    DCD    0
        0x0020b754:    00000001    ....    DCD    1
    OTAServiceCBs
        0x0020b758:    00208675    u. .    DCD    2131573
        0x0020b75c:    002085d1    .. .    DCD    2131409
        0x0020b760:    00000000    ....    DCD    0
    .constdata
    scan_rsp_data
        0x0020b764:    03c11903    ....    DCD    62986499
    adv_data
        0x0020b768:    03050102    ....    DCD    50659586
        0x0020b76c:    0d181203    ....    DCD    219681283
        0x0020b770:    454c4209    .BLE    DCD    1162625545
        0x0020b774:    59454b5f    _KEY    DCD    1497713503
        0x0020b778:    52414f42    BOAR    DCD    1380011842
        0x0020b77c:    00000044    D...    DCD    68
        0x0020b780:    5f454c42    BLE_    DCD    1598377026
        0x0020b784:    4259454b    KEYB    DCD    1113146699
        0x0020b788:    4452414f    OARD    DCD    1146241359
        0x0020b78c:    00000000    ....    DCD    0
        0x0020b790:    00000000    ....    DCD    0
        0x0020b794:    00000000    ....    DCD    0
        0x0020b798:    00000000    ....    DCD    0
        0x0020b79c:    00000000    ....    DCD    0
        0x0020b7a0:    00000000    ....    DCD    0
        0x0020b7a4:    00000000    ....    DCD    0
    .constdata
    __func__
        0x0020b7a8:    5f707061    app_    DCD    1601204321
        0x0020b7ac:    646e6573    send    DCD    1684956531
        0x0020b7b0:    67736d5f    _msg    DCD    1735617887
        0x0020b7b4:    5f6f745f    _to_    DCD    1601139807
        0x0020b7b8:    74707061    appt    DCD    1953525857
        0x0020b7bc:    006b7361    ask.    DCD    7041889
    __func__
        0x0020b7c0:    5f707061    app_    DCD    1601204321
        0x0020b7c4:    6e69616d    main    DCD    1852399981
        0x0020b7c8:    7361745f    _tas    DCD    1935766623
        0x0020b7cc:    006b        k.      DCW    107
    .constdata
    key_map
        0x0020b7ce:    0027        '.      DCW    39
        0x0020b7d0:    001f001e    ....    DCD    2031646
        0x0020b7d4:    00210020     .!.    DCD    2162720
        0x0020b7d8:    00230022    ".#.    DCD    2293794
        0x0020b7dc:    00250024    $.%.    DCD    2424868
        0x0020b7e0:    002a0026    &.*.    DCD    2752550
        0x0020b7e4:    00040028    (...    DCD    262184
        0x0020b7e8:    00500039    9.P.    DCD    5242937
        0x0020b7ec:    0000004f    O...    DCD    79
    .conststring
        0x0020b7f0:    30433249    I2C0    DCD    809710153
        0x0020b7f4:    00000000    ....    DCD    0
        0x0020b7f8:    30495053    SPI0    DCD    810111059
        0x0020b7fc:    00000000    ....    DCD    0
        0x0020b800:    54524155    UART    DCD    1414676821
        0x0020b804:    00000030    0...    DCD    48
        0x0020b808:    414d4447    GDMA    DCD    1095582791
        0x0020b80c:    68432030    0 Ch    DCD    1749229616
        0x0020b810:    656e6e61    anne    DCD    1701736033
        0x0020b814:    0000306c    l0..    DCD    12396
        0x0020b818:    4f495047    GPIO    DCD    1330204743
        0x0020b81c:    6f72475f    _Gro    DCD    1869760351
        0x0020b820:    00307075    up0.    DCD    3174517
        0x0020b824:    31433249    I2C1    DCD    826487369
        0x0020b828:    00000000    ....    DCD    0
        0x0020b82c:    31495053    SPI1    DCD    826888275
        0x0020b830:    00000000    ....    DCD    0
        0x0020b834:    54524155    UART    DCD    1414676821
        0x0020b838:    00000031    1...    DCD    49
        0x0020b83c:    414d4447    GDMA    DCD    1095582791
        0x0020b840:    68432030    0 Ch    DCD    1749229616
        0x0020b844:    656e6e61    anne    DCD    1701736033
        0x0020b848:    0000316c    l1..    DCD    12652
        0x0020b84c:    4f495047    GPIO    DCD    1330204743
        0x0020b850:    6f72475f    _Gro    DCD    1869760351
        0x0020b854:    00317075    up1.    DCD    3240053
        0x0020b858:    324d4954    TIM2    DCD    843925844
        0x0020b85c:    00000000    ....    DCD    0
        0x0020b860:    54524155    UART    DCD    1414676821
        0x0020b864:    00000032    2...    DCD    50
        0x0020b868:    414d4447    GDMA    DCD    1095582791
        0x0020b86c:    68432030    0 Ch    DCD    1749229616
        0x0020b870:    656e6e61    anne    DCD    1701736033
        0x0020b874:    0000326c    l2..    DCD    12908
        0x0020b878:    4f495047    GPIO    DCD    1330204743
        0x0020b87c:    6f72475f    _Gro    DCD    1869760351
        0x0020b880:    00327075    up2.    DCD    3305589
        0x0020b884:    334d4954    TIM3    DCD    860703060
        0x0020b888:    00000000    ....    DCD    0
        0x0020b88c:    414d4447    GDMA    DCD    1095582791
        0x0020b890:    68432030    0 Ch    DCD    1749229616
        0x0020b894:    656e6e61    anne    DCD    1701736033
        0x0020b898:    0000336c    l3..    DCD    13164
        0x0020b89c:    4f495047    GPIO    DCD    1330204743
        0x0020b8a0:    6f72475f    _Gro    DCD    1869760351
        0x0020b8a4:    00337075    up3.    DCD    3371125
        0x0020b8a8:    344d4954    TIM4    DCD    877480276
        0x0020b8ac:    00000000    ....    DCD    0
        0x0020b8b0:    4f495047    GPIO    DCD    1330204743
        0x0020b8b4:    00000034    4...    DCD    52
        0x0020b8b8:    414d4447    GDMA    DCD    1095582791
        0x0020b8bc:    68432030    0 Ch    DCD    1749229616
        0x0020b8c0:    656e6e61    anne    DCD    1701736033
        0x0020b8c4:    0000346c    l4..    DCD    13420
        0x0020b8c8:    354d4954    TIM5    DCD    894257492
        0x0020b8cc:    00000000    ....    DCD    0
        0x0020b8d0:    4f495047    GPIO    DCD    1330204743
        0x0020b8d4:    00000035    5...    DCD    53
        0x0020b8d8:    414d4447    GDMA    DCD    1095582791
        0x0020b8dc:    68432030    0 Ch    DCD    1749229616
        0x0020b8e0:    656e6e61    anne    DCD    1701736033
        0x0020b8e4:    0000356c    l5..    DCD    13676
        0x0020b8e8:    364d4954    TIM6    DCD    911034708
        0x0020b8ec:    00000000    ....    DCD    0
        0x0020b8f0:    656d6954    Time    DCD    1701669204
        0x0020b8f4:    372d3472    r4-7    DCD    925709426
        0x0020b8f8:    00000000    ....    DCD    0
        0x0020b8fc:    374d4954    TIM7    DCD    927811924
        0x0020b900:    00000000    ....    DCD    0
        0x0020b904:    414d5442    BTMA    DCD    1095586882
        0x0020b908:    00000043    C...    DCD    67
        0x0020b90c:    00434441    ADC.    DCD    4408385
        0x0020b910:    00435452    RTC.    DCD    4412498
        0x0020b914:    00435653    SVC.    DCD    4413011
        0x0020b918:    0044434c    LCD.    DCD    4473676
        0x0020b91c:    00474457    WDG.    DCD    4670551
        0x0020b920:    00494d4e    NMI.    DCD    4803918
        0x0020b924:    4f43504c    LPCO    DCD    1329811532
        0x0020b928:    0000504d    MP..    DCD    20557
        0x0020b92c:    74696e49    Init    DCD    1953066569
        0x0020b930:    536c6169    ialS    DCD    1399611753
        0x0020b934:    00000050    P...    DCD    80
        0x0020b938:    00005249    IR..    DCD    21065
        0x0020b93c:    646e6550    Pend    DCD    1684956496
        0x0020b940:    00005653    SV..    DCD    22099
        0x0020b944:    32495053    SPI2    DCD    843665491
        0x0020b948:    00000057    W...    DCD    87
        0x0020b94c:    524f5053    SPOR    DCD    1380929619
        0x0020b950:    52203154    T1 R    DCD    1377841492
        0x0020b954:    00000058    X...    DCD    88
        0x0020b958:    30533249    I2S0    DCD    810758729
        0x0020b95c:    0058525f    _RX.    DCD    5788255
        0x0020b960:    524f5053    SPOR    DCD    1380929619
        0x0020b964:    54203154    T1 T    DCD    1411395924
        0x0020b968:    00000058    X...    DCD    88
        0x0020b96c:    30533249    I2S0    DCD    810758729
        0x0020b970:    0058545f    _TX.    DCD    5788767
        0x0020b974:    64767352    Rsvd    DCD    1685484370
        0x0020b978:    00000000    ....    DCD    0
        0x0020b97c:    63656451    Qdec    DCD    1667589201
        0x0020b980:    0065646f    ode.    DCD    6644847
        0x0020b984:    4d6d654d    MemM    DCD    1299014989
        0x0020b988:    67616e61    anag    DCD    1734438497
        0x0020b98c:    00000065    e...    DCD    101
        0x0020b990:    5f495053    SPI_    DCD    1598640211
        0x0020b994:    73616c46    Flas    DCD    1935764550
        0x0020b998:    00000068    h...    DCD    104
        0x0020b99c:    54737953    SysT    DCD    1416853843
        0x0020b9a0:    006b6369    ick.    DCD    7037801
        0x0020b9a4:    69726550    Peri    DCD    1769104720
        0x0020b9a8:    72656870    pher    DCD    1919248496
        0x0020b9ac:    00006c61    al..    DCD    27745
        0x0020b9b0:    74737953    Syst    DCD    1953724755
        0x0020b9b4:    00006d65    em..    DCD    28005
        0x0020b9b8:    74616c50    Plat    DCD    1952541776
        0x0020b9bc:    6d726f66    form    DCD    1836216166
        0x0020b9c0:    00000000    ....    DCD    0
        0x0020b9c4:    7379654b    Keys    DCD    1937335627
        0x0020b9c8:    006e6163    can.    DCD    7233891
        0x0020b9cc:    75626544    Debu    DCD    1969382724
        0x0020b9d0:    6e6f4d67    gMon    DCD    1852788071
        0x0020b9d4:    00000000    ....    DCD    0
        0x0020b9d8:    65736552    Rese    DCD    1702061394
        0x0020b9dc:    00000074    t...    DCD    116
        0x0020b9e0:    64726148    Hard    DCD    1685217608
        0x0020b9e4:    6c756146    Faul    DCD    1819631942
        0x0020b9e8:    00000074    t...    DCD    116
        0x0020b9ec:    67617355    Usag    DCD    1734439765
        0x0020b9f0:    75614665    eFau    DCD    1969309285
        0x0020b9f4:    0000746c    lt..    DCD    29804
        0x0020b9f8:    46737542    BusF    DCD    1181971778
        0x0020b9fc:    746c7561    ault    DCD    1953264993
        0x0020ba00:    00000000    ....    DCD    0
        0x0020ba04:    5f415450    PTA_    DCD    1598116944
        0x0020ba08:    6c69614d    Mail    DCD    1818845517
        0x0020ba0c:    00786f62    box.    DCD    7892834
    .conststring
        0x0020ba10:    6e656353    Scen    DCD    1852138323
        0x0020ba14:    00425f65    e_B.    DCD    4349797
        0x0020ba18:    6e656353    Scen    DCD    1852138323
        0x0020ba1c:    00435f65    e_C.    DCD    4415333
        0x0020ba20:    746f6f42    Boot    DCD    1953460034
        0x0020ba24:    65636e4f    Once    DCD    1701015119
        0x0020ba28:    00000000    ....    DCD    0

** Section #6 'RAM_DATA_ON' (SHT_PROGBITS) [SHF_ALLOC + SHF_WRITE]
    Size   : 160 bytes (alignment 4)
    Address: 0x0020ba2c

    0x20ba2c:   2c 03 00 00 00 01 0e 01 5d 00 00 00 00 01 00 01    ,.......].......
    0x20ba3c:   02 00 00 03 04 05 fe 00 65 78 70 65 72 69 6d 65    ........experime
    0x20ba4c:   6e 74 61 6c 00 00 00 00 00 00 00 00 00 00 00 00    ntal............
    0x20ba5c:   00 00 00 00 20 ba 20 00 10 26 81 00 d0 26 81 00    .... . ..&...&..
    0x20ba6c:   e4 bc 20 00 a4 bd 20 00 a4 bd 20 00 c0 00 00 00    .. ... ... .....
    0x20ba7c:   00 00 00 00 00 00 00 00 10 ba 20 00 d0 26 81 00    .......... ..&..
    0x20ba8c:   d0 26 81 00 e4 bc 20 00 e4 bc 20 00 e4 bc 20 00    .&.... ... ... .
    0x20ba9c:   00 00 00 00 00 00 00 00 00 00 00 00 18 ba 20 00    .............. .
    0x20baac:   d0 26 81 00 d0 26 81 00 e4 bc 20 00 e4 bc 20 00    .&...&.... ... .
    0x20babc:   e4 bc 20 00 00 00 00 00 00 00 00 00 00 00 00 00    .. .............


** Section #7 'RAM_DATA_ON' (SHT_NOBITS) [SHF_ALLOC + SHF_WRITE]
    Size   : 536 bytes (alignment 4)
    Address: 0x0020bacc


** Section #8 'OVERLAY_A' (SHT_PROGBITS) [SHF_ALLOC + SHF_EXECINSTR]
    Size   : 192 bytes (alignment 4)
    Address: 0x0020bce4

    $t
    .app.overlay_a
    AppUpdateVectorTable
;;; .\..\..\..\src\mcu\rtl876x\system_rtl8762c.c
;;;474    static void AppUpdateVectorTable(void)
;;;474    {
        0x0020bce4:    e92d43f0    -..C    PUSH     {r4-r9,lr}
        0x0020bce8:    b0bd        ..      SUB      sp,sp,#0xf4
;;;475        extern uint32_t Load$$RAM_VECTOR_TABLE$$RO$$Base;
;;;476        extern uint32_t Image$$RAM_VECTOR_TABLE$$RO$$Length;
;;;477        extern void Default_Handler(void);
;;;478        const char *SysException[] =
        0x0020bcea:    2240        @"      MOVS     r2,#0x40
        0x0020bcec:    4926        &I      LDR      r1,[pc,#152] ; [0x20bd88] = 0x20add8
        0x0020bcee:    a82d        -.      ADD      r0,sp,#0xb4
        0x0020bcf0:    f64ef95a    N.Z.    BL       __aeabi_memcpy4 ; 0x59fa8
;;;479        {
;;;480            "InitialSP", "Reset", "NMI", "HardFault", "MemManage", "BusFault", "UsageFault", "Rsvd",
;;;481            "Rsvd", "Rsvd", "Rsvd", "SVC", "DebugMon", "Rsvd", "PendSV", "SysTick"
;;;482        };
;;;483        const char *ExtIrq[] =
        0x0020bcf4:    4924        $I      LDR      r1,[pc,#144] ; [0x20bd88] = 0x20add8
        0x0020bcf6:    22b4        ."      MOVS     r2,#0xb4
        0x0020bcf8:    3140        @1      ADDS     r1,r1,#0x40
        0x0020bcfa:    4668        hF      MOV      r0,sp
        0x0020bcfc:    f64ef954    N.T.    BL       __aeabi_memcpy4 ; 0x59fa8
        0x0020bd00:    4924        $I      LDR      r1,[pc,#144] ; [0x20bd94] = 0xe000ed08
;;;484        {
;;;485            "System", "WDG", "BTMAC", "TIM3", "TIM2", "Platform", "I2S0_TX", "I2S0_RX", "Timer4-7",
;;;486            "GPIO4", "GPIO5", "UART1", "UART0", "RTC", "SPI0", "SPI1", "I2C0", "I2C1", "ADC",
;;;487            "Peripheral", "GDMA0 Channel0", "GDMA0 Channel1", "GDMA0 Channel2", "GDMA0 Channel3",
;;;488            "GDMA0 Channel4", "GDMA0 Channel5", "GPIO_Group3", "GPIO_Group2", "IR", "GPIO_Group1",
;;;489            "GPIO_Group0", "UART2", "TIM4", "TIM5", "TIM6", "TIM7", "SPI_Flash", "Qdecode",
;;;490            "Keyscan", "SPI2W", "LPCOMP", "PTA_Mailbox", "SPORT1 TX", "SPORT1 RX", "LCD"
;;;491        };
;;;492    
;;;493        IRQ_Fun *pRamVector    = (IRQ_Fun *)VTOR_RAM_ADDR;
        0x0020bd02:    f44f1000    O...    MOV      r0,#0x200000
        0x0020bd06:    4d21        !M      LDR      r5,[pc,#132] ; [0x20bd8c] = 0x80e650
        0x0020bd08:    4f21        !O      LDR      r7,[pc,#132] ; [0x20bd90] = 0xf4
        0x0020bd0a:    6809        .h      LDR      r1,[r1,#0]
        0x0020bd0c:    4606        .F      MOV      r6,r0
;;;494        IRQ_Fun *pAppVector    = (IRQ_Fun *)&Load$$RAM_VECTOR_TABLE$$RO$$Base;
;;;495        uint32_t AppVectorSize = (uint32_t)&Image$$RAM_VECTOR_TABLE$$RO$$Length;
;;;496        uint32_t i             = 0;
        0x0020bd0e:    2400        .$      MOVS     r4,#0
;;;497    
;;;498        if (SCB->VTOR != VTOR_RAM_ADDR)
        0x0020bd10:    42b1        .B      CMP      r1,r6
        0x0020bd12:    d001        ..      BEQ      0x20bd18 ; AppUpdateVectorTable + 52
;;;499        {
;;;500            RamVectorTableInit(VTOR_RAM_ADDR);
        0x0020bd14:    f5f8ffc8    ....    BL       RamVectorTableInit ; 0x4ca8
        0x0020bd18:    f04f5805    O..X    MOV      r8,#0x21400000
        0x0020bd1c:    f8df9078    ..x.    LDR      r9,[pc,#120] ; [0x20bd98] = 0x21100101
;;;501        }
;;;502    
;;;503        /* Update APP defined handlers */
;;;504        for (i = 0; i < AppVectorSize / 4; ++i)
        0x0020bd20:    e027        '.      B        0x20bd72 ; AppUpdateVectorTable + 142
;;;505        {
;;;506            if (i == 1) //skip reset_handler remap
        0x0020bd22:    2c01        .,      CMP      r4,#1
        0x0020bd24:    d024        $.      BEQ      0x20bd70 ; AppUpdateVectorTable + 140
;;;507            {
;;;508                continue;
;;;509            }
;;;510    
;;;511            if ((pAppVector[i] != Default_Handler) && (pAppVector[i] != 0))
        0x0020bd26:    f8550024    U.$.    LDR      r0,[r5,r4,LSL #2]
        0x0020bd2a:    491c        .I      LDR      r1,[pc,#112] ; [0x20bd9c] = 0x207e79
        0x0020bd2c:    4288        .B      CMP      r0,r1
        0x0020bd2e:    d01f        ..      BEQ      0x20bd70 ; AppUpdateVectorTable + 140
        0x0020bd30:    b1f0        ..      CBZ      r0,0x20bd70 ; AppUpdateVectorTable + 140
;;;512            {
;;;513                if (i < System_VECTORn)
        0x0020bd32:    2c10        .,      CMP      r4,#0x10
        0x0020bd34:    d209        ..      BCS      0x20bd4a ; AppUpdateVectorTable + 102
;;;514                {
;;;515                    OS_PRINT_WARN1("Warning! %s is updated by APP!", TRACE_STRING(SysException[i]));
        0x0020bd36:    a82d        -.      ADD      r0,sp,#0xb4
        0x0020bd38:    f8501024    P.$.    LDR      r1,[r0,r4,LSL #2]
        0x0020bd3c:    4640        @F      MOV      r0,r8
        0x0020bd3e:    f5fcf894    ....    BL       trace_string ; 0x7e6a
        0x0020bd42:    4603        .F      MOV      r3,r0
        0x0020bd44:    2201        ."      MOVS     r2,#1
        0x0020bd46:    4916        .I      LDR      r1,[pc,#88] ; [0x20bda0] = 0x8800020
        0x0020bd48:    e00b        ..      B        0x20bd62 ; AppUpdateVectorTable + 126
;;;516                }
;;;517                else
;;;518                {
;;;519                    OS_PRINT_WARN1("Warning! ISR %s is updated by APP!",
        0x0020bd4a:    4668        hF      MOV      r0,sp
        0x0020bd4c:    eb000084    ....    ADD      r0,r0,r4,LSL #2
        0x0020bd50:    f8501c40    P.@.    LDR      r1,[r0,#-0x40]
        0x0020bd54:    4640        @F      MOV      r0,r8
        0x0020bd56:    f5fcf888    ....    BL       trace_string ; 0x7e6a
        0x0020bd5a:    4911        .I      LDR      r1,[pc,#68] ; [0x20bda0] = 0x8800020
        0x0020bd5c:    2201        ."      MOVS     r2,#1
        0x0020bd5e:    4603        .F      MOV      r3,r0
        0x0020bd60:    3124        $1      ADDS     r1,r1,#0x24
        0x0020bd62:    4648        HF      MOV      r0,r9
        0x0020bd64:    f5fbfe7b    ..{.    BL       log_buffer ; 0x7a5e
;;;520                                   TRACE_STRING(ExtIrq[i - System_VECTORn]));
;;;521                }
;;;522    
;;;523                pRamVector[i] = pAppVector[i];
        0x0020bd68:    f8550024    U.$.    LDR      r0,[r5,r4,LSL #2]
        0x0020bd6c:    f8460024    F.$.    STR      r0,[r6,r4,LSL #2]
        0x0020bd70:    1c64        d.      ADDS     r4,r4,#1
        0x0020bd72:    ebb40f97    ....    CMP      r4,r7,LSR #2
        0x0020bd76:    d3d4        ..      BCC      0x20bd22 ; AppUpdateVectorTable + 62
;;;524            }
;;;525        }
;;;526    
;;;527        __DMB();
        0x0020bd78:    f3bf8f5f    .._.    DMB      
;;;528        __DSB();
        0x0020bd7c:    f3bf8f4f    ..O.    DSB      
;;;529    }
        0x0020bd80:    b03d        =.      ADD      sp,sp,#0xf4
        0x0020bd82:    e8bd83f0    ....    POP      {r4-r9,pc}
    $d
        0x0020bd86:    0000        ..      DCW    0
        0x0020bd88:    0020add8    .. .    DCD    2141656
        0x0020bd8c:    0080e650    P...    DCD    8447568
        0x0020bd90:    000000f4    ....    DCD    244
        0x0020bd94:    e000ed08    ....    DCD    3758157064
        0x0020bd98:    21100101    ...!    DCD    554696961
        0x0020bd9c:    00207e79    y~ .    DCD    2129529
        0x0020bda0:    08800020     ...    DCD    142606368

** Section #9 'App.trace' (SHT_PROGBITS) [SHF_ALLOC]
    Size   : 6200 bytes (alignment 4)
    Address: 0x08800000

    0x8800000:   21 21 21 53 44 4b 20 56 65 72 3a 20 25 73 2c 20    !!!SDK Ver: %s, 
    0x8800010:   42 75 69 6c 64 20 54 69 6d 65 3a 20 25 73 00 00    Build Time: %s..
    0x8800020:   21 21 2a 57 61 72 6e 69 6e 67 21 20 25 73 20 69    !!*Warning! %s i
    0x8800030:   73 20 75 70 64 61 74 65 64 20 62 79 20 41 50 50    s updated by APP
    0x8800040:   21 00 00 00 21 21 2a 57 61 72 6e 69 6e 67 21 20    !...!!*Warning! 
    0x8800050:   49 53 52 20 25 73 20 69 73 20 75 70 64 61 74 65    ISR %s is update
    0x8800060:   64 20 62 79 20 41 50 50 21 00 00 00 21 2a 2a 68    d by APP!...!**h
    0x8800070:   69 64 73 5f 63 63 63 64 5f 75 70 64 61 74 65 5f    ids_cccd_update_
    0x8800080:   63 62 20 69 6e 64 65 78 20 3d 20 25 64 20 63 63    cb index = %d cc
    0x8800090:   63 5f 62 69 74 73 20 25 78 00 00 00 21 2a 2a 68    c_bits %x...!**h
    0x88000a0:   69 64 73 5f 73 65 6e 64 5f 72 65 70 6f 72 74 20    ids_send_report 
    0x88000b0:   64 61 74 61 5f 6c 65 6e 20 25 64 00 21 21 21 68    data_len %d.!!!h
    0x88000c0:   69 64 73 5f 61 64 64 5f 73 65 72 76 69 63 65 3a    ids_add_service:
    0x88000d0:   20 53 65 72 76 69 63 65 49 64 20 25 64 00 00 00     ServiceId %d...
    0x88000e0:   21 21 21 62 61 73 5f 73 65 74 5f 70 61 72 61 6d    !!!bas_set_param
    0x88000f0:   65 74 65 72 20 66 61 69 6c 65 64 00 21 2a 2a 62    eter failed.!**b
    0x8800100:   61 73 5f 61 74 74 72 5f 72 65 61 64 5f 63 62 20    as_attr_read_cb 
    0x8800110:   61 74 74 72 69 62 5f 69 6e 64 65 78 20 3d 20 25    attrib_index = %
    0x8800120:   64 20 6f 66 66 73 65 74 20 25 78 00 21 21 21 62    d offset %x.!!!b
    0x8800130:   61 73 5f 61 74 74 72 5f 72 65 61 64 5f 63 62 20    as_attr_read_cb 
    0x8800140:   61 74 74 72 69 62 5f 69 6e 64 65 78 20 3d 20 25    attrib_index = %
    0x8800150:   64 20 6e 6f 74 20 66 6f 75 6e 64 00 21 2a 2a 62    d not found.!**b
    0x8800160:   61 73 5f 63 63 63 64 5f 75 70 64 61 74 65 5f 63    as_cccd_update_c
    0x8800170:   62 20 69 6e 64 65 78 20 3d 20 25 64 20 63 63 63    b index = %d ccc
    0x8800180:   5f 62 69 74 73 20 25 78 00 00 00 00 21 21 21 62    _bits %x....!!!b
    0x8800190:   61 73 5f 61 64 64 5f 73 65 72 76 69 63 65 3a 20    as_add_service: 
    0x88001a0:   73 65 72 76 69 63 65 5f 69 64 20 25 64 00 00 00    service_id %d...
    0x88001b0:   21 21 21 44 49 53 20 70 61 72 61 6d 65 74 65 72    !!!DIS parameter
    0x88001c0:   20 73 65 74 20 66 61 69 6c 65 64 00 21 21 21 64     set failed.!!!d
    0x88001d0:   69 73 5f 61 74 74 72 5f 72 65 61 64 5f 63 62 3a    is_attr_read_cb:
    0x88001e0:   20 61 74 74 72 69 62 5f 69 6e 64 65 78 20 25 64     attrib_index %d
    0x88001f0:   00 00 00 00 21 2a 2a 64 69 73 5f 61 74 74 72 5f    ....!**dis_attr_
    0x8800200:   72 65 61 64 5f 63 62 3a 20 61 74 74 72 69 62 5f    read_cb: attrib_
    0x8800210:   69 6e 64 65 78 20 25 64 2c 20 2a 6c 65 6e 67 74    index %d, *lengt
    0x8800220:   68 5f 70 74 72 20 25 64 00 00 00 00 21 21 21 64    h_ptr %d....!!!d
    0x8800230:   69 73 5f 61 64 64 5f 73 65 72 76 69 63 65 3a 20    is_add_service: 
    0x8800240:   73 65 72 76 69 63 65 5f 69 64 20 25 64 00 00 00    service_id %d...
    0x8800250:   21 2a 2a 2d 2d 3e 20 4f 54 41 5f 41 74 74 72 57    !**--> OTA_AttrW
    0x8800260:   72 69 74 65 20 45 72 72 6f 72 20 20 69 41 74 74    rite Error  iAtt
    0x8800270:   72 69 62 49 6e 64 65 78 20 3d 20 30 78 25 78 20    ribIndex = 0x%x 
    0x8800280:   77 4c 65 6e 67 74 68 3d 25 64 00 00 21 2a 2a 3c    wLength=%d..!**<
    0x8800290:   2d 2d 20 4f 54 41 5f 41 74 74 72 52 65 61 64 2c    -- OTA_AttrRead,
    0x88002a0:   20 41 74 74 72 20 6e 6f 74 20 66 6f 75 6e 64 2c     Attr not found,
    0x88002b0:   20 69 6e 64 65 78 3d 25 64 00 00 00 21 2a 2a 70     index=%d...!**p
    0x88002c0:   61 74 63 68 5f 61 64 64 72 20 3d 20 25 78 00 00    atch_addr = %x..
    0x88002d0:   21 2a 2a 70 61 74 63 68 5f 76 65 72 73 69 6f 6e    !**patch_version
    0x88002e0:   20 3d 20 25 78 00 00 00 21 2a 2a 61 70 70 5f 61     = %x...!**app_a
    0x88002f0:   64 64 72 20 3d 20 25 78 00 00 00 00 21 2a 2a 61    ddr = %x....!**a
    0x8800300:   70 70 5f 76 65 72 73 69 6f 6e 20 3d 20 25 78 00    pp_version = %x.
    0x8800310:   21 2a 2a 6f 74 61 68 65 61 64 65 72 5f 61 64 64    !**otaheader_add
    0x8800320:   72 20 3d 20 25 78 00 00 21 2a 2a 6f 74 61 68 65    r = %x..!**otahe
    0x8800330:   61 64 65 72 5f 61 64 64 72 20 3d 20 25 78 00 00    ader_addr = %x..
    0x8800340:   21 2a 2a 6f 74 61 68 65 61 64 65 72 5f 76 65 72    !**otaheader_ver
    0x8800350:   73 69 6f 6e 20 3d 20 25 78 00 00 00 21 2a 2a 70    sion = %x...!**p
    0x8800360:   61 74 63 68 5f 61 64 64 72 20 3d 20 25 78 00 00    atch_addr = %x..
    0x8800370:   21 2a 2a 70 61 74 63 68 5f 76 65 72 73 69 6f 6e    !**patch_version
    0x8800380:   20 3d 20 25 78 00 00 00 21 2a 2a 61 70 70 5f 61     = %x...!**app_a
    0x8800390:   64 64 72 20 3d 20 25 78 00 00 00 00 21 2a 2a 61    ddr = %x....!**a
    0x88003a0:   70 70 5f 76 65 72 73 69 6f 6e 20 3d 20 25 78 00    pp_version = %x.
    0x88003b0:   21 21 21 4f 54 41 53 65 72 76 69 63 65 5f 41 64    !!!OTAService_Ad
    0x88003c0:   64 53 65 72 76 69 63 65 3a 20 53 65 72 76 69 63    dService: Servic
    0x88003d0:   65 49 64 20 25 64 00 00 21 21 2a 6d 69 73 73 20    eId %d..!!*miss 
    0x88003e0:   69 6e 74 65 72 72 75 70 74 3a 20 70 65 6e 64 69    interrupt: pendi
    0x88003f0:   6e 67 20 72 65 67 69 73 74 65 72 3a 20 30 78 25    ng register: 0x%
    0x8800400:   78 00 00 00 21 2a 2a 6b 65 79 62 6f 61 72 64 5f    x...!**keyboard_
    0x8800410:   65 6e 74 65 72 5f 64 6c 70 73 5f 63 68 65 63 6b    enter_dlps_check
    0x8800420:   20 72 65 67 20 66 61 69 6c 21 00 00 21 21 21 73     reg fail!..!!!s
    0x8800430:   65 6e 64 5f 69 6f 5f 6d 73 67 5f 74 6f 5f 61 70    end_io_msg_to_ap
    0x8800440:   70 20 66 61 69 6c 00 00 21 21 21 73 65 6e 64 5f    p fail..!!!send_
    0x8800450:   65 76 74 5f 6d 73 67 5f 74 6f 5f 61 70 70 20 66    evt_msg_to_app f
    0x8800460:   61 69 6c 00 21 2a 2a 4b 65 79 53 63 61 6e 20 4d    ail.!**KeyScan M
    0x8800470:   53 47 2c 20 53 75 62 20 74 79 70 65 20 53 63 61    SG, Sub type Sca
    0x8800480:   6e 20 65 6e 64 2e 00 00 21 2a 2a 6b 65 79 73 63    n end...!**keysc
    0x8800490:   61 6e 20 74 72 69 67 67 65 72 20 61 64 76 2c 20    an trigger adv, 
    0x88004a0:   72 65 73 6f 6c 76 5f 6c 69 73 74 5f 65 78 69 73    resolv_list_exis
    0x88004b0:   74 20 3d 20 25 64 00 00 21 2a 2a 4b 65 79 53 63    t = %d..!**KeySc
    0x88004c0:   61 6e 20 4d 53 47 2c 20 53 75 62 20 74 79 70 65    an MSG, Sub type
    0x88004d0:   20 41 6c 6c 20 72 65 61 6c 73 65 2e 00 00 00 00     All realse.....
    0x88004e0:   21 2a 2a 61 70 70 5f 68 61 6e 64 6c 65 5f 64 65    !**app_handle_de
    0x88004f0:   76 5f 73 74 61 74 65 5f 65 76 74 3a 20 69 6e 69    v_state_evt: ini
    0x8800500:   74 20 73 74 61 74 65 20 25 64 2c 20 61 64 76 20    t state %d, adv 
    0x8800510:   73 74 61 74 65 20 25 64 2c 20 63 61 75 73 65 20    state %d, cause 
    0x8800520:   30 78 25 78 00 00 00 00 21 2a 2a 47 41 50 20 73    0x%x....!**GAP s
    0x8800530:   74 61 63 6b 20 72 65 61 64 79 00 00 21 2a 2a 47    tack ready..!**G
    0x8800540:   41 50 20 61 64 76 20 73 74 6f 70 65 64 3a 20 62    AP adv stoped: b
    0x8800550:   65 63 61 75 73 65 20 63 6f 6e 6e 65 63 74 69 6f    ecause connectio
    0x8800560:   6e 20 63 72 65 61 74 65 64 00 00 00 21 2a 2a 47    n created...!**G
    0x8800570:   41 50 20 61 64 76 20 73 74 6f 70 65 64 00 00 00    AP adv stoped...
    0x8800580:   21 2a 2a 47 41 50 20 61 64 76 20 73 74 61 72 74    !**GAP adv start
    0x8800590:   00 00 00 00 21 2a 2a 61 70 70 5f 68 61 6e 64 6c    ....!**app_handl
    0x88005a0:   65 5f 63 6f 6e 6e 5f 73 74 61 74 65 5f 65 76 74    e_conn_state_evt
    0x88005b0:   3a 20 63 6f 6e 6e 5f 69 64 20 25 64 20 6f 6c 64    : conn_id %d old
    0x88005c0:   5f 73 74 61 74 65 20 25 64 20 6e 65 77 5f 73 74    _state %d new_st
    0x88005d0:   61 74 65 20 25 64 2c 20 64 69 73 63 5f 63 61 75    ate %d, disc_cau
    0x88005e0:   73 65 20 30 78 25 78 00 21 21 21 61 70 70 5f 68    se 0x%x.!!!app_h
    0x88005f0:   61 6e 64 6c 65 5f 63 6f 6e 6e 5f 73 74 61 74 65    andle_conn_state
    0x8800600:   5f 65 76 74 3a 20 63 6f 6e 6e 65 63 74 69 6f 6e    _evt: connection
    0x8800610:   20 6c 6f 73 74 20 63 61 75 73 65 20 30 78 25 78     lost cause 0x%x
    0x8800620:   00 00 00 00 21 2a 2a 64 69 73 63 6f 6e 6e 65 63    ....!**disconnec
    0x8800630:   74 20 61 6e 64 20 73 74 61 72 74 20 61 64 76 00    t and start adv.
    0x8800640:   21 2a 2a 47 41 50 5f 43 4f 4e 4e 5f 53 54 41 54    !**GAP_CONN_STAT
    0x8800650:   45 5f 43 4f 4e 4e 45 43 54 45 44 3a 20 63 6f 6e    E_CONNECTED: con
    0x8800660:   6e 5f 69 6e 74 65 72 76 61 6c 20 30 78 25 78 2c    n_interval 0x%x,
    0x8800670:   20 63 6f 6e 6e 5f 6c 61 74 65 6e 63 79 20 30 78     conn_latency 0x
    0x8800680:   25 78 2c 20 63 6f 6e 6e 5f 73 75 70 65 72 76 69    %x, conn_supervi
    0x8800690:   73 69 6f 6e 5f 74 69 6d 65 6f 75 74 20 30 78 25    sion_timeout 0x%
    0x88006a0:   78 00 00 00 21 2a 2a 61 70 70 5f 68 61 6e 64 6c    x...!**app_handl
    0x88006b0:   65 5f 61 75 74 68 65 6e 5f 73 74 61 74 65 5f 65    e_authen_state_e
    0x88006c0:   76 74 3a 63 6f 6e 6e 5f 69 64 20 25 64 2c 20 63    vt:conn_id %d, c
    0x88006d0:   61 75 73 65 20 30 78 25 78 00 00 00 21 2a 2a 61    ause 0x%x...!**a
    0x88006e0:   70 70 5f 68 61 6e 64 6c 65 5f 61 75 74 68 65 6e    pp_handle_authen
    0x88006f0:   5f 73 74 61 74 65 5f 65 76 74 3a 20 47 41 50 5f    _state_evt: GAP_
    0x8800700:   41 55 54 48 45 4e 5f 53 54 41 54 45 5f 53 54 41    AUTHEN_STATE_STA
    0x8800710:   52 54 45 44 00 00 00 00 21 2a 2a 61 70 70 5f 68    RTED....!**app_h
    0x8800720:   61 6e 64 6c 65 5f 61 75 74 68 65 6e 5f 73 74 61    andle_authen_sta
    0x8800730:   74 65 5f 65 76 74 3a 20 47 41 50 5f 41 55 54 48    te_evt: GAP_AUTH
    0x8800740:   45 4e 5f 53 54 41 54 45 5f 43 4f 4d 50 4c 45 54    EN_STATE_COMPLET
    0x8800750:   45 20 70 61 69 72 20 73 75 63 63 65 73 73 00 00    E pair success..
    0x8800760:   21 2a 2a 61 70 70 5f 68 61 6e 64 6c 65 5f 61 75    !**app_handle_au
    0x8800770:   74 68 65 6e 5f 73 74 61 74 65 5f 65 76 74 3a 20    then_state_evt: 
    0x8800780:   47 41 50 5f 41 55 54 48 45 4e 5f 53 54 41 54 45    GAP_AUTHEN_STATE
    0x8800790:   5f 43 4f 4d 50 4c 45 54 45 20 70 61 69 72 20 66    _COMPLETE pair f
    0x88007a0:   61 69 6c 65 64 00 00 00 21 21 21 61 70 70 5f 68    ailed...!!!app_h
    0x88007b0:   61 6e 64 6c 65 5f 61 75 74 68 65 6e 5f 73 74 61    andle_authen_sta
    0x88007c0:   74 65 5f 65 76 74 3a 20 75 6e 6b 6e 6f 77 6e 20    te_evt: unknown 
    0x88007d0:   6e 65 77 73 74 61 74 65 20 25 64 00 21 2a 2a 61    newstate %d.!**a
    0x88007e0:   70 70 5f 68 61 6e 64 6c 65 5f 63 6f 6e 6e 5f 6d    pp_handle_conn_m
    0x88007f0:   74 75 5f 69 6e 66 6f 5f 65 76 74 3a 20 63 6f 6e    tu_info_evt: con
    0x8800800:   6e 5f 69 64 20 25 64 2c 20 6d 74 75 5f 73 69 7a    n_id %d, mtu_siz
    0x8800810:   65 20 25 64 00 00 00 00 21 2a 2a 61 70 70 5f 68    e %d....!**app_h
    0x8800820:   61 6e 64 6c 65 5f 63 6f 6e 6e 5f 70 61 72 61 6d    andle_conn_param
    0x8800830:   5f 75 70 64 61 74 65 5f 65 76 74 20 75 70 64 61    _update_evt upda
    0x8800840:   74 65 20 73 75 63 63 65 73 73 3a 63 6f 6e 6e 5f    te success:conn_
    0x8800850:   69 6e 74 65 72 76 61 6c 20 30 78 25 78 2c 20 63    interval 0x%x, c
    0x8800860:   6f 6e 6e 5f 73 6c 61 76 65 5f 6c 61 74 65 6e 63    onn_slave_latenc
    0x8800870:   79 20 30 78 25 78 2c 20 63 6f 6e 6e 5f 73 75 70    y 0x%x, conn_sup
    0x8800880:   65 72 76 69 73 69 6f 6e 5f 74 69 6d 65 6f 75 74    ervision_timeout
    0x8800890:   20 30 78 25 78 00 00 00 21 2a 2a 72 65 75 70 64     0x%x...!**reupd
    0x88008a0:   61 74 65 20 74 68 65 20 63 6f 6e 6e 65 63 74 69    ate the connecti
    0x88008b0:   6f 6e 20 70 61 72 61 6d 65 74 65 72 00 00 00 00    on parameter....
    0x88008c0:   21 2a 2a 73 74 6f 70 20 75 70 64 61 74 65 20 74    !**stop update t
    0x88008d0:   68 65 20 63 6f 6e 6e 65 63 74 69 6f 6e 20 70 61    he connection pa
    0x88008e0:   72 61 6d 65 74 65 72 00 21 21 21 61 70 70 5f 68    rameter.!!!app_h
    0x88008f0:   61 6e 64 6c 65 5f 63 6f 6e 6e 5f 70 61 72 61 6d    andle_conn_param
    0x8800900:   5f 75 70 64 61 74 65 5f 65 76 74 20 75 70 64 61    _update_evt upda
    0x8800910:   74 65 20 66 61 69 6c 65 64 3a 20 63 61 75 73 65    te failed: cause
    0x8800920:   20 30 78 25 78 00 00 00 21 2a 2a 61 70 70 5f 68     0x%x...!**app_h
    0x8800930:   61 6e 64 6c 65 5f 63 6f 6e 6e 5f 70 61 72 61 6d    andle_conn_param
    0x8800940:   5f 75 70 64 61 74 65 5f 65 76 74 20 75 70 64 61    _update_evt upda
    0x8800950:   74 65 20 70 65 6e 64 69 6e 67 2e 00 61 70 70 5f    te pending..app_
    0x8800960:   68 61 6e 64 6c 65 5f 67 61 70 5f 6d 73 67 3a 20    handle_gap_msg: 
    0x8800970:   73 75 62 74 79 70 65 20 25 64 00 00 21 2a 2a 47    subtype %d..!**G
    0x8800980:   41 50 5f 4d 53 47 5f 4c 45 5f 42 4f 4e 44 5f 4a    AP_MSG_LE_BOND_J
    0x8800990:   55 53 54 5f 57 4f 52 4b 00 00 00 00 21 2a 2a 47    UST_WORK....!**G
    0x88009a0:   41 50 5f 4d 53 47 5f 4c 45 5f 42 4f 4e 44 5f 50    AP_MSG_LE_BOND_P
    0x88009b0:   41 53 53 4b 45 59 5f 44 49 53 50 4c 41 59 3a 70    ASSKEY_DISPLAY:p
    0x88009c0:   61 73 73 6b 65 79 20 25 64 00 00 00 21 2a 2a 47    asskey %d...!**G
    0x88009d0:   41 50 5f 4d 53 47 5f 4c 45 5f 42 4f 4e 44 5f 55    AP_MSG_LE_BOND_U
    0x88009e0:   53 45 52 5f 43 4f 4e 46 49 52 4d 41 54 49 4f 4e    SER_CONFIRMATION
    0x88009f0:   3a 20 70 61 73 73 6b 65 79 20 25 64 00 00 00 00    : passkey %d....
    0x8800a00:   21 2a 2a 47 41 50 5f 4d 53 47 5f 4c 45 5f 42 4f    !**GAP_MSG_LE_BO
    0x8800a10:   4e 44 5f 50 41 53 53 4b 45 59 5f 49 4e 50 55 54    ND_PASSKEY_INPUT
    0x8800a20:   3a 20 63 6f 6e 6e 5f 69 64 20 25 64 00 00 00 00    : conn_id %d....
    0x8800a30:   21 2a 2a 47 41 50 5f 4d 53 47 5f 4c 45 5f 42 4f    !**GAP_MSG_LE_BO
    0x8800a40:   4e 44 5f 4f 4f 42 5f 49 4e 50 55 54 00 00 00 00    ND_OOB_INPUT....
    0x8800a50:   21 21 21 61 70 70 5f 68 61 6e 64 6c 65 5f 67 61    !!!app_handle_ga
    0x8800a60:   70 5f 6d 73 67 3a 20 75 6e 6b 6e 6f 77 6e 20 73    p_msg: unknown s
    0x8800a70:   75 62 74 79 70 65 20 25 64 00 00 00 21 2a 2a 47    ubtype %d...!**G
    0x8800a80:   41 50 5f 4d 53 47 5f 4c 45 5f 44 41 54 41 5f 4c    AP_MSG_LE_DATA_L
    0x8800a90:   45 4e 5f 43 48 41 4e 47 45 5f 49 4e 46 4f 3a 20    EN_CHANGE_INFO: 
    0x8800aa0:   63 6f 6e 6e 5f 69 64 20 25 64 2c 20 74 78 20 6f    conn_id %d, tx o
    0x8800ab0:   63 74 65 74 73 20 30 78 25 78 2c 20 6d 61 78 5f    ctets 0x%x, max_
    0x8800ac0:   74 78 5f 74 69 6d 65 20 30 78 25 78 00 00 00 00    tx_time 0x%x....
    0x8800ad0:   21 2a 2a 47 41 50 5f 4d 53 47 5f 4c 45 5f 4d 4f    !**GAP_MSG_LE_MO
    0x8800ae0:   44 49 46 59 5f 57 48 49 54 45 5f 4c 49 53 54 3a    DIFY_WHITE_LIST:
    0x8800af0:   20 6f 70 65 72 61 74 69 6f 6e 20 25 64 2c 20 63     operation %d, c
    0x8800b00:   61 75 73 65 20 30 78 25 78 00 00 00 21 2a 2a 47    ause 0x%x...!**G
    0x8800b10:   41 50 5f 4d 53 47 5f 4c 45 5f 42 4f 4e 44 5f 4d    AP_MSG_LE_BOND_M
    0x8800b20:   4f 44 49 46 59 5f 49 4e 46 4f 3a 20 74 79 70 65    ODIFY_INFO: type
    0x8800b30:   20 30 78 25 78 00 00 00 21 21 21 61 70 70 5f 67     0x%x...!!!app_g
    0x8800b40:   61 70 5f 63 61 6c 6c 62 61 63 6b 3a 20 75 6e 68    ap_callback: unh
    0x8800b50:   61 6e 64 6c 65 64 20 63 62 5f 74 79 70 65 20 30    andled cb_type 0
    0x8800b60:   78 25 78 00 21 2a 2a 50 52 4f 46 49 4c 45 5f 45    x%x.!**PROFILE_E
    0x8800b70:   56 54 5f 53 52 56 5f 52 45 47 5f 43 4f 4d 50 4c    VT_SRV_REG_COMPL
    0x8800b80:   45 54 45 3a 20 72 65 73 75 6c 74 20 25 64 00 00    ETE: result %d..
    0x8800b90:   21 2a 2a 50 52 4f 46 49 4c 45 5f 45 56 54 5f 53    !**PROFILE_EVT_S
    0x8800ba0:   45 4e 44 5f 44 41 54 41 5f 43 4f 4d 50 4c 45 54    END_DATA_COMPLET
    0x8800bb0:   45 3a 20 63 6f 6e 6e 5f 69 64 20 25 64 2c 20 63    E: conn_id %d, c
    0x8800bc0:   61 75 73 65 20 30 78 25 78 2c 20 73 65 72 76 69    ause 0x%x, servi
    0x8800bd0:   63 65 5f 69 64 20 25 64 2c 20 61 74 74 72 69 62    ce_id %d, attrib
    0x8800be0:   5f 69 64 78 20 30 78 25 78 2c 20 63 72 65 64 69    _idx 0x%x, credi
    0x8800bf0:   74 73 20 25 64 00 00 00 21 2a 2a 50 52 4f 46 49    ts %d...!**PROFI
    0x8800c00:   4c 45 5f 45 56 54 5f 53 45 4e 44 5f 44 41 54 41    LE_EVT_SEND_DATA
    0x8800c10:   5f 43 4f 4d 50 4c 45 54 45 20 73 75 63 63 65 73    _COMPLETE succes
    0x8800c20:   73 00 00 00 21 21 21 50 52 4f 46 49 4c 45 5f 45    s...!!!PROFILE_E
    0x8800c30:   56 54 5f 53 45 4e 44 5f 44 41 54 41 5f 43 4f 4d    VT_SEND_DATA_COM
    0x8800c40:   50 4c 45 54 45 20 66 61 69 6c 65 64 00 00 00 00    PLETE failed....
    0x8800c50:   21 2a 2a 48 49 44 5f 57 52 49 54 45 5f 50 52 4f    !**HID_WRITE_PRO
    0x8800c60:   54 4f 43 4f 4c 20 4d 4f 44 45 20 25 64 0a 00 00    TOCOL MODE %d...
    0x8800c70:   21 2a 2a 48 49 44 5f 4f 55 54 50 55 54 20 76 61    !**HID_OUTPUT va
    0x8800c80:   6c 75 65 20 25 64 0a 00 21 2a 2a 42 41 53 5f 4e    lue %d..!**BAS_N
    0x8800c90:   4f 54 49 46 59 5f 42 41 54 54 45 52 59 5f 4c 45    OTIFY_BATTERY_LE
    0x8800ca0:   56 45 4c 5f 45 4e 41 42 4c 45 00 00 21 2a 2a 42    VEL_ENABLE..!**B
    0x8800cb0:   41 53 5f 4e 4f 54 49 46 59 5f 42 41 54 54 45 52    AS_NOTIFY_BATTER
    0x8800cc0:   59 5f 4c 45 56 45 4c 5f 44 49 53 41 42 4c 45 00    Y_LEVEL_DISABLE.
    0x8800cd0:   21 2a 2a 42 41 53 5f 52 45 41 44 5f 42 41 54 54    !**BAS_READ_BATT
    0x8800ce0:   45 52 59 5f 4c 45 56 45 4c 3a 20 62 61 74 74 65    ERY_LEVEL: batte
    0x8800cf0:   72 79 5f 6c 65 76 65 6c 20 25 64 00 21 2a 2a 50    ry_level %d.!**P
    0x8800d00:   72 65 70 61 72 69 6e 67 20 73 77 69 74 63 68 20    reparing switch 
    0x8800d10:   69 6e 74 6f 20 4f 54 41 20 6d 6f 64 65 0a 00 00    into OTA mode...
    0x8800d20:   21 2a 2a 5b 6b 65 79 73 63 61 6e 5f 69 6e 69 74    !**[keyscan_init
    0x8800d30:   5f 64 61 74 61 5d 20 69 6e 69 74 20 64 61 74 61    _data] init data
    0x8800d40:   00 00 00 00 21 2a 2a 5b 6b 65 79 73 63 61 6e 5f    ....!**[keyscan_
    0x8800d50:   69 6e 74 65 72 72 75 70 74 5f 68 61 6e 64 6c 65    interrupt_handle
    0x8800d60:   72 5d 20 69 6e 74 65 72 72 75 70 74 20 68 61 6e    r] interrupt han
    0x8800d70:   64 6c 65 72 00 00 00 00 21 21 21 5b 6b 65 79 73    dler....!!![keys
    0x8800d80:   63 61 6e 5f 69 6e 74 65 72 72 75 70 74 5f 68 61    can_interrupt_ha
    0x8800d90:   6e 64 6c 65 72 5d 20 72 65 73 74 61 72 74 20 78    ndler] restart x
    0x8800da0:   54 69 6d 65 72 73 4b 65 79 53 63 61 6e 20 66 61    TimersKeyScan fa
    0x8800db0:   69 6c 65 64 21 00 00 00 21 21 21 5b 6b 65 79 73    iled!...!!![keys
    0x8800dc0:   63 61 6e 5f 69 6e 74 65 72 72 75 70 74 5f 68 61    can_interrupt_ha
    0x8800dd0:   6e 64 6c 65 72 5d 20 73 65 6e 64 20 49 4f 5f 4d    ndler] send IO_M
    0x8800de0:   53 47 5f 4b 45 59 53 43 41 4e 5f 52 58 5f 50 4b    SG_KEYSCAN_RX_PK
    0x8800df0:   54 20 6d 65 73 73 61 67 65 20 66 61 69 6c 65 64    T message failed
    0x8800e00:   21 00 00 00 21 2a 2a 5b 6b 65 79 73 63 61 6e 5f    !...!**[keyscan_
    0x8800e10:   69 6e 74 65 72 72 75 70 74 5f 68 61 6e 64 6c 65    interrupt_handle
    0x8800e20:   72 5d 20 6b 65 79 73 63 61 6e 20 72 65 6c 65 61    r] keyscan relea
    0x8800e30:   73 65 20 65 76 65 6e 74 20 64 65 74 65 63 74 65    se event detecte
    0x8800e40:   64 00 00 00 21 21 21 5b 6b 65 79 73 63 61 6e 5f    d...!!![keyscan_
    0x8800e50:   69 6e 74 65 72 72 75 70 74 5f 68 61 6e 64 6c 65    interrupt_handle
    0x8800e60:   72 5d 20 53 65 6e 64 20 49 4f 5f 4d 53 47 5f 54    r] Send IO_MSG_T
    0x8800e70:   59 50 45 5f 4b 45 59 53 43 41 4e 20 6d 65 73 73    YPE_KEYSCAN mess
    0x8800e80:   61 67 65 20 66 61 69 6c 65 64 21 00 21 2a 2a 5b    age failed!.!**[
    0x8800e90:   6b 65 79 73 63 61 6e 5f 69 6e 74 65 72 72 75 70    keyscan_interrup
    0x8800ea0:   74 5f 68 61 6e 64 6c 65 72 5d 20 69 66 20 73 79    t_handler] if sy
    0x8800eb0:   73 74 65 6d 20 61 63 74 69 76 65 2c 20 6b 65 79    stem active, key
    0x8800ec0:   73 63 61 6e 20 6e 6f 20 64 65 62 6f 75 6e 63 65    scan no debounce
    0x8800ed0:   20 63 61 6e 20 61 72 72 69 76 65 20 68 65 72 65     can arrive here
    0x8800ee0:   00 00 00 00 21 2a 2a 5b 6b 65 79 73 63 61 6e 5f    ....!**[keyscan_
    0x8800ef0:   69 6e 74 65 72 72 75 70 74 5f 68 61 6e 64 6c 65    interrupt_handle
    0x8800f00:   72 5d 20 6e 6f 74 20 4b 45 59 53 43 41 4e 5f 49    r] not KEYSCAN_I
    0x8800f10:   4e 54 5f 46 4c 41 47 5f 53 43 41 4e 5f 45 4e 44    NT_FLAG_SCAN_END
    0x8800f20:   20 69 6e 74 65 72 72 75 70 74 00 00 21 2a 2a 5b     interrupt..!**[
    0x8800f30:   6b 65 79 73 63 61 6e 5f 69 6e 69 74 5f 74 69 6d    keyscan_init_tim
    0x8800f40:   65 72 5d 20 69 6e 69 74 20 74 69 6d 65 72 00 00    er] init timer..
    0x8800f50:   21 21 21 5b 6b 65 79 73 63 61 6e 5f 69 6e 69 74    !!![keyscan_init
    0x8800f60:   5f 74 69 6d 65 72 5d 20 74 69 6d 65 72 20 63 72    _timer] timer cr
    0x8800f70:   65 61 74 20 66 61 69 6c 65 64 21 00 21 2a 2a 5b    eat failed!.!**[
    0x8800f80:   6b 65 79 73 63 61 6e 5f 74 69 6d 65 72 5f 63 61    keyscan_timer_ca
    0x8800f90:   6c 6c 62 61 63 6b 5d 20 73 74 61 72 74 20 72 65    llback] start re
    0x8800fa0:   6c 65 61 73 65 20 74 69 6d 65 72 00 21 2a 2a 5b    lease timer.!**[
    0x8800fb0:   6b 65 79 73 63 61 6e 5f 74 69 6d 65 72 5f 63 61    keyscan_timer_ca
    0x8800fc0:   6c 6c 62 61 63 6b 5d 20 6b 65 79 73 63 61 6e 20    llback] keyscan 
    0x8800fd0:   72 65 6c 65 61 73 65 20 65 76 65 6e 74 20 64 65    release event de
    0x8800fe0:   74 65 63 74 65 64 00 00 21 21 21 5b 6b 65 79 73    tected..!!![keys
    0x8800ff0:   63 61 6e 5f 74 69 6d 65 72 5f 63 61 6c 6c 62 61    can_timer_callba
    0x8801000:   63 6b 5d 20 53 65 6e 64 20 49 4f 5f 4d 53 47 5f    ck] Send IO_MSG_
    0x8801010:   54 59 50 45 5f 4b 45 59 53 43 41 4e 20 6d 65 73    TYPE_KEYSCAN mes
    0x8801020:   73 61 67 65 20 66 61 69 6c 65 64 21 00 00 00 00    sage failed!....
    0x8801030:   21 2a 2a 77 61 6b 65 20 75 70 20 62 79 20 6b 65    !**wake up by ke
    0x8801040:   79 73 63 61 6e 2c 20 70 69 6e 20 3d 30 78 25 78    yscan, pin =0x%x
    0x8801050:   2c 20 67 70 69 6f 20 69 6e 70 75 74 20 3d 20 30    , gpio input = 0
    0x8801060:   78 25 78 00 21 21 21 5b 53 79 73 74 65 6d 5f 48    x%x.!!![System_H
    0x8801070:   61 6e 64 6c 65 72 5d 20 78 54 69 6d 65 72 73 4b    andler] xTimersK
    0x8801080:   65 79 53 63 61 6e 20 72 65 73 74 61 72 74 20 66    eyScan restart f
    0x8801090:   61 69 6c 65 64 21 00 00 21 2a 2a 4e 6f 2e 25 64    ailed!..!**No.%d
    0x88010a0:   2c 54 6f 74 61 6c 20 6c 65 6e 3d 25 64 3a 20 28    ,Total len=%d: (
    0x88010b0:   72 6f 77 2c 20 63 6f 6c 75 6d 6e 29 20 3d 20 28    row, column) = (
    0x88010c0:   25 64 2c 20 25 64 29 00 21 2a 2a 70 61 73 73 4b    %d, %d).!**passK
    0x88010d0:   65 79 20 3d 20 4b 42 5f 30 00 00 00 21 2a 2a 70    ey = KB_0...!**p
    0x88010e0:   61 73 73 4b 65 79 20 3d 20 4b 42 5f 31 00 00 00    assKey = KB_1...
    0x88010f0:   21 2a 2a 70 61 73 73 4b 65 79 20 3d 20 4b 42 5f    !**passKey = KB_
    0x8801100:   32 00 00 00 21 2a 2a 70 61 73 73 4b 65 79 20 3d    2...!**passKey =
    0x8801110:   20 4b 42 5f 33 00 00 00 21 2a 2a 70 61 73 73 4b     KB_3...!**passK
    0x8801120:   65 79 20 3d 20 4b 42 5f 34 00 00 00 21 2a 2a 70    ey = KB_4...!**p
    0x8801130:   61 73 73 4b 65 79 20 3d 20 4b 42 5f 35 00 00 00    assKey = KB_5...
    0x8801140:   21 2a 2a 70 61 73 73 4b 65 79 20 3d 20 4b 42 5f    !**passKey = KB_
    0x8801150:   36 00 00 00 21 2a 2a 70 61 73 73 4b 65 79 20 3d    6...!**passKey =
    0x8801160:   20 4b 42 5f 37 00 00 00 21 2a 2a 70 61 73 73 4b     KB_7...!**passK
    0x8801170:   65 79 20 3d 20 4b 42 5f 38 00 00 00 21 2a 2a 70    ey = KB_8...!**p
    0x8801180:   61 73 73 4b 65 79 20 3d 20 4b 42 5f 39 00 00 00    assKey = KB_9...
    0x8801190:   21 2a 2a 70 61 73 73 4b 65 79 20 3d 20 4b 42 5f    !**passKey = KB_
    0x88011a0:   52 65 74 75 72 6e 5f 45 4e 54 45 52 0a 0a 00 00    Return_ENTER....
    0x88011b0:   21 2a 2a 70 61 73 73 4b 65 79 20 3d 20 25 64 00    !**passKey = %d.
    0x88011c0:   21 21 21 45 72 72 6f 72 3a 20 54 68 65 20 70 61    !!!Error: The pa
    0x88011d0:   73 73 6b 65 79 20 6c 65 6e 67 74 68 20 69 73 20    sskey length is 
    0x88011e0:   6e 6f 74 20 65 71 75 61 6c 20 74 6f 20 73 69 78    not equal to six
    0x88011f0:   2c 20 70 6c 65 61 73 65 20 69 6e 70 75 74 20 61    , please input a
    0x8801200:   67 61 69 6e 2e 0a 00 00 21 2a 2a 44 65 6c 65 74    gain....!**Delet
    0x8801210:   65 20 74 68 65 20 6c 61 73 74 20 69 6e 70 75 74    e the last input
    0x8801220:   20 6b 65 79 20 76 61 6c 75 65 00 00 21 21 21 49     key value..!!!I
    0x8801230:   6e 76 61 6c 69 64 20 50 61 73 73 6b 65 79 20 6b    nvalid Passkey k
    0x8801240:   65 79 43 6f 64 65 3a 20 30 78 25 78 0a 0a 00 00    eyCode: 0x%x....
    0x8801250:   21 2a 2a 4e 6f 2e 25 64 2c 54 6f 74 61 6c 20 6c    !**No.%d,Total l
    0x8801260:   65 6e 3d 25 64 3a 20 28 72 6f 77 2c 20 63 6f 6c    en=%d: (row, col
    0x8801270:   75 6d 6e 29 20 3d 20 28 25 64 2c 20 25 64 29 00    umn) = (%d, %d).
    0x8801280:   21 2a 2a 50 61 69 72 20 62 75 74 74 6f 6e 20 6c    !**Pair button l
    0x8801290:   6f 6e 67 70 72 65 73 73 20 21 21 21 00 00 00 00    ongpress !!!....
    0x88012a0:   21 2a 2a 50 61 69 72 20 62 75 74 74 6f 6e 20 72    !**Pair button r
    0x88012b0:   65 6c 65 61 73 65 20 21 21 21 00 00 21 2a 2a 50    elease !!!..!**P
    0x88012c0:   61 69 72 20 62 75 74 74 6f 6e 20 70 72 65 73 73    air button press
    0x88012d0:   20 21 21 21 00 00 00 00 21 2a 2a 41 44 56 20 74     !!!....!**ADV t
    0x88012e0:   69 6d 65 6f 75 74 2c 20 73 74 6f 70 20 20 72 65    imeout, stop  re
    0x88012f0:   63 6f 6e 6e 65 63 74 20 41 44 56 00 21 2a 2a 41    connect ADV.!**A
    0x8801300:   44 56 20 74 69 6d 65 6f 75 74 2c 20 73 74 6f 70    DV timeout, stop
    0x8801310:   20 70 61 69 72 20 41 44 56 00 00 00 21 2a 2a 63     pair ADV...!**c
    0x8801320:   6f 6e 6e 65 63 74 69 6f 6e 20 70 61 72 61 6d 65    onnection parame
    0x8801330:   74 65 72 20 75 70 64 61 74 65 20 63 61 6c 6c 62    ter update callb
    0x8801340:   61 63 6b 21 00 00 00 00 21 2a 2a 63 6f 6e 6e 65    ack!....!**conne
    0x8801350:   63 74 69 6f 6e 20 70 61 72 61 6d 65 74 65 72 20    ction parameter 
    0x8801360:   75 70 64 61 74 65 20 72 65 71 75 65 73 74 21 00    update request!.
    0x8801370:   21 2a 2a 54 5f 47 41 50 5f 52 45 53 4f 4c 56 5f    !**T_GAP_RESOLV_
    0x8801380:   4c 49 53 54 5f 4f 50 20 25 64 2c 20 42 44 20 25    LIST_OP %d, BD %
    0x8801390:   73 2c 20 74 79 70 65 20 25 64 0a 00 21 2a 2a 72    s, type %d..!**r
    0x88013a0:   65 73 6f 6c 76 69 6e 67 20 6c 69 73 74 20 63 6c    esolving list cl
    0x88013b0:   65 61 72 00 21 21 21 63 6c 65 61 72 20 66 61 69    ear.!!!clear fai
    0x88013c0:   6c 65 64 3a 20 63 61 75 73 65 20 25 64 00 00 00    led: cause %d...
    0x88013d0:   21 2a 2a 72 65 73 6f 6c 76 69 6e 67 20 6c 69 73    !**resolving lis
    0x88013e0:   74 20 61 64 64 00 00 00 21 21 21 41 64 64 20 66    t add...!!!Add f
    0x88013f0:   61 69 6c 65 64 3a 20 63 61 75 73 65 20 25 64 00    ailed: cause %d.
    0x8801400:   21 21 21 41 64 64 20 66 61 69 6c 65 64 3a 20 69    !!!Add failed: i
    0x8801410:   6e 76 61 6c 69 64 20 73 74 61 74 65 00 00 00 00    nvalid state....
    0x8801420:   21 2a 2a 72 65 73 6f 6c 76 69 6e 67 20 6c 69 73    !**resolving lis
    0x8801430:   74 20 72 65 6d 6f 76 65 00 00 00 00 21 21 21 52    t remove....!!!R
    0x8801440:   65 6d 6f 76 65 20 66 61 69 6c 65 64 3a 20 63 61    emove failed: ca
    0x8801450:   75 73 65 20 25 64 00 00 21 21 21 52 65 6d 6f 76    use %d..!!!Remov
    0x8801460:   65 20 66 61 69 6c 65 64 3a 20 69 6e 76 61 6c 69    e failed: invali
    0x8801470:   64 20 73 74 61 74 65 00 21 2a 2a 70 72 69 76 61    d state.!**priva
    0x8801480:   63 79 5f 61 64 64 5f 64 65 76 69 63 65 3a 20 70    cy_add_device: p
    0x8801490:   5f 65 6e 74 72 79 2d 3e 69 73 5f 75 73 65 64 20    _entry->is_used 
    0x88014a0:   3d 20 25 64 00 00 00 00 21 2a 2a 70 72 69 76 61    = %d....!**priva
    0x88014b0:   63 79 5f 61 64 64 5f 64 65 76 69 63 65 3a 20 4c    cy_add_device: L
    0x88014c0:   45 5f 4b 45 59 5f 53 54 4f 52 45 5f 52 45 4d 4f    E_KEY_STORE_REMO
    0x88014d0:   54 45 5f 49 52 4b 5f 42 49 54 00 00 21 2a 2a 70    TE_IRK_BIT..!**p
    0x88014e0:   72 69 76 61 63 79 5f 61 64 64 5f 64 65 76 69 63    rivacy_add_devic
    0x88014f0:   65 3a 20 47 41 50 5f 52 45 4d 4f 54 45 5f 41 44    e: GAP_REMOTE_AD
    0x8801500:   44 52 5f 4c 45 5f 50 55 42 4c 49 43 00 00 00 00    DR_LE_PUBLIC....
    0x8801510:   21 21 21 70 72 69 76 61 63 79 5f 61 64 64 5f 64    !!!privacy_add_d
    0x8801520:   65 76 69 63 65 3a 20 66 61 69 6c 65 64 2c 20 69    evice: failed, i
    0x8801530:   64 78 20 25 64 00 00 00 21 2a 2a 70 72 69 76 61    dx %d...!**priva
    0x8801540:   63 79 5f 69 6e 69 74 3a 20 77 68 69 74 65 6c 69    cy_init: whiteli
    0x8801550:   73 74 20 25 64 00 00 00 21 2a 2a 70 72 69 76 61    st %d...!**priva
    0x8801560:   63 79 5f 68 61 6e 64 6c 65 5f 6c 65 5f 70 72 69    cy_handle_le_pri
    0x8801570:   76 61 63 79 5f 72 65 73 6f 6c 75 74 69 6f 6e 5f    vacy_resolution_
    0x8801580:   73 74 61 74 75 73 5f 69 6e 66 6f 3a 20 73 74 61    status_info: sta
    0x8801590:   74 75 73 20 30 78 25 78 0a 00 00 00 21 2a 2a 70    tus 0x%x....!**p
    0x88015a0:   72 69 76 61 63 79 5f 68 61 6e 64 6c 65 5f 6c 65    rivacy_handle_le
    0x88015b0:   5f 70 72 69 76 61 63 79 5f 6d 6f 64 69 66 79 5f    _privacy_modify_
    0x88015c0:   72 65 73 6f 6c 76 5f 6c 69 73 74 5f 72 73 70 3a    resolv_list_rsp:
    0x88015d0:   20 6f 70 65 72 61 74 69 6f 6e 20 20 30 78 25 78     operation  0x%x
    0x88015e0:   2c 20 63 61 73 75 65 20 30 78 25 78 00 00 00 00    , casue 0x%x....
    0x88015f0:   21 2a 2a 70 72 69 76 61 63 79 5f 6d 73 67 5f 63    !**privacy_msg_c
    0x8801600:   61 6c 6c 62 61 63 6b 3a 20 6d 73 67 5f 74 79 70    allback: msg_typ
    0x8801610:   65 20 20 25 64 00 00 00 21 2a 2a 70 72 69 76 61    e  %d...!**priva
    0x8801620:   63 79 5f 68 61 6e 64 6c 65 5f 62 6f 6e 64 5f 6d    cy_handle_bond_m
    0x8801630:   6f 64 69 66 79 5f 6d 73 67 3a 20 74 79 70 65 20    odify_msg: type 
    0x8801640:   30 78 25 78 00 00 00 00 21 21 21 67 61 70 5f 6c    0x%x....!!!gap_l
    0x8801650:   69 62 5f 69 6e 69 74 3a 20 76 65 72 20 25 64 2c    ib_init: ver %d,
    0x8801660:   20 46 5f 42 54 5f 4c 45 5f 35 5f 30 5f 53 55 50     F_BT_LE_5_0_SUP
    0x8801670:   50 4f 52 54 20 25 64 2c 20 46 5f 42 54 5f 4c 45    PORT %d, F_BT_LE
    0x8801680:   5f 35 5f 30 5f 41 45 5f 41 44 56 5f 53 55 50 50    _5_0_AE_ADV_SUPP
    0x8801690:   4f 52 54 20 25 64 2c 20 46 5f 42 54 5f 4c 45 5f    ORT %d, F_BT_LE_
    0x88016a0:   35 5f 30 5f 41 45 5f 53 43 41 4e 5f 53 55 50 50    5_0_AE_SCAN_SUPP
    0x88016b0:   4f 52 54 20 25 64 2c 20 46 5f 42 54 5f 4c 45 5f    ORT %d, F_BT_LE_
    0x88016c0:   34 5f 31 5f 53 55 50 50 4f 52 54 20 25 64 2c 20    4_1_SUPPORT %d, 
    0x88016d0:   46 5f 42 54 5f 56 45 4e 44 4f 52 5f 46 45 41 54    F_BT_VENDOR_FEAT
    0x88016e0:   55 52 45 5f 53 55 50 50 4f 52 54 20 25 64 2c 20    URE_SUPPORT %d, 
    0x88016f0:   46 5f 42 54 5f 4c 45 5f 36 5f 30 5f 41 4f 41 5f    F_BT_LE_6_0_AOA_
    0x8801700:   41 4f 44 5f 53 55 50 50 4f 52 54 20 25 64 2c 20    AOD_SUPPORT %d, 
    0x8801710:   46 5f 42 54 5f 4c 45 5f 36 5f 30 5f 41 4f 58 5f    F_BT_LE_6_0_AOX_
    0x8801720:   43 4f 4e 4e 4c 45 53 53 5f 53 55 50 50 4f 52 54    CONNLESS_SUPPORT
    0x8801730:   20 25 64 00 21 21 21 67 61 70 5f 6c 69 62 5f 69     %d.!!!gap_lib_i
    0x8801740:   6e 69 74 3a 20 46 5f 42 54 5f 4c 45 5f 53 4d 50    nit: F_BT_LE_SMP
    0x8801750:   5f 53 43 5f 4f 4f 42 5f 53 55 50 50 4f 52 54 20    _SC_OOB_SUPPORT 
    0x8801760:   25 64 2c 20 46 5f 42 54 5f 53 57 5f 52 45 53 45    %d, F_BT_SW_RESE
    0x8801770:   54 5f 53 55 50 50 4f 52 54 20 25 64 2c 20 46 5f    T_SUPPORT %d, F_
    0x8801780:   42 54 5f 50 41 54 43 48 5f 46 4f 52 5f 43 48 41    BT_PATCH_FOR_CHA
    0x8801790:   4e 47 45 5f 41 50 49 20 25 64 2c 20 46 5f 42 54    NGE_API %d, F_BT
    0x88017a0:   5f 44 4c 50 53 5f 41 50 49 20 25 64 00 00 00 00    _DLPS_API %d....
    0x88017b0:   21 2a 2a 6c 65 5f 63 68 65 63 6b 5f 70 72 69 76    !**le_check_priv
    0x88017c0:   61 63 79 5f 62 6f 6e 64 3a 20 69 64 78 20 25 64    acy_bond: idx %d
    0x88017d0:   20 70 72 69 76 61 63 79 20 64 65 76 69 63 65 00     privacy device.
    0x88017e0:   21 2a 2a 6c 65 5f 63 68 65 63 6b 5f 70 72 69 76    !**le_check_priv
    0x88017f0:   61 63 79 5f 62 6f 6e 64 3a 20 6e 6f 74 20 70 72    acy_bond: not pr
    0x8801800:   69 76 61 63 79 20 64 65 76 69 63 65 2c 20 63 61    ivacy device, ca
    0x8801810:   75 73 65 20 25 64 00 00 21 2a 2a 6c 65 5f 62 6f    use %d..!**le_bo
    0x8801820:   6e 64 5f 67 65 74 5f 73 65 63 5f 6c 65 76 65 6c    nd_get_sec_level
    0x8801830:   3a 20 25 64 00 00 00 00                            : %d....


** Section #10 '.debug_abbrev' (SHT_PROGBITS)
    Size   : 1476 bytes


** Section #11 '.debug_frame' (SHT_PROGBITS)
    Size   : 5096 bytes


** Section #12 '.debug_info' (SHT_PROGBITS)
    Size   : 166276 bytes


** Section #13 '.debug_line' (SHT_PROGBITS)
    Size   : 26760 bytes


** Section #14 '.debug_loc' (SHT_PROGBITS)
    Size   : 6772 bytes


** Section #15 '.debug_macinfo' (SHT_PROGBITS)
    Size   : 128652 bytes


** Section #16 '.debug_pubnames' (SHT_PROGBITS)
    Size   : 7351 bytes


** Section #17 '.symtab' (SHT_SYMTAB)
    Size   : 22416 bytes (alignment 4)
    String table #18 '.strtab'
    Last local symbol no. 575


** Section #18 '.strtab' (SHT_STRTAB)
    Size   : 19712 bytes


** Section #19 '.note' (SHT_NOTE)
    Size   : 52 bytes (alignment 4)


** Section #20 '.comment' (SHT_PROGBITS)
    Size   : 28640 bytes


** Section #21 '.shstrtab' (SHT_STRTAB)
    Size   : 276 bytes


address     size       variable name                            type
0x0020ba60  0x6c       overlay_sections                         array[3] of T_OVERLAY_SECTION

address     size       variable name                            type
0x0020bcda  0x8        scenario_name                            array[8] of char

address     size       variable name                            type
0x0020bcd9  0x1        app_privacy_resolution_state             T_LE_PRIVACY_STATE

address     size       variable name                            type
0x0020bcd8  0x1        privacy_whitelist                        _Bool

address     size       variable name                            type
0x0020bcd4  0x4        con_update_timer                         pointer to unknown Type 

address     size       variable name                            type
0x0020bcce  0x1        adv_count                                uint8_t

address     size       variable name                            type
0x0020bccc  0x1        adv_led_on                               _Bool

address     size       variable name                            type
0x0020bcd0  0x4        adv_led_timer                            pointer to unknown Type 

address     size       variable name                            type
0x0020bccd  0x1        adv_reconnect                            _Bool

address     size       variable name                            type
0x0020bcc8  0x4        longpress_timer                          pointer to unknown Type 

address     size       variable name                            type
0x0020bcc5  0x1        pair_press                               _Bool

address     size       variable name                            type
0x0020bcc4  0x1        start_pair_adv                           _Bool

address     size       variable name                            type
0x0020b7ce  0x20       key_map                                  array[4] of array[4] of const uint16_t

address     size       variable name                            type
0x0020bcbc  0x8        passkey                                  PASSKEY_DEF
0x0020bcbc  0x4        passkey.value                            uint32_t
0x0020bcc0  0x1        passkey.count                            uint8_t
0x0020bcc1  0x1        passkey.enable_input                     _Bool

address     size       variable name                            type
0x0020bc90  0x2c       keyscan_global_data                      T_KEYSCAN_GLOBAL_DATA
0x0020bc90  0x1        keyscan_global_data.is_allowed_to_repeat_report _Bool
0x0020bc91  0x1        keyscan_global_data.is_allowed_to_enter_dlps _Bool
0x0020bc92  0x1        keyscan_global_data.is_key_pressed       _Bool
0x0020bc93  0x1        keyscan_global_data.is_all_key_released  _Bool
0x0020bc94  0x14       keyscan_global_data.pre_fifo_data        T_KEYSCAN_FIFIO_DATA
0x0020bc94  0x4        keyscan_global_data.pre_fifo_data.len    uint32_t
0x0020bc98  0x10       keyscan_global_data.pre_fifo_data.key    array[8] of anonymous
0x0020bca8  0x14       keyscan_global_data.cur_fifo_data        T_KEYSCAN_FIFIO_DATA
0x0020bca8  0x4        keyscan_global_data.cur_fifo_data.len    uint32_t
0x0020bcac  0x10       keyscan_global_data.cur_fifo_data.key    array[8] of anonymous

address     size       variable name                            type
0x0020bc8c  0x4        keyscan_timer                            pointer to unknown Type 

address     size       variable name                            type
0x0020bc86  0x1        bas_srv_id                               T_SERVER_ID

address     size       variable name                            type
0x0020bc89  0x1        dis_srv_id                               T_SERVER_ID

address     size       variable name                            type
0x0020bc81  0x1        gap_conn_state                           T_GAP_CONN_STATE

address     size       variable name                            type
0x0020bc80  0x1        gap_dev_state                            T_GAP_DEV_STATE
0x0020bc80  0x1(7:1)   gap_dev_state.gap_init_state             uint8_t
0x0020bc80  0x1(6:1)   gap_dev_state.gap_adv_sub_state          uint8_t
0x0020bc80  0x1(4:2)   gap_dev_state.gap_adv_state              uint8_t
0x0020bc80  0x1(2:2)   gap_dev_state.gap_scan_state             uint8_t
0x0020bc80  0x1(0:2)   gap_dev_state.gap_conn_state             uint8_t

address     size       variable name                            type
0x0020bc85  0x1        hid_srv_id                               T_SERVER_ID

address     size       variable name                            type
0x0020bc88  0x1        keyboard_con_id                          uint8_t

address     size       variable name                            type
0x0020bc87  0x1        ota_srv_id                               T_SERVER_ID

address     size       variable name                            type
0x0020bc83  0x1        report_cccd_enable                       _Bool

address     size       variable name                            type
0x0020bc84  0x1        resolv_list_exist                        _Bool

address     size       variable name                            type
0x0020bc82  0x1        switch_into_ota_pending                  _Bool

address     size       variable name                            type
0x0020bc74  0x4        app_task_handle                          pointer to unknown Type 

address     size       variable name                            type
0x0020bc78  0x4        evt_queue_handle                         pointer to unknown Type 

address     size       variable name                            type
0x0020bc7c  0x4        io_queue_handle                          pointer to unknown Type 

address     size       variable name                            type
0x0020b768  0x15       adv_data                                 array[21] of const uint8_t

address     size       variable name                            type
0x0020b764  0x4        scan_rsp_data                            array[4] of const uint8_t

address     size       variable name                            type
0x0020bba4  0x84       CPU_StoreReg                             array[33] of uint32_t

address     size       variable name                            type
0x0020bc50  0x24       GPIO_StoreReg                            array[9] of uint32_t

address     size       variable name                            type
0x0020bb98  0x4        PeriIntStoreReg                          uint32_t

address     size       variable name                            type
0x0020bc28  0x28       Pinmux_StoreReg                          array[10] of uint32_t

address     size       variable name                            type
0x0020bba0  0x4        User_IO_EnterDlpsCB                      DLPS_IO_EnterDlpsCB

address     size       variable name                            type
0x0020bb9c  0x4        User_IO_ExitDlpsCB                       DLPS_IO_ExitDlpsCB

address     size       variable name                            type
0x0020b534  0x10       GATT_UUID_OTA_SERVICE                    array[16] of const uint8_t

address     size       variable name                            type
0x0020b758  0xc        OTAServiceCBs                            const T_FUN_GATT_SERVICE_CBS
0x0020b758  0x4        OTAServiceCBs.read_attr_cb               P_FUN_GATT_READ_ATTR_CB
0x0020b75c  0x4        OTAServiceCBs.write_attr_cb              P_FUN_GATT_WRITE_ATTR_CB
0x0020b760  0x4        OTAServiceCBs.cccd_update_cb             P_FUN_GATT_CCCD_UPDATE_CB

address     size       variable name                            type
0x0020bb6c  0x4        app_version                              uint32_t

address     size       variable name                            type
0x0020b544  0x214      gattOtaServiceTable                      array[19] of const T_ATTRIB_APPL

address     size       variable name                            type
0x0020bb70  0x6        mac_addr                                 array[6] of uint8_t

address     size       variable name                            type
0x00000000  0x1        ota_update_bank_num                      uint8_t

address     size       variable name                            type
0x00000000  0x4        patch_ext_version                        uint32_t

address     size       variable name                            type
0x0020bb68  0x4        patch_version                            uint32_t

address     size       variable name                            type
0x0020bb64  0x4        pfnOTAExtendedCB                         P_FUN_SERVER_GENERAL_CB

address     size       variable name                            type
0x0020b314  0x214      dis_attr_tbl                             array[19] of const T_ATTRIB_APPL

address     size       variable name                            type
0x00000000  0x2        dis_attr_tbl_size                        const uint16_t

address     size       variable name                            type
0x0020b528  0xc        dis_cbs                                  const T_FUN_GATT_SERVICE_CBS
0x0020b528  0x4        dis_cbs.read_attr_cb                     P_FUN_GATT_READ_ATTR_CB
0x0020b52c  0x4        dis_cbs.write_attr_cb                    P_FUN_GATT_WRITE_ATTR_CB
0x0020b530  0x4        dis_cbs.cccd_update_cb                   P_FUN_GATT_CCCD_UPDATE_CB

address     size       variable name                            type
0x0020bb3c  0x14       dis_firmware_rev                         array[20] of uint8_t

address     size       variable name                            type
0x0020bae4  0x1        dis_firmware_rev_len                     uint8_t

address     size       variable name                            type
0x0020bb28  0x14       dis_hardware_rev                         array[20] of uint8_t

address     size       variable name                            type
0x0020bae3  0x1        dis_hardware_rev_len                     uint8_t

address     size       variable name                            type
0x0020ba42  0x1e       dis_ieee_data_list                       array[30] of uint8_t

address     size       variable name                            type
0x0020ba32  0x1        dis_ieee_data_list_len                   uint8_t

address     size       variable name                            type
0x0020baec  0x14       dis_manufacturer_name                    array[20] of uint8_t

address     size       variable name                            type
0x0020bae0  0x1        dis_manufacturer_name_len                uint8_t

address     size       variable name                            type
0x0020bb00  0x14       dis_model_number                         array[20] of uint8_t

address     size       variable name                            type
0x0020bae1  0x1        dis_model_number_len                     uint8_t

address     size       variable name                            type
0x0020ba33  0x7        dis_pnp_id                               array[7] of uint8_t

address     size       variable name                            type
0x0020bb14  0x14       dis_serial_number                        array[20] of uint8_t

address     size       variable name                            type
0x0020bae2  0x1        dis_serial_number_len                    uint8_t

address     size       variable name                            type
0x0020bb50  0x14       dis_software_rev                         array[20] of uint8_t

address     size       variable name                            type
0x0020bae5  0x1        dis_software_rev_len                     uint8_t

address     size       variable name                            type
0x0020ba3a  0x8        dis_system_id                            array[8] of uint8_t

address     size       variable name                            type
0x0020bae8  0x4        pfn_dis_cb                               P_FUN_SERVER_GENERAL_CB

address     size       variable name                            type
0x0020b298  0x70       bas_attr_tbl                             array[4] of const T_ATTRIB_APPL

address     size       variable name                            type
0x0020b308  0xc        bas_cbs                                  const T_FUN_GATT_SERVICE_CBS
0x0020b308  0x4        bas_cbs.read_attr_cb                     P_FUN_GATT_READ_ATTR_CB
0x0020b30c  0x4        bas_cbs.write_attr_cb                    P_FUN_GATT_WRITE_ATTR_CB
0x0020b310  0x4        bas_cbs.cccd_update_cb                   P_FUN_GATT_CCCD_UPDATE_CB

address     size       variable name                            type
0x0020bad9  0x1        bas_read_battery_level_pending           _Bool

address     size       variable name                            type
0x0020bad8  0x1        battery_level                            uint8_t

address     size       variable name                            type
0x0020badc  0x4        pfn_bas_cb                               P_FUN_SERVER_GENERAL_CB

address     size       variable name                            type
0x0020bad2  0x2        external_report_refer                    uint16_t

address     size       variable name                            type
0x0020ba2e  0x4        hid_info                                 T_HID_INFO
0x0020ba2e  0x1        hid_info.b_country_code                  uint8_t
0x0020ba2f  0x1        hid_info.flags                           uint8_t
0x0020ba30  0x2        hid_info.bcd_hid                         uint16_t

address     size       variable name                            type
0x0020bad0  0x1        hid_protocol_mode                        T_HID_PROTOCOL_MODE

address     size       variable name                            type
0x0020bad1  0x1        hid_suspand_mode                         uint8_t

address     size       variable name                            type
0x0020af60  0x32c      hids_attr_tbl                            array[29] of const T_ATTRIB_APPL

address     size       variable name                            type
0x0020ba2c  0x2        hids_attr_tbl_len                        uint16_t

address     size       variable name                            type
0x0020b28c  0xc        hids_cbs                                 const T_FUN_GATT_SERVICE_CBS
0x0020b28c  0x4        hids_cbs.read_attr_cb                    P_FUN_GATT_READ_ATTR_CB
0x0020b290  0x4        hids_cbs.write_attr_cb                   P_FUN_GATT_WRITE_ATTR_CB
0x0020b294  0x4        hids_cbs.cccd_update_cb                  P_FUN_GATT_CCCD_UPDATE_CB

address     size       variable name                            type
0x0020aecc  0x93       hids_report_descriptor                   array[147] of const uint8_t

address     size       variable name                            type
0x0020bad4  0x4        pfn_hids_cb                              P_FUN_SERVER_GENERAL_CB

address     size       variable name                            type
0x0020adcc  0xc        app_cb_table                             const T_APP_CB_TABLE
0x0020adcc  0x4        app_cb_table.app_cb_signature            uint32_t
0x0020add0  0x4        app_cb_table.app_cb_numbers              uint32_t
0x0020add4  0x4        app_cb_table.app_cb_addr                 array[1] of uint32_t

address     size       variable name                            type
0x0080e1e0  0x220      auth_header                              const T_AUTH_HEADER_FORMAT
0x0080e1e0  0x100      auth_header.payload_signature            array[256] of uint8_t
0x0080e2e0  0x10       auth_header.payload_mac                  array[16] of uint8_t
0x0080e2f0  0x100      auth_header.header_signature             array[256] of uint8_t
0x0080e3f0  0x10       auth_header.header_mac                   array[16] of uint8_t

address     size       variable name                            type
0x0080e000  0x1e0      img_header                               const T_IMG_HEADER_FORMAT
0x0080e000  0xc        img_header.ctrl_header                   T_IMG_CTRL_HEADER_FORMAT
0x0080e000  0x1        img_header.ctrl_header.ic_type           uint8_t
0x0080e001  0x1        img_header.ctrl_header.secure_version    uint8_t
0x0080e002  0x2        img_header.ctrl_header.ctrl_flag         anonymous
0x0080e002  0x2        img_header.ctrl_header.ctrl_flag.value   uint16_t
0x0080e002  0x2        img_header.ctrl_header.ctrl_flag.flag_value anonymous
0x0080e002  0x2(15:1)  img_header.ctrl_header.ctrl_flag.flag_value.xip uint16_t
0x0080e002  0x2(14:1)  img_header.ctrl_header.ctrl_flag.flag_value.enc uint16_t
0x0080e002  0x2(13:1)  img_header.ctrl_header.ctrl_flag.flag_value.load_when_boot uint16_t
0x0080e002  0x2(12:1)  img_header.ctrl_header.ctrl_flag.flag_value.enc_load uint16_t
0x0080e002  0x2(9:3)   img_header.ctrl_header.ctrl_flag.flag_value.enc_key_select uint16_t
0x0080e002  0x2(8:1)   img_header.ctrl_header.ctrl_flag.flag_value.not_ready uint16_t
0x0080e002  0x2(7:1)   img_header.ctrl_header.ctrl_flag.flag_value.not_obsolete uint16_t
0x0080e002  0x2(6:1)   img_header.ctrl_header.ctrl_flag.flag_value.integrity_check_en_in_boot uint16_t
0x0080e002  0x2(0:6)   img_header.ctrl_header.ctrl_flag.flag_value.rsvd uint16_t
0x0080e004  0x2        img_header.ctrl_header.image_id          uint16_t
0x0080e006  0x2        img_header.ctrl_header.crc16             uint16_t
0x0080e008  0x4        img_header.ctrl_header.payload_len       uint32_t
0x0080e00c  0x10       img_header.uuid                          array[16] of uint8_t
0x0080e01c  0x4        img_header.exe_base                      uint32_t
0x0080e020  0x4        img_header.load_base                     uint32_t
0x0080e024  0x4        img_header.load_len                      uint32_t
0x0080e028  0x4        img_header.img_base                      uint32_t
0x0080e02c  0x4        img_header.rsvd0                         array[4] of uint8_t
0x0080e030  0x4        img_header.magic_pattern                 uint32_t
0x0080e034  0x10       img_header.dec_key                       array[16] of uint8_t
0x0080e044  0x1c       img_header.rsvd1                         array[28] of uint8_t
0x0080e060  0x10       img_header.git_ver                       T_VERSION_FORMAT
0x0080e060  0x4        img_header.git_ver.ver_info              anonymous
0x0080e060  0x4        img_header.git_ver.ver_info.version      uint32_t
0x0080e060  0x4        img_header.git_ver.ver_info.sub_version  anonymous
0x0080e060  0x4(28:4)  img_header.git_ver.ver_info.sub_version._version_major uint32_t
0x0080e060  0x4(20:8)  img_header.git_ver.ver_info.sub_version._version_minor uint32_t
0x0080e060  0x4(5:15)  img_header.git_ver.ver_info.sub_version._version_revision uint32_t
0x0080e060  0x4(0:5)   img_header.git_ver.ver_info.sub_version._version_reserve uint32_t
0x0080e064  0x4        img_header.git_ver._version_commitid     uint32_t
0x0080e068  0x8        img_header.git_ver._customer_name        array[8] of uint8_t
0x0080e070  0x104      img_header.rsaPubKey                     T_RSA_PUBLIC_KEY
0x0080e070  0x100      img_header.rsaPubKey.N                   array[256] of uint8_t
0x0080e170  0x4        img_header.rsaPubKey.E                   array[4] of uint8_t
0x0080e174  0x20       img_header.sha256                        array[32] of uint8_t
0x0080e194  0x44       img_header.rsvd2                         array[68] of uint8_t
0x0080e1d8  0x4        img_header.app_cb_signature              uint32_t
0x0080e1dc  0x4        img_header.app_cb_table_base_address     uint32_t

address     size       variable name                            type
0x0020bacc  0x4        user_wdg_cb                              BOOL_WDG_CB

